
/Users/aryachakrabarti/Desktop/macropad_firmware/build/macropad.elf:     file format elf32-littlearm

Sections:
Idx Name          Size      VMA       LMA       File off  Algn
  0 .boot2        00000100  10000000  10000000  00001000  2**0
                  CONTENTS, ALLOC, LOAD, READONLY, CODE
  1 .text         00004b50  10000100  10000100  00001100  2**3
                  CONTENTS, ALLOC, LOAD, READONLY, CODE
  2 .rodata       000004e8  10004c50  10004c50  00005c50  2**2
                  CONTENTS, ALLOC, LOAD, READONLY, DATA
  3 .binary_info  0000001c  10005138  10005138  00006138  2**2
                  CONTENTS, ALLOC, LOAD, READONLY, DATA
  4 .ram_vector_table 000000c0  20000000  20000000  00008000  2**2
                  ALLOC
  5 .uninitialized_data 00000000  200000c0  200000c0  00007ee8  2**0
                  CONTENTS
  6 .data         00000e28  200000c0  10005154  000070c0  2**4
                  CONTENTS, ALLOC, LOAD, READONLY, CODE
  7 .tdata        00000000  20000ee8  20000ee8  00007ee8  2**0
                  CONTENTS, ALLOC, LOAD, DATA, THREAD_LOCAL
  8 .tbss         00000000  20000ee8  20000ee8  00000000  2**0
                  ALLOC, THREAD_LOCAL
  9 .bss          00000c6c  20000ee8  10005f7c  00007ee8  2**3
                  ALLOC
 10 .heap         00000800  20001b54  10005f7c  00008b54  2**2
                  ALLOC, READONLY
 11 .scratch_x    00000000  20040000  20040000  00007ee8  2**0
                  CONTENTS
 12 .scratch_y    00000000  20041000  20041000  00007ee8  2**0
                  CONTENTS
 13 .stack_dummy  00000800  20041000  20041000  00008000  2**5
                  ALLOC, READONLY
 14 .ARM.attributes 00000028  00000000  00000000  00007ee8  2**0
                  CONTENTS, READONLY
 15 .comment      00000044  00000000  00000000  00007f10  2**0
                  CONTENTS, READONLY
 16 .debug_info   00034ae7  00000000  00000000  00007f54  2**0
                  CONTENTS, READONLY, DEBUGGING, OCTETS
 17 .debug_abbrev 00007ea3  00000000  00000000  0003ca3b  2**0
                  CONTENTS, READONLY, DEBUGGING, OCTETS
 18 .debug_loclists 0001c6a7  00000000  00000000  000448de  2**0
                  CONTENTS, READONLY, DEBUGGING, OCTETS
 19 .debug_aranges 00001518  00000000  00000000  00060f88  2**3
                  CONTENTS, READONLY, DEBUGGING, OCTETS
 20 .debug_rnglists 00004a60  00000000  00000000  000624a0  2**0
                  CONTENTS, READONLY, DEBUGGING, OCTETS
 21 .debug_line   0002416e  00000000  00000000  00066f00  2**0
                  CONTENTS, READONLY, DEBUGGING, OCTETS
 22 .debug_str    0000885f  00000000  00000000  0008b06e  2**0
                  CONTENTS, READONLY, DEBUGGING, OCTETS
 23 .debug_frame  00002b6c  00000000  00000000  000938d0  2**2
                  CONTENTS, READONLY, DEBUGGING, OCTETS
 24 .debug_line_str 00000394  00000000  00000000  0009643c  2**0
                  CONTENTS, READONLY, DEBUGGING, OCTETS

/Users/aryachakrabarti/Desktop/macropad_firmware/build/macropad.elf:     file format elf32-littlearm


Disassembly of section .boot2:

10000000 <__boot2_start__>:
10000000:	4b32b500 	.word	0x4b32b500
10000004:	60582021 	.word	0x60582021
10000008:	21026898 	.word	0x21026898
1000000c:	60984388 	.word	0x60984388
10000010:	611860d8 	.word	0x611860d8
10000014:	4b2e6158 	.word	0x4b2e6158
10000018:	60992100 	.word	0x60992100
1000001c:	61592102 	.word	0x61592102
10000020:	22f02101 	.word	0x22f02101
10000024:	492b5099 	.word	0x492b5099
10000028:	21016019 	.word	0x21016019
1000002c:	20356099 	.word	0x20356099
10000030:	f844f000 	.word	0xf844f000
10000034:	42902202 	.word	0x42902202
10000038:	2106d014 	.word	0x2106d014
1000003c:	f0006619 	.word	0xf0006619
10000040:	6e19f834 	.word	0x6e19f834
10000044:	66192101 	.word	0x66192101
10000048:	66182000 	.word	0x66182000
1000004c:	f000661a 	.word	0xf000661a
10000050:	6e19f82c 	.word	0x6e19f82c
10000054:	6e196e19 	.word	0x6e196e19
10000058:	f0002005 	.word	0xf0002005
1000005c:	2101f82f 	.word	0x2101f82f
10000060:	d1f94208 	.word	0xd1f94208
10000064:	60992100 	.word	0x60992100
10000068:	6019491b 	.word	0x6019491b
1000006c:	60592100 	.word	0x60592100
10000070:	481b491a 	.word	0x481b491a
10000074:	21016001 	.word	0x21016001
10000078:	21eb6099 	.word	0x21eb6099
1000007c:	21a06619 	.word	0x21a06619
10000080:	f0006619 	.word	0xf0006619
10000084:	2100f812 	.word	0x2100f812
10000088:	49166099 	.word	0x49166099
1000008c:	60014814 	.word	0x60014814
10000090:	60992101 	.word	0x60992101
10000094:	2800bc01 	.word	0x2800bc01
10000098:	4700d000 	.word	0x4700d000
1000009c:	49134812 	.word	0x49134812
100000a0:	c8036008 	.word	0xc8036008
100000a4:	8808f380 	.word	0x8808f380
100000a8:	b5034708 	.word	0xb5034708
100000ac:	20046a99 	.word	0x20046a99
100000b0:	d0fb4201 	.word	0xd0fb4201
100000b4:	42012001 	.word	0x42012001
100000b8:	bd03d1f8 	.word	0xbd03d1f8
100000bc:	6618b502 	.word	0x6618b502
100000c0:	f7ff6618 	.word	0xf7ff6618
100000c4:	6e18fff2 	.word	0x6e18fff2
100000c8:	bd026e18 	.word	0xbd026e18
100000cc:	40020000 	.word	0x40020000
100000d0:	18000000 	.word	0x18000000
100000d4:	00070000 	.word	0x00070000
100000d8:	005f0300 	.word	0x005f0300
100000dc:	00002221 	.word	0x00002221
100000e0:	180000f4 	.word	0x180000f4
100000e4:	a0002022 	.word	0xa0002022
100000e8:	10000100 	.word	0x10000100
100000ec:	e000ed08 	.word	0xe000ed08
	...
100000fc:	7a4eb274 	.word	0x7a4eb274

Disassembly of section .text:

10000100 <__VECTOR_TABLE>:
10000100:	20042000 	.word	0x20042000
10000104:	100001f7 	.word	0x100001f7
10000108:	100001cb 	.word	0x100001cb
1000010c:	100001cd 	.word	0x100001cd
10000110:	100001c9 	.word	0x100001c9
10000114:	100001c9 	.word	0x100001c9
10000118:	100001c9 	.word	0x100001c9
1000011c:	100001c9 	.word	0x100001c9
10000120:	100001c9 	.word	0x100001c9
10000124:	100001c9 	.word	0x100001c9
10000128:	100001c9 	.word	0x100001c9
1000012c:	100001cf 	.word	0x100001cf
10000130:	100001c9 	.word	0x100001c9
10000134:	100001c9 	.word	0x100001c9
10000138:	100001d1 	.word	0x100001d1
1000013c:	100001d3 	.word	0x100001d3
10000140:	100001c1 	.word	0x100001c1
10000144:	100001c1 	.word	0x100001c1
10000148:	100001c1 	.word	0x100001c1
1000014c:	100001c1 	.word	0x100001c1
10000150:	100001c1 	.word	0x100001c1
10000154:	100001c1 	.word	0x100001c1
10000158:	100001c1 	.word	0x100001c1
1000015c:	100001c1 	.word	0x100001c1
10000160:	100001c1 	.word	0x100001c1
10000164:	100001c1 	.word	0x100001c1
10000168:	100001c1 	.word	0x100001c1
1000016c:	100001c1 	.word	0x100001c1
10000170:	100001c1 	.word	0x100001c1
10000174:	100001c1 	.word	0x100001c1
10000178:	100001c1 	.word	0x100001c1
1000017c:	100001c1 	.word	0x100001c1
10000180:	100001c1 	.word	0x100001c1
10000184:	100001c1 	.word	0x100001c1
10000188:	100001c1 	.word	0x100001c1
1000018c:	100001c1 	.word	0x100001c1
10000190:	100001c1 	.word	0x100001c1
10000194:	100001c1 	.word	0x100001c1
10000198:	100001c1 	.word	0x100001c1
1000019c:	100001c1 	.word	0x100001c1
100001a0:	100001c1 	.word	0x100001c1
100001a4:	100001c1 	.word	0x100001c1
100001a8:	100001c1 	.word	0x100001c1
100001ac:	100001c1 	.word	0x100001c1
100001b0:	100001c1 	.word	0x100001c1
100001b4:	100001c1 	.word	0x100001c1
100001b8:	100001c1 	.word	0x100001c1
100001bc:	100001c1 	.word	0x100001c1

100001c0 <__unhandled_user_irq>:
100001c0:	f3ef 8005 	mrs	r0, IPSR
100001c4:	3810      	subs	r0, #16

100001c6 <unhandled_user_irq_num_in_r0>:
100001c6:	be00      	bkpt	0x0000

100001c8 <isr_invalid>:
100001c8:	be00      	bkpt	0x0000

100001ca <isr_nmi>:
100001ca:	be00      	bkpt	0x0000

100001cc <isr_hardfault>:
100001cc:	be00      	bkpt	0x0000

100001ce <isr_svcall>:
100001ce:	be00      	bkpt	0x0000

100001d0 <isr_pendsv>:
100001d0:	be00      	bkpt	0x0000

100001d2 <isr_systick>:
100001d2:	be00      	bkpt	0x0000

100001d4 <__default_isrs_end>:
100001d4:	7188ebf2 	.word	0x7188ebf2
100001d8:	10005138 	.word	0x10005138
100001dc:	10005154 	.word	0x10005154
100001e0:	10000238 	.word	0x10000238
100001e4:	e71aa390 	.word	0xe71aa390

100001e8 <_entry_point>:
100001e8:	481e      	ldr	r0, [pc, #120]	@ (10000264 <data_cpy_table+0x2c>)

100001ea <_enter_vtable_in_r0>:
100001ea:	491f      	ldr	r1, [pc, #124]	@ (10000268 <data_cpy_table+0x30>)
100001ec:	6008      	str	r0, [r1, #0]
100001ee:	c806      	ldmia	r0!, {r1, r2}
100001f0:	f381 8808 	msr	MSP, r1
100001f4:	4710      	bx	r2

100001f6 <_reset_handler>:
100001f6:	481d      	ldr	r0, [pc, #116]	@ (1000026c <data_cpy_table+0x34>)
100001f8:	6800      	ldr	r0, [r0, #0]
100001fa:	2800      	cmp	r0, #0
100001fc:	d001      	beq.n	10000202 <hold_non_core0_in_bootrom+0x4>

100001fe <hold_non_core0_in_bootrom>:
100001fe:	4819      	ldr	r0, [pc, #100]	@ (10000264 <data_cpy_table+0x2c>)
10000200:	e7f3      	b.n	100001ea <_enter_vtable_in_r0>
10000202:	a40d      	add	r4, pc, #52	@ (adr r4, 10000238 <data_cpy_table>)
10000204:	cc0e      	ldmia	r4!, {r1, r2, r3}
10000206:	2900      	cmp	r1, #0
10000208:	d002      	beq.n	10000210 <hold_non_core0_in_bootrom+0x12>
1000020a:	f000 f812 	bl	10000232 <data_cpy>
1000020e:	e7f9      	b.n	10000204 <hold_non_core0_in_bootrom+0x6>
10000210:	4917      	ldr	r1, [pc, #92]	@ (10000270 <data_cpy_table+0x38>)
10000212:	4a18      	ldr	r2, [pc, #96]	@ (10000274 <data_cpy_table+0x3c>)
10000214:	2000      	movs	r0, #0
10000216:	e000      	b.n	1000021a <bss_fill_test>

10000218 <bss_fill_loop>:
10000218:	c101      	stmia	r1!, {r0}

1000021a <bss_fill_test>:
1000021a:	4291      	cmp	r1, r2
1000021c:	d1fc      	bne.n	10000218 <bss_fill_loop>

1000021e <platform_entry>:
1000021e:	4916      	ldr	r1, [pc, #88]	@ (10000278 <data_cpy_table+0x40>)
10000220:	4788      	blx	r1
10000222:	4916      	ldr	r1, [pc, #88]	@ (1000027c <data_cpy_table+0x44>)
10000224:	4788      	blx	r1
10000226:	4916      	ldr	r1, [pc, #88]	@ (10000280 <data_cpy_table+0x48>)
10000228:	4788      	blx	r1
1000022a:	be00      	bkpt	0x0000
1000022c:	e7fd      	b.n	1000022a <platform_entry+0xc>

1000022e <data_cpy_loop>:
1000022e:	c901      	ldmia	r1!, {r0}
10000230:	c201      	stmia	r2!, {r0}

10000232 <data_cpy>:
10000232:	429a      	cmp	r2, r3
10000234:	d3fb      	bcc.n	1000022e <data_cpy_loop>
10000236:	4770      	bx	lr

10000238 <data_cpy_table>:
10000238:	10005154 	.word	0x10005154
1000023c:	200000c0 	.word	0x200000c0
10000240:	20000ee8 	.word	0x20000ee8
10000244:	10005f7c 	.word	0x10005f7c
10000248:	20040000 	.word	0x20040000
1000024c:	20040000 	.word	0x20040000
10000250:	10005f7c 	.word	0x10005f7c
10000254:	20041000 	.word	0x20041000
10000258:	20041000 	.word	0x20041000
1000025c:	00000000 	.word	0x00000000
10000260:	4770      	bx	lr
10000262:	0000      	.short	0x0000
10000264:	00000000 	.word	0x00000000
10000268:	e000ed08 	.word	0xe000ed08
1000026c:	d0000000 	.word	0xd0000000
10000270:	20000ee8 	.word	0x20000ee8
10000274:	20001b54 	.word	0x20001b54
10000278:	100031e5 	.word	0x100031e5
1000027c:	10000309 	.word	0x10000309
10000280:	100031dd 	.word	0x100031dd

10000284 <_init>:
10000284:	b5f8      	push	{r3, r4, r5, r6, r7, lr}
10000286:	46c0      	nop			@ (mov r8, r8)

10000288 <register_tm_clones>:
10000288:	4806      	ldr	r0, [pc, #24]	@ (100002a4 <register_tm_clones+0x1c>)
1000028a:	4907      	ldr	r1, [pc, #28]	@ (100002a8 <register_tm_clones+0x20>)
1000028c:	1a09      	subs	r1, r1, r0
1000028e:	108b      	asrs	r3, r1, #2
10000290:	0fc9      	lsrs	r1, r1, #31
10000292:	18c9      	adds	r1, r1, r3
10000294:	b510      	push	{r4, lr}
10000296:	1049      	asrs	r1, r1, #1
10000298:	d003      	beq.n	100002a2 <register_tm_clones+0x1a>
1000029a:	4b04      	ldr	r3, [pc, #16]	@ (100002ac <register_tm_clones+0x24>)
1000029c:	2b00      	cmp	r3, #0
1000029e:	d000      	beq.n	100002a2 <register_tm_clones+0x1a>
100002a0:	4798      	blx	r3
100002a2:	bd10      	pop	{r4, pc}
100002a4:	20000ee8 	.word	0x20000ee8
100002a8:	20000ee8 	.word	0x20000ee8
100002ac:	00000000 	.word	0x00000000

100002b0 <frame_dummy>:
100002b0:	4b05      	ldr	r3, [pc, #20]	@ (100002c8 <frame_dummy+0x18>)
100002b2:	b510      	push	{r4, lr}
100002b4:	2b00      	cmp	r3, #0
100002b6:	d003      	beq.n	100002c0 <frame_dummy+0x10>
100002b8:	4904      	ldr	r1, [pc, #16]	@ (100002cc <frame_dummy+0x1c>)
100002ba:	4805      	ldr	r0, [pc, #20]	@ (100002d0 <frame_dummy+0x20>)
100002bc:	e000      	b.n	100002c0 <frame_dummy+0x10>
100002be:	bf00      	nop
100002c0:	f7ff ffe2 	bl	10000288 <register_tm_clones>
100002c4:	bd10      	pop	{r4, pc}
100002c6:	46c0      	nop			@ (mov r8, r8)
100002c8:	00000000 	.word	0x00000000
100002cc:	20001b10 	.word	0x20001b10
100002d0:	10004c50 	.word	0x10004c50

100002d4 <update_display>:
100002d4:	b510      	push	{r4, lr}
100002d6:	4b07      	ldr	r3, [pc, #28]	@ (100002f4 <update_display+0x20>)
100002d8:	781b      	ldrb	r3, [r3, #0]
100002da:	2b00      	cmp	r3, #0
100002dc:	d104      	bne.n	100002e8 <update_display+0x14>
100002de:	4906      	ldr	r1, [pc, #24]	@ (100002f8 <update_display+0x24>)
100002e0:	4806      	ldr	r0, [pc, #24]	@ (100002fc <update_display+0x28>)
100002e2:	f000 feef 	bl	100010c4 <oled_draw_grid>
100002e6:	bd10      	pop	{r4, pc}
100002e8:	4905      	ldr	r1, [pc, #20]	@ (10000300 <update_display+0x2c>)
100002ea:	4806      	ldr	r0, [pc, #24]	@ (10000304 <update_display+0x30>)
100002ec:	f000 feea 	bl	100010c4 <oled_draw_grid>
100002f0:	e7f9      	b.n	100002e6 <update_display+0x12>
100002f2:	46c0      	nop			@ (mov r8, r8)
100002f4:	20001b4f 	.word	0x20001b4f
100002f8:	10004c50 	.word	0x10004c50
100002fc:	20000dfc 	.word	0x20000dfc
10000300:	10004c5c 	.word	0x10004c5c
10000304:	20000dd8 	.word	0x20000dd8

10000308 <main>:
10000308:	b5f0      	push	{r4, r5, r6, r7, lr}
1000030a:	46de      	mov	lr, fp
1000030c:	4657      	mov	r7, sl
1000030e:	464e      	mov	r6, r9
10000310:	4645      	mov	r5, r8
10000312:	b5e0      	push	{r5, r6, r7, lr}
10000314:	b083      	sub	sp, #12
10000316:	f003 f84d 	bl	100033b4 <stdio_init_all>
1000031a:	20fa      	movs	r0, #250	@ 0xfa
1000031c:	0080      	lsls	r0, r0, #2
1000031e:	f002 f879 	bl	10002414 <sleep_ms>
10000322:	f000 f87f 	bl	10000424 <matrix_init>
10000326:	f000 f9b9 	bl	1000069c <encoder_init>
1000032a:	f000 ff49 	bl	100011c0 <usb_hid_init>
1000032e:	f000 fa2d 	bl	1000078c <oled_init>
10000332:	f7ff ffcf 	bl	100002d4 <update_display>
10000336:	4b33      	ldr	r3, [pc, #204]	@ (10000404 <main+0xfc>)
10000338:	4f33      	ldr	r7, [pc, #204]	@ (10000408 <main+0x100>)
1000033a:	469b      	mov	fp, r3
1000033c:	4b33      	ldr	r3, [pc, #204]	@ (1000040c <main+0x104>)
1000033e:	4e34      	ldr	r6, [pc, #208]	@ (10000410 <main+0x108>)
10000340:	469a      	mov	sl, r3
10000342:	4b34      	ldr	r3, [pc, #208]	@ (10000414 <main+0x10c>)
10000344:	9300      	str	r3, [sp, #0]
10000346:	4b34      	ldr	r3, [pc, #208]	@ (10000418 <main+0x110>)
10000348:	9301      	str	r3, [sp, #4]
1000034a:	4b34      	ldr	r3, [pc, #208]	@ (1000041c <main+0x114>)
1000034c:	4699      	mov	r9, r3
1000034e:	4b34      	ldr	r3, [pc, #208]	@ (10000420 <main+0x118>)
10000350:	4698      	mov	r8, r3
10000352:	2001      	movs	r0, #1
10000354:	2100      	movs	r1, #0
10000356:	4240      	negs	r0, r0
10000358:	f003 fabc 	bl	100038d4 <tud_task_ext>
1000035c:	2400      	movs	r4, #0
1000035e:	f000 f891 	bl	10000484 <matrix_scan>
10000362:	e007      	b.n	10000374 <main+0x6c>
10000364:	0028      	movs	r0, r5
10000366:	f000 f963 	bl	10000630 <matrix_key_released>
1000036a:	2800      	cmp	r0, #0
1000036c:	d11b      	bne.n	100003a6 <main+0x9e>
1000036e:	3401      	adds	r4, #1
10000370:	2c09      	cmp	r4, #9
10000372:	d01d      	beq.n	100003b0 <main+0xa8>
10000374:	b2e5      	uxtb	r5, r4
10000376:	0028      	movs	r0, r5
10000378:	f000 f946 	bl	10000608 <matrix_key_pressed>
1000037c:	2800      	cmp	r0, #0
1000037e:	d0f1      	beq.n	10000364 <main+0x5c>
10000380:	5d3b      	ldrb	r3, [r7, r4]
10000382:	7832      	ldrb	r2, [r6, #0]
10000384:	2b07      	cmp	r3, #7
10000386:	d029      	beq.n	100003dc <main+0xd4>
10000388:	005b      	lsls	r3, r3, #1
1000038a:	2a00      	cmp	r2, #0
1000038c:	d11e      	bne.n	100003cc <main+0xc4>
1000038e:	464a      	mov	r2, r9
10000390:	18d2      	adds	r2, r2, r3
10000392:	7851      	ldrb	r1, [r2, #1]
10000394:	464a      	mov	r2, r9
10000396:	5cd0      	ldrb	r0, [r2, r3]
10000398:	f000 ff18 	bl	100011cc <usb_hid_send_key>
1000039c:	0028      	movs	r0, r5
1000039e:	f000 f947 	bl	10000630 <matrix_key_released>
100003a2:	2800      	cmp	r0, #0
100003a4:	d0e3      	beq.n	1000036e <main+0x66>
100003a6:	3401      	adds	r4, #1
100003a8:	f000 ff2c 	bl	10001204 <usb_hid_release_all>
100003ac:	2c09      	cmp	r4, #9
100003ae:	d1e1      	bne.n	10000374 <main+0x6c>
100003b0:	f000 f99c 	bl	100006ec <encoder_get_delta>
100003b4:	2800      	cmp	r0, #0
100003b6:	d005      	beq.n	100003c4 <main+0xbc>
100003b8:	2100      	movs	r1, #0
100003ba:	2800      	cmp	r0, #0
100003bc:	dd18      	ble.n	100003f0 <main+0xe8>
100003be:	204f      	movs	r0, #79	@ 0x4f
100003c0:	f000 ff04 	bl	100011cc <usb_hid_send_key>
100003c4:	2001      	movs	r0, #1
100003c6:	f002 f825 	bl	10002414 <sleep_ms>
100003ca:	e7c2      	b.n	10000352 <main+0x4a>
100003cc:	4642      	mov	r2, r8
100003ce:	18d2      	adds	r2, r2, r3
100003d0:	7851      	ldrb	r1, [r2, #1]
100003d2:	4642      	mov	r2, r8
100003d4:	5cd0      	ldrb	r0, [r2, r3]
100003d6:	f000 fef9 	bl	100011cc <usb_hid_send_key>
100003da:	e7c3      	b.n	10000364 <main+0x5c>
100003dc:	4253      	negs	r3, r2
100003de:	4153      	adcs	r3, r2
100003e0:	7033      	strb	r3, [r6, #0]
100003e2:	2a00      	cmp	r2, #0
100003e4:	d008      	beq.n	100003f8 <main+0xf0>
100003e6:	4659      	mov	r1, fp
100003e8:	4650      	mov	r0, sl
100003ea:	f000 fe6b 	bl	100010c4 <oled_draw_grid>
100003ee:	e7b9      	b.n	10000364 <main+0x5c>
100003f0:	2050      	movs	r0, #80	@ 0x50
100003f2:	f000 feeb 	bl	100011cc <usb_hid_send_key>
100003f6:	e7e5      	b.n	100003c4 <main+0xbc>
100003f8:	9900      	ldr	r1, [sp, #0]
100003fa:	9801      	ldr	r0, [sp, #4]
100003fc:	f000 fe62 	bl	100010c4 <oled_draw_grid>
10000400:	e7b0      	b.n	10000364 <main+0x5c>
10000402:	46c0      	nop			@ (mov r8, r8)
10000404:	10004c50 	.word	0x10004c50
10000408:	10004dec 	.word	0x10004dec
1000040c:	20000dfc 	.word	0x20000dfc
10000410:	20001b4f 	.word	0x20001b4f
10000414:	10004c5c 	.word	0x10004c5c
10000418:	20000dd8 	.word	0x20000dd8
1000041c:	10004dd8 	.word	0x10004dd8
10000420:	10004dc4 	.word	0x10004dc4

10000424 <matrix_init>:
10000424:	b5f0      	push	{r4, r5, r6, r7, lr}
10000426:	46c6      	mov	lr, r8
10000428:	2000      	movs	r0, #0
1000042a:	b500      	push	{lr}
1000042c:	26d0      	movs	r6, #208	@ 0xd0
1000042e:	f001 f929 	bl	10001684 <gpio_init>
10000432:	2301      	movs	r3, #1
10000434:	0636      	lsls	r6, r6, #24
10000436:	6273      	str	r3, [r6, #36]	@ 0x24
10000438:	2001      	movs	r0, #1
1000043a:	61b3      	str	r3, [r6, #24]
1000043c:	f001 f922 	bl	10001684 <gpio_init>
10000440:	2302      	movs	r3, #2
10000442:	2002      	movs	r0, #2
10000444:	6273      	str	r3, [r6, #36]	@ 0x24
10000446:	61b3      	str	r3, [r6, #24]
10000448:	f001 f91c 	bl	10001684 <gpio_init>
1000044c:	2304      	movs	r3, #4
1000044e:	6273      	str	r3, [r6, #36]	@ 0x24
10000450:	61b3      	str	r3, [r6, #24]
10000452:	4b0b      	ldr	r3, [pc, #44]	@ (10000480 <matrix_init+0x5c>)
10000454:	2400      	movs	r4, #0
10000456:	4698      	mov	r8, r3
10000458:	2701      	movs	r7, #1
1000045a:	4643      	mov	r3, r8
1000045c:	5d1d      	ldrb	r5, [r3, r4]
1000045e:	3401      	adds	r4, #1
10000460:	0028      	movs	r0, r5
10000462:	f001 f90f 	bl	10001684 <gpio_init>
10000466:	003b      	movs	r3, r7
10000468:	40ab      	lsls	r3, r5
1000046a:	2201      	movs	r2, #1
1000046c:	2100      	movs	r1, #0
1000046e:	0028      	movs	r0, r5
10000470:	62b3      	str	r3, [r6, #40]	@ 0x28
10000472:	f001 f85f 	bl	10001534 <gpio_set_pulls>
10000476:	2c03      	cmp	r4, #3
10000478:	d1ef      	bne.n	1000045a <matrix_init+0x36>
1000047a:	bc80      	pop	{r7}
1000047c:	46b8      	mov	r8, r7
1000047e:	bdf0      	pop	{r4, r5, r6, r7, pc}
10000480:	10004df8 	.word	0x10004df8

10000484 <matrix_scan>:
10000484:	b5f0      	push	{r4, r5, r6, r7, lr}
10000486:	46de      	mov	lr, fp
10000488:	4657      	mov	r7, sl
1000048a:	464e      	mov	r6, r9
1000048c:	4645      	mov	r5, r8
1000048e:	b5e0      	push	{r5, r6, r7, lr}
10000490:	4a59      	ldr	r2, [pc, #356]	@ (100005f8 <matrix_scan+0x174>)
10000492:	4b5a      	ldr	r3, [pc, #360]	@ (100005fc <matrix_scan+0x178>)
10000494:	4693      	mov	fp, r2
10000496:	8812      	ldrh	r2, [r2, #0]
10000498:	b085      	sub	sp, #20
1000049a:	801a      	strh	r2, [r3, #0]
1000049c:	f002 f864 	bl	10002568 <time_us_64>
100004a0:	2900      	cmp	r1, #0
100004a2:	d100      	bne.n	100004a6 <matrix_scan+0x22>
100004a4:	e0a1      	b.n	100005ea <matrix_scan+0x166>
100004a6:	22fa      	movs	r2, #250	@ 0xfa
100004a8:	2300      	movs	r3, #0
100004aa:	0092      	lsls	r2, r2, #2
100004ac:	f002 fb9c 	bl	10002be8 <__wrap___aeabi_uldivmod>
100004b0:	4681      	mov	r9, r0
100004b2:	4b53      	ldr	r3, [pc, #332]	@ (10000600 <matrix_scan+0x17c>)
100004b4:	2400      	movs	r4, #0
100004b6:	9302      	str	r3, [sp, #8]
100004b8:	23d0      	movs	r3, #208	@ 0xd0
100004ba:	464a      	mov	r2, r9
100004bc:	061b      	lsls	r3, r3, #24
100004be:	2500      	movs	r5, #0
100004c0:	2701      	movs	r7, #1
100004c2:	4698      	mov	r8, r3
100004c4:	46a1      	mov	r9, r4
100004c6:	4e4f      	ldr	r6, [pc, #316]	@ (10000604 <matrix_scan+0x180>)
100004c8:	9201      	str	r2, [sp, #4]
100004ca:	003a      	movs	r2, r7
100004cc:	9b02      	ldr	r3, [sp, #8]
100004ce:	200a      	movs	r0, #10
100004d0:	5d5b      	ldrb	r3, [r3, r5]
100004d2:	2100      	movs	r1, #0
100004d4:	409a      	lsls	r2, r3
100004d6:	4643      	mov	r3, r8
100004d8:	615a      	str	r2, [r3, #20]
100004da:	4692      	mov	sl, r2
100004dc:	f001 ff86 	bl	100023ec <sleep_us>
100004e0:	4643      	mov	r3, r8
100004e2:	9a01      	ldr	r2, [sp, #4]
100004e4:	6858      	ldr	r0, [r3, #4]
100004e6:	6833      	ldr	r3, [r6, #0]
100004e8:	1ad3      	subs	r3, r2, r3
100004ea:	2b05      	cmp	r3, #5
100004ec:	d862      	bhi.n	100005b4 <matrix_scan+0x130>
100004ee:	465b      	mov	r3, fp
100004f0:	881b      	ldrh	r3, [r3, #0]
100004f2:	001a      	movs	r2, r3
100004f4:	412a      	asrs	r2, r5
100004f6:	4217      	tst	r7, r2
100004f8:	d005      	beq.n	10000506 <matrix_scan+0x82>
100004fa:	003a      	movs	r2, r7
100004fc:	4649      	mov	r1, r9
100004fe:	40aa      	lsls	r2, r5
10000500:	4311      	orrs	r1, r2
10000502:	b28a      	uxth	r2, r1
10000504:	4691      	mov	r9, r2
10000506:	4642      	mov	r2, r8
10000508:	6852      	ldr	r2, [r2, #4]
1000050a:	68f0      	ldr	r0, [r6, #12]
1000050c:	4694      	mov	ip, r2
1000050e:	001a      	movs	r2, r3
10000510:	9c01      	ldr	r4, [sp, #4]
10000512:	1ce9      	adds	r1, r5, #3
10000514:	410a      	asrs	r2, r1
10000516:	1a20      	subs	r0, r4, r0
10000518:	2805      	cmp	r0, #5
1000051a:	d838      	bhi.n	1000058e <matrix_scan+0x10a>
1000051c:	4217      	tst	r7, r2
1000051e:	d005      	beq.n	1000052c <matrix_scan+0xa8>
10000520:	003a      	movs	r2, r7
10000522:	408a      	lsls	r2, r1
10000524:	4649      	mov	r1, r9
10000526:	4311      	orrs	r1, r2
10000528:	b28a      	uxth	r2, r1
1000052a:	4691      	mov	r9, r2
1000052c:	4642      	mov	r2, r8
1000052e:	9c01      	ldr	r4, [sp, #4]
10000530:	6850      	ldr	r0, [r2, #4]
10000532:	69b2      	ldr	r2, [r6, #24]
10000534:	1da9      	adds	r1, r5, #6
10000536:	410b      	asrs	r3, r1
10000538:	1aa2      	subs	r2, r4, r2
1000053a:	2a05      	cmp	r2, #5
1000053c:	d819      	bhi.n	10000572 <matrix_scan+0xee>
1000053e:	421f      	tst	r7, r3
10000540:	d005      	beq.n	1000054e <matrix_scan+0xca>
10000542:	003b      	movs	r3, r7
10000544:	464a      	mov	r2, r9
10000546:	408b      	lsls	r3, r1
10000548:	431a      	orrs	r2, r3
1000054a:	b293      	uxth	r3, r2
1000054c:	4699      	mov	r9, r3
1000054e:	4643      	mov	r3, r8
10000550:	4652      	mov	r2, sl
10000552:	3501      	adds	r5, #1
10000554:	619a      	str	r2, [r3, #24]
10000556:	3604      	adds	r6, #4
10000558:	2d03      	cmp	r5, #3
1000055a:	d1b6      	bne.n	100004ca <matrix_scan+0x46>
1000055c:	464c      	mov	r4, r9
1000055e:	465b      	mov	r3, fp
10000560:	0020      	movs	r0, r4
10000562:	801c      	strh	r4, [r3, #0]
10000564:	b005      	add	sp, #20
10000566:	bcf0      	pop	{r4, r5, r6, r7}
10000568:	46bb      	mov	fp, r7
1000056a:	46b2      	mov	sl, r6
1000056c:	46a9      	mov	r9, r5
1000056e:	46a0      	mov	r8, r4
10000570:	bdf0      	pop	{r4, r5, r6, r7, pc}
10000572:	2240      	movs	r2, #64	@ 0x40
10000574:	4002      	ands	r2, r0
10000576:	0010      	movs	r0, r2
10000578:	1e44      	subs	r4, r0, #1
1000057a:	41a0      	sbcs	r0, r4
1000057c:	403b      	ands	r3, r7
1000057e:	b2c4      	uxtb	r4, r0
10000580:	4298      	cmp	r0, r3
10000582:	d029      	beq.n	100005d8 <matrix_scan+0x154>
10000584:	9b01      	ldr	r3, [sp, #4]
10000586:	61b3      	str	r3, [r6, #24]
10000588:	2a00      	cmp	r2, #0
1000058a:	d0e0      	beq.n	1000054e <matrix_scan+0xca>
1000058c:	e7d9      	b.n	10000542 <matrix_scan+0xbe>
1000058e:	4664      	mov	r4, ip
10000590:	2010      	movs	r0, #16
10000592:	4020      	ands	r0, r4
10000594:	0004      	movs	r4, r0
10000596:	403a      	ands	r2, r7
10000598:	9203      	str	r2, [sp, #12]
1000059a:	1e62      	subs	r2, r4, #1
1000059c:	4194      	sbcs	r4, r2
1000059e:	46a4      	mov	ip, r4
100005a0:	b2e4      	uxtb	r4, r4
100005a2:	0022      	movs	r2, r4
100005a4:	9c03      	ldr	r4, [sp, #12]
100005a6:	45a4      	cmp	ip, r4
100005a8:	d01c      	beq.n	100005e4 <matrix_scan+0x160>
100005aa:	9a01      	ldr	r2, [sp, #4]
100005ac:	60f2      	str	r2, [r6, #12]
100005ae:	2800      	cmp	r0, #0
100005b0:	d0bc      	beq.n	1000052c <matrix_scan+0xa8>
100005b2:	e7b5      	b.n	10000520 <matrix_scan+0x9c>
100005b4:	2308      	movs	r3, #8
100005b6:	4018      	ands	r0, r3
100005b8:	465b      	mov	r3, fp
100005ba:	881b      	ldrh	r3, [r3, #0]
100005bc:	0001      	movs	r1, r0
100005be:	001a      	movs	r2, r3
100005c0:	1e4c      	subs	r4, r1, #1
100005c2:	41a1      	sbcs	r1, r4
100005c4:	412a      	asrs	r2, r5
100005c6:	b2cc      	uxtb	r4, r1
100005c8:	403a      	ands	r2, r7
100005ca:	4291      	cmp	r1, r2
100005cc:	d007      	beq.n	100005de <matrix_scan+0x15a>
100005ce:	9a01      	ldr	r2, [sp, #4]
100005d0:	6032      	str	r2, [r6, #0]
100005d2:	2800      	cmp	r0, #0
100005d4:	d097      	beq.n	10000506 <matrix_scan+0x82>
100005d6:	e790      	b.n	100004fa <matrix_scan+0x76>
100005d8:	2c00      	cmp	r4, #0
100005da:	d0b8      	beq.n	1000054e <matrix_scan+0xca>
100005dc:	e7b1      	b.n	10000542 <matrix_scan+0xbe>
100005de:	2c00      	cmp	r4, #0
100005e0:	d091      	beq.n	10000506 <matrix_scan+0x82>
100005e2:	e78a      	b.n	100004fa <matrix_scan+0x76>
100005e4:	2a00      	cmp	r2, #0
100005e6:	d0a1      	beq.n	1000052c <matrix_scan+0xa8>
100005e8:	e79a      	b.n	10000520 <matrix_scan+0x9c>
100005ea:	21fa      	movs	r1, #250	@ 0xfa
100005ec:	0089      	lsls	r1, r1, #2
100005ee:	f002 fabd 	bl	10002b6c <__wrap___aeabi_uidiv>
100005f2:	4681      	mov	r9, r0
100005f4:	e75d      	b.n	100004b2 <matrix_scan+0x2e>
100005f6:	46c0      	nop			@ (mov r8, r8)
100005f8:	20001b48 	.word	0x20001b48
100005fc:	20001b4a 	.word	0x20001b4a
10000600:	10004dfc 	.word	0x10004dfc
10000604:	200014d8 	.word	0x200014d8

10000608 <matrix_key_pressed>:
10000608:	4b07      	ldr	r3, [pc, #28]	@ (10000628 <matrix_key_pressed+0x20>)
1000060a:	b510      	push	{r4, lr}
1000060c:	8819      	ldrh	r1, [r3, #0]
1000060e:	4b07      	ldr	r3, [pc, #28]	@ (1000062c <matrix_key_pressed+0x24>)
10000610:	2401      	movs	r4, #1
10000612:	881b      	ldrh	r3, [r3, #0]
10000614:	0002      	movs	r2, r0
10000616:	404b      	eors	r3, r1
10000618:	4103      	asrs	r3, r0
1000061a:	2000      	movs	r0, #0
1000061c:	421c      	tst	r4, r3
1000061e:	d002      	beq.n	10000626 <matrix_key_pressed+0x1e>
10000620:	4111      	asrs	r1, r2
10000622:	0020      	movs	r0, r4
10000624:	4008      	ands	r0, r1
10000626:	bd10      	pop	{r4, pc}
10000628:	20001b48 	.word	0x20001b48
1000062c:	20001b4a 	.word	0x20001b4a

10000630 <matrix_key_released>:
10000630:	4b07      	ldr	r3, [pc, #28]	@ (10000650 <matrix_key_released+0x20>)
10000632:	b510      	push	{r4, lr}
10000634:	8819      	ldrh	r1, [r3, #0]
10000636:	4b07      	ldr	r3, [pc, #28]	@ (10000654 <matrix_key_released+0x24>)
10000638:	2401      	movs	r4, #1
1000063a:	881b      	ldrh	r3, [r3, #0]
1000063c:	0002      	movs	r2, r0
1000063e:	404b      	eors	r3, r1
10000640:	4103      	asrs	r3, r0
10000642:	2000      	movs	r0, #0
10000644:	421c      	tst	r4, r3
10000646:	d002      	beq.n	1000064e <matrix_key_released+0x1e>
10000648:	4111      	asrs	r1, r2
1000064a:	0020      	movs	r0, r4
1000064c:	4388      	bics	r0, r1
1000064e:	bd10      	pop	{r4, pc}
10000650:	20001b48 	.word	0x20001b48
10000654:	20001b4a 	.word	0x20001b4a

10000658 <encoder_callback>:
10000658:	23d0      	movs	r3, #208	@ 0xd0
1000065a:	2201      	movs	r2, #1
1000065c:	b510      	push	{r4, lr}
1000065e:	490c      	ldr	r1, [pc, #48]	@ (10000690 <encoder_callback+0x38>)
10000660:	061b      	lsls	r3, r3, #24
10000662:	6858      	ldr	r0, [r3, #4]
10000664:	685b      	ldr	r3, [r3, #4]
10000666:	780c      	ldrb	r4, [r1, #0]
10000668:	0e80      	lsrs	r0, r0, #26
1000066a:	0edb      	lsrs	r3, r3, #27
1000066c:	4013      	ands	r3, r2
1000066e:	00a4      	lsls	r4, r4, #2
10000670:	4002      	ands	r2, r0
10000672:	4323      	orrs	r3, r4
10000674:	0052      	lsls	r2, r2, #1
10000676:	4313      	orrs	r3, r2
10000678:	220f      	movs	r2, #15
1000067a:	4013      	ands	r3, r2
1000067c:	700b      	strb	r3, [r1, #0]
1000067e:	7809      	ldrb	r1, [r1, #0]
10000680:	4a04      	ldr	r2, [pc, #16]	@ (10000694 <encoder_callback+0x3c>)
10000682:	4805      	ldr	r0, [pc, #20]	@ (10000698 <encoder_callback+0x40>)
10000684:	7813      	ldrb	r3, [r2, #0]
10000686:	5c41      	ldrb	r1, [r0, r1]
10000688:	185b      	adds	r3, r3, r1
1000068a:	b25b      	sxtb	r3, r3
1000068c:	7013      	strb	r3, [r2, #0]
1000068e:	bd10      	pop	{r4, pc}
10000690:	20001b51 	.word	0x20001b51
10000694:	20001b50 	.word	0x20001b50
10000698:	10004e00 	.word	0x10004e00

1000069c <encoder_init>:
1000069c:	b510      	push	{r4, lr}
1000069e:	201a      	movs	r0, #26
100006a0:	f000 fff0 	bl	10001684 <gpio_init>
100006a4:	201b      	movs	r0, #27
100006a6:	f000 ffed 	bl	10001684 <gpio_init>
100006aa:	23d0      	movs	r3, #208	@ 0xd0
100006ac:	2280      	movs	r2, #128	@ 0x80
100006ae:	061b      	lsls	r3, r3, #24
100006b0:	04d2      	lsls	r2, r2, #19
100006b2:	629a      	str	r2, [r3, #40]	@ 0x28
100006b4:	2280      	movs	r2, #128	@ 0x80
100006b6:	0512      	lsls	r2, r2, #20
100006b8:	629a      	str	r2, [r3, #40]	@ 0x28
100006ba:	2101      	movs	r1, #1
100006bc:	2200      	movs	r2, #0
100006be:	201a      	movs	r0, #26
100006c0:	f000 ff38 	bl	10001534 <gpio_set_pulls>
100006c4:	2200      	movs	r2, #0
100006c6:	2101      	movs	r1, #1
100006c8:	201b      	movs	r0, #27
100006ca:	f000 ff33 	bl	10001534 <gpio_set_pulls>
100006ce:	2201      	movs	r2, #1
100006d0:	210c      	movs	r1, #12
100006d2:	201a      	movs	r0, #26
100006d4:	4b04      	ldr	r3, [pc, #16]	@ (100006e8 <encoder_init+0x4c>)
100006d6:	f000 ff6d 	bl	100015b4 <gpio_set_irq_enabled_with_callback>
100006da:	2201      	movs	r2, #1
100006dc:	210c      	movs	r1, #12
100006de:	201b      	movs	r0, #27
100006e0:	f000 ff3c 	bl	1000155c <gpio_set_irq_enabled>
100006e4:	bd10      	pop	{r4, pc}
100006e6:	46c0      	nop			@ (mov r8, r8)
100006e8:	10000659 	.word	0x10000659

100006ec <encoder_get_delta>:
100006ec:	2003      	movs	r0, #3
100006ee:	4a06      	ldr	r2, [pc, #24]	@ (10000708 <encoder_get_delta+0x1c>)
100006f0:	7813      	ldrb	r3, [r2, #0]
100006f2:	b25b      	sxtb	r3, r3
100006f4:	17d9      	asrs	r1, r3, #31
100006f6:	4008      	ands	r0, r1
100006f8:	18c0      	adds	r0, r0, r3
100006fa:	1080      	asrs	r0, r0, #2
100006fc:	7813      	ldrb	r3, [r2, #0]
100006fe:	0081      	lsls	r1, r0, #2
10000700:	1a5b      	subs	r3, r3, r1
10000702:	b25b      	sxtb	r3, r3
10000704:	7013      	strb	r3, [r2, #0]
10000706:	4770      	bx	lr
10000708:	20001b50 	.word	0x20001b50

1000070c <i2c_write_byte.isra.0>:
1000070c:	b5f8      	push	{r3, r4, r5, r6, r7, lr}
1000070e:	25d0      	movs	r5, #208	@ 0xd0
10000710:	4647      	mov	r7, r8
10000712:	46ce      	mov	lr, r9
10000714:	2380      	movs	r3, #128	@ 0x80
10000716:	062d      	lsls	r5, r5, #24
10000718:	b580      	push	{r7, lr}
1000071a:	626b      	str	r3, [r5, #36]	@ 0x24
1000071c:	3b7f      	subs	r3, #127	@ 0x7f
1000071e:	4699      	mov	r9, r3
10000720:	337f      	adds	r3, #127	@ 0x7f
10000722:	0007      	movs	r7, r0
10000724:	2407      	movs	r4, #7
10000726:	4698      	mov	r8, r3
10000728:	e013      	b.n	10000752 <i2c_write_byte.isra.0+0x46>
1000072a:	4643      	mov	r3, r8
1000072c:	616b      	str	r3, [r5, #20]
1000072e:	2680      	movs	r6, #128	@ 0x80
10000730:	2001      	movs	r0, #1
10000732:	2100      	movs	r1, #0
10000734:	05b6      	lsls	r6, r6, #22
10000736:	f001 fe59 	bl	100023ec <sleep_us>
1000073a:	2001      	movs	r0, #1
1000073c:	2100      	movs	r1, #0
1000073e:	616e      	str	r6, [r5, #20]
10000740:	f001 fe54 	bl	100023ec <sleep_us>
10000744:	2001      	movs	r0, #1
10000746:	2100      	movs	r1, #0
10000748:	61ae      	str	r6, [r5, #24]
1000074a:	f001 fe4f 	bl	100023ec <sleep_us>
1000074e:	3c01      	subs	r4, #1
10000750:	d307      	bcc.n	10000762 <i2c_write_byte.isra.0+0x56>
10000752:	003b      	movs	r3, r7
10000754:	464a      	mov	r2, r9
10000756:	4123      	asrs	r3, r4
10000758:	421a      	tst	r2, r3
1000075a:	d1e6      	bne.n	1000072a <i2c_write_byte.isra.0+0x1e>
1000075c:	4643      	mov	r3, r8
1000075e:	61ab      	str	r3, [r5, #24]
10000760:	e7e5      	b.n	1000072e <i2c_write_byte.isra.0+0x22>
10000762:	24d0      	movs	r4, #208	@ 0xd0
10000764:	2580      	movs	r5, #128	@ 0x80
10000766:	2380      	movs	r3, #128	@ 0x80
10000768:	0624      	lsls	r4, r4, #24
1000076a:	05ad      	lsls	r5, r5, #22
1000076c:	62a3      	str	r3, [r4, #40]	@ 0x28
1000076e:	2001      	movs	r0, #1
10000770:	6165      	str	r5, [r4, #20]
10000772:	2100      	movs	r1, #0
10000774:	f001 fe3a 	bl	100023ec <sleep_us>
10000778:	6863      	ldr	r3, [r4, #4]
1000077a:	2001      	movs	r0, #1
1000077c:	61a5      	str	r5, [r4, #24]
1000077e:	2100      	movs	r1, #0
10000780:	f001 fe34 	bl	100023ec <sleep_us>
10000784:	bcc0      	pop	{r6, r7}
10000786:	46b9      	mov	r9, r7
10000788:	46b0      	mov	r8, r6
1000078a:	bdf8      	pop	{r3, r4, r5, r6, r7, pc}

1000078c <oled_init>:
1000078c:	b570      	push	{r4, r5, r6, lr}
1000078e:	24d0      	movs	r4, #208	@ 0xd0
10000790:	2680      	movs	r6, #128	@ 0x80
10000792:	2580      	movs	r5, #128	@ 0x80
10000794:	201d      	movs	r0, #29
10000796:	0624      	lsls	r4, r4, #24
10000798:	05b6      	lsls	r6, r6, #22
1000079a:	f000 ff73 	bl	10001684 <gpio_init>
1000079e:	2007      	movs	r0, #7
100007a0:	f000 ff70 	bl	10001684 <gpio_init>
100007a4:	6266      	str	r6, [r4, #36]	@ 0x24
100007a6:	2064      	movs	r0, #100	@ 0x64
100007a8:	6265      	str	r5, [r4, #36]	@ 0x24
100007aa:	6166      	str	r6, [r4, #20]
100007ac:	6165      	str	r5, [r4, #20]
100007ae:	f001 fe31 	bl	10002414 <sleep_ms>
100007b2:	6265      	str	r5, [r4, #36]	@ 0x24
100007b4:	2001      	movs	r0, #1
100007b6:	6165      	str	r5, [r4, #20]
100007b8:	2100      	movs	r1, #0
100007ba:	6166      	str	r6, [r4, #20]
100007bc:	f001 fe16 	bl	100023ec <sleep_us>
100007c0:	2001      	movs	r0, #1
100007c2:	2100      	movs	r1, #0
100007c4:	61a5      	str	r5, [r4, #24]
100007c6:	f001 fe11 	bl	100023ec <sleep_us>
100007ca:	2100      	movs	r1, #0
100007cc:	2001      	movs	r0, #1
100007ce:	61a6      	str	r6, [r4, #24]
100007d0:	f001 fe0c 	bl	100023ec <sleep_us>
100007d4:	2078      	movs	r0, #120	@ 0x78
100007d6:	f7ff ff99 	bl	1000070c <i2c_write_byte.isra.0>
100007da:	2000      	movs	r0, #0
100007dc:	f7ff ff96 	bl	1000070c <i2c_write_byte.isra.0>
100007e0:	20ae      	movs	r0, #174	@ 0xae
100007e2:	f7ff ff93 	bl	1000070c <i2c_write_byte.isra.0>
100007e6:	6265      	str	r5, [r4, #36]	@ 0x24
100007e8:	2001      	movs	r0, #1
100007ea:	61a5      	str	r5, [r4, #24]
100007ec:	2100      	movs	r1, #0
100007ee:	6166      	str	r6, [r4, #20]
100007f0:	f001 fdfc 	bl	100023ec <sleep_us>
100007f4:	2001      	movs	r0, #1
100007f6:	2100      	movs	r1, #0
100007f8:	6165      	str	r5, [r4, #20]
100007fa:	f001 fdf7 	bl	100023ec <sleep_us>
100007fe:	6265      	str	r5, [r4, #36]	@ 0x24
10000800:	2001      	movs	r0, #1
10000802:	6165      	str	r5, [r4, #20]
10000804:	2100      	movs	r1, #0
10000806:	6166      	str	r6, [r4, #20]
10000808:	f001 fdf0 	bl	100023ec <sleep_us>
1000080c:	2001      	movs	r0, #1
1000080e:	2100      	movs	r1, #0
10000810:	61a5      	str	r5, [r4, #24]
10000812:	f001 fdeb 	bl	100023ec <sleep_us>
10000816:	2100      	movs	r1, #0
10000818:	2001      	movs	r0, #1
1000081a:	61a6      	str	r6, [r4, #24]
1000081c:	f001 fde6 	bl	100023ec <sleep_us>
10000820:	2078      	movs	r0, #120	@ 0x78
10000822:	f7ff ff73 	bl	1000070c <i2c_write_byte.isra.0>
10000826:	2000      	movs	r0, #0
10000828:	f7ff ff70 	bl	1000070c <i2c_write_byte.isra.0>
1000082c:	20d5      	movs	r0, #213	@ 0xd5
1000082e:	f7ff ff6d 	bl	1000070c <i2c_write_byte.isra.0>
10000832:	6265      	str	r5, [r4, #36]	@ 0x24
10000834:	2001      	movs	r0, #1
10000836:	61a5      	str	r5, [r4, #24]
10000838:	2100      	movs	r1, #0
1000083a:	6166      	str	r6, [r4, #20]
1000083c:	f001 fdd6 	bl	100023ec <sleep_us>
10000840:	2001      	movs	r0, #1
10000842:	2100      	movs	r1, #0
10000844:	6165      	str	r5, [r4, #20]
10000846:	f001 fdd1 	bl	100023ec <sleep_us>
1000084a:	6265      	str	r5, [r4, #36]	@ 0x24
1000084c:	2001      	movs	r0, #1
1000084e:	6165      	str	r5, [r4, #20]
10000850:	2100      	movs	r1, #0
10000852:	6166      	str	r6, [r4, #20]
10000854:	f001 fdca 	bl	100023ec <sleep_us>
10000858:	2001      	movs	r0, #1
1000085a:	2100      	movs	r1, #0
1000085c:	61a5      	str	r5, [r4, #24]
1000085e:	f001 fdc5 	bl	100023ec <sleep_us>
10000862:	2100      	movs	r1, #0
10000864:	2001      	movs	r0, #1
10000866:	61a6      	str	r6, [r4, #24]
10000868:	f001 fdc0 	bl	100023ec <sleep_us>
1000086c:	2078      	movs	r0, #120	@ 0x78
1000086e:	f7ff ff4d 	bl	1000070c <i2c_write_byte.isra.0>
10000872:	2000      	movs	r0, #0
10000874:	f7ff ff4a 	bl	1000070c <i2c_write_byte.isra.0>
10000878:	2080      	movs	r0, #128	@ 0x80
1000087a:	f7ff ff47 	bl	1000070c <i2c_write_byte.isra.0>
1000087e:	6265      	str	r5, [r4, #36]	@ 0x24
10000880:	2001      	movs	r0, #1
10000882:	61a5      	str	r5, [r4, #24]
10000884:	2100      	movs	r1, #0
10000886:	6166      	str	r6, [r4, #20]
10000888:	f001 fdb0 	bl	100023ec <sleep_us>
1000088c:	2001      	movs	r0, #1
1000088e:	2100      	movs	r1, #0
10000890:	6165      	str	r5, [r4, #20]
10000892:	f001 fdab 	bl	100023ec <sleep_us>
10000896:	6265      	str	r5, [r4, #36]	@ 0x24
10000898:	2001      	movs	r0, #1
1000089a:	6165      	str	r5, [r4, #20]
1000089c:	2100      	movs	r1, #0
1000089e:	6166      	str	r6, [r4, #20]
100008a0:	f001 fda4 	bl	100023ec <sleep_us>
100008a4:	2001      	movs	r0, #1
100008a6:	2100      	movs	r1, #0
100008a8:	61a5      	str	r5, [r4, #24]
100008aa:	f001 fd9f 	bl	100023ec <sleep_us>
100008ae:	2100      	movs	r1, #0
100008b0:	2001      	movs	r0, #1
100008b2:	61a6      	str	r6, [r4, #24]
100008b4:	f001 fd9a 	bl	100023ec <sleep_us>
100008b8:	2078      	movs	r0, #120	@ 0x78
100008ba:	f7ff ff27 	bl	1000070c <i2c_write_byte.isra.0>
100008be:	2000      	movs	r0, #0
100008c0:	f7ff ff24 	bl	1000070c <i2c_write_byte.isra.0>
100008c4:	20a8      	movs	r0, #168	@ 0xa8
100008c6:	f7ff ff21 	bl	1000070c <i2c_write_byte.isra.0>
100008ca:	6265      	str	r5, [r4, #36]	@ 0x24
100008cc:	2001      	movs	r0, #1
100008ce:	61a5      	str	r5, [r4, #24]
100008d0:	2100      	movs	r1, #0
100008d2:	6166      	str	r6, [r4, #20]
100008d4:	f001 fd8a 	bl	100023ec <sleep_us>
100008d8:	2001      	movs	r0, #1
100008da:	2100      	movs	r1, #0
100008dc:	6165      	str	r5, [r4, #20]
100008de:	f001 fd85 	bl	100023ec <sleep_us>
100008e2:	6265      	str	r5, [r4, #36]	@ 0x24
100008e4:	2001      	movs	r0, #1
100008e6:	6165      	str	r5, [r4, #20]
100008e8:	2100      	movs	r1, #0
100008ea:	6166      	str	r6, [r4, #20]
100008ec:	f001 fd7e 	bl	100023ec <sleep_us>
100008f0:	2001      	movs	r0, #1
100008f2:	2100      	movs	r1, #0
100008f4:	61a5      	str	r5, [r4, #24]
100008f6:	f001 fd79 	bl	100023ec <sleep_us>
100008fa:	2100      	movs	r1, #0
100008fc:	2001      	movs	r0, #1
100008fe:	61a6      	str	r6, [r4, #24]
10000900:	f001 fd74 	bl	100023ec <sleep_us>
10000904:	2078      	movs	r0, #120	@ 0x78
10000906:	f7ff ff01 	bl	1000070c <i2c_write_byte.isra.0>
1000090a:	2000      	movs	r0, #0
1000090c:	f7ff fefe 	bl	1000070c <i2c_write_byte.isra.0>
10000910:	201f      	movs	r0, #31
10000912:	f7ff fefb 	bl	1000070c <i2c_write_byte.isra.0>
10000916:	6265      	str	r5, [r4, #36]	@ 0x24
10000918:	2001      	movs	r0, #1
1000091a:	61a5      	str	r5, [r4, #24]
1000091c:	2100      	movs	r1, #0
1000091e:	6166      	str	r6, [r4, #20]
10000920:	f001 fd64 	bl	100023ec <sleep_us>
10000924:	2001      	movs	r0, #1
10000926:	2100      	movs	r1, #0
10000928:	6165      	str	r5, [r4, #20]
1000092a:	f001 fd5f 	bl	100023ec <sleep_us>
1000092e:	6265      	str	r5, [r4, #36]	@ 0x24
10000930:	2001      	movs	r0, #1
10000932:	6165      	str	r5, [r4, #20]
10000934:	2100      	movs	r1, #0
10000936:	6166      	str	r6, [r4, #20]
10000938:	f001 fd58 	bl	100023ec <sleep_us>
1000093c:	2001      	movs	r0, #1
1000093e:	2100      	movs	r1, #0
10000940:	61a5      	str	r5, [r4, #24]
10000942:	f001 fd53 	bl	100023ec <sleep_us>
10000946:	2100      	movs	r1, #0
10000948:	2001      	movs	r0, #1
1000094a:	61a6      	str	r6, [r4, #24]
1000094c:	f001 fd4e 	bl	100023ec <sleep_us>
10000950:	2078      	movs	r0, #120	@ 0x78
10000952:	f7ff fedb 	bl	1000070c <i2c_write_byte.isra.0>
10000956:	2000      	movs	r0, #0
10000958:	f7ff fed8 	bl	1000070c <i2c_write_byte.isra.0>
1000095c:	20d3      	movs	r0, #211	@ 0xd3
1000095e:	f7ff fed5 	bl	1000070c <i2c_write_byte.isra.0>
10000962:	6265      	str	r5, [r4, #36]	@ 0x24
10000964:	2001      	movs	r0, #1
10000966:	61a5      	str	r5, [r4, #24]
10000968:	2100      	movs	r1, #0
1000096a:	6166      	str	r6, [r4, #20]
1000096c:	f001 fd3e 	bl	100023ec <sleep_us>
10000970:	2001      	movs	r0, #1
10000972:	2100      	movs	r1, #0
10000974:	6165      	str	r5, [r4, #20]
10000976:	f001 fd39 	bl	100023ec <sleep_us>
1000097a:	6265      	str	r5, [r4, #36]	@ 0x24
1000097c:	2001      	movs	r0, #1
1000097e:	6165      	str	r5, [r4, #20]
10000980:	2100      	movs	r1, #0
10000982:	6166      	str	r6, [r4, #20]
10000984:	f001 fd32 	bl	100023ec <sleep_us>
10000988:	2001      	movs	r0, #1
1000098a:	2100      	movs	r1, #0
1000098c:	61a5      	str	r5, [r4, #24]
1000098e:	f001 fd2d 	bl	100023ec <sleep_us>
10000992:	2100      	movs	r1, #0
10000994:	2001      	movs	r0, #1
10000996:	61a6      	str	r6, [r4, #24]
10000998:	f001 fd28 	bl	100023ec <sleep_us>
1000099c:	2078      	movs	r0, #120	@ 0x78
1000099e:	f7ff feb5 	bl	1000070c <i2c_write_byte.isra.0>
100009a2:	2000      	movs	r0, #0
100009a4:	f7ff feb2 	bl	1000070c <i2c_write_byte.isra.0>
100009a8:	2000      	movs	r0, #0
100009aa:	f7ff feaf 	bl	1000070c <i2c_write_byte.isra.0>
100009ae:	6265      	str	r5, [r4, #36]	@ 0x24
100009b0:	2001      	movs	r0, #1
100009b2:	61a5      	str	r5, [r4, #24]
100009b4:	2100      	movs	r1, #0
100009b6:	6166      	str	r6, [r4, #20]
100009b8:	f001 fd18 	bl	100023ec <sleep_us>
100009bc:	2001      	movs	r0, #1
100009be:	2100      	movs	r1, #0
100009c0:	6165      	str	r5, [r4, #20]
100009c2:	f001 fd13 	bl	100023ec <sleep_us>
100009c6:	6265      	str	r5, [r4, #36]	@ 0x24
100009c8:	2001      	movs	r0, #1
100009ca:	6165      	str	r5, [r4, #20]
100009cc:	2100      	movs	r1, #0
100009ce:	6166      	str	r6, [r4, #20]
100009d0:	f001 fd0c 	bl	100023ec <sleep_us>
100009d4:	2001      	movs	r0, #1
100009d6:	2100      	movs	r1, #0
100009d8:	61a5      	str	r5, [r4, #24]
100009da:	f001 fd07 	bl	100023ec <sleep_us>
100009de:	2100      	movs	r1, #0
100009e0:	2001      	movs	r0, #1
100009e2:	61a6      	str	r6, [r4, #24]
100009e4:	f001 fd02 	bl	100023ec <sleep_us>
100009e8:	2078      	movs	r0, #120	@ 0x78
100009ea:	f7ff fe8f 	bl	1000070c <i2c_write_byte.isra.0>
100009ee:	2000      	movs	r0, #0
100009f0:	f7ff fe8c 	bl	1000070c <i2c_write_byte.isra.0>
100009f4:	2040      	movs	r0, #64	@ 0x40
100009f6:	f7ff fe89 	bl	1000070c <i2c_write_byte.isra.0>
100009fa:	6265      	str	r5, [r4, #36]	@ 0x24
100009fc:	2001      	movs	r0, #1
100009fe:	61a5      	str	r5, [r4, #24]
10000a00:	2100      	movs	r1, #0
10000a02:	6166      	str	r6, [r4, #20]
10000a04:	f001 fcf2 	bl	100023ec <sleep_us>
10000a08:	2001      	movs	r0, #1
10000a0a:	2100      	movs	r1, #0
10000a0c:	6165      	str	r5, [r4, #20]
10000a0e:	f001 fced 	bl	100023ec <sleep_us>
10000a12:	6265      	str	r5, [r4, #36]	@ 0x24
10000a14:	2001      	movs	r0, #1
10000a16:	6165      	str	r5, [r4, #20]
10000a18:	2100      	movs	r1, #0
10000a1a:	6166      	str	r6, [r4, #20]
10000a1c:	f001 fce6 	bl	100023ec <sleep_us>
10000a20:	2001      	movs	r0, #1
10000a22:	2100      	movs	r1, #0
10000a24:	61a5      	str	r5, [r4, #24]
10000a26:	f001 fce1 	bl	100023ec <sleep_us>
10000a2a:	2100      	movs	r1, #0
10000a2c:	2001      	movs	r0, #1
10000a2e:	61a6      	str	r6, [r4, #24]
10000a30:	f001 fcdc 	bl	100023ec <sleep_us>
10000a34:	2078      	movs	r0, #120	@ 0x78
10000a36:	f7ff fe69 	bl	1000070c <i2c_write_byte.isra.0>
10000a3a:	2000      	movs	r0, #0
10000a3c:	f7ff fe66 	bl	1000070c <i2c_write_byte.isra.0>
10000a40:	208d      	movs	r0, #141	@ 0x8d
10000a42:	f7ff fe63 	bl	1000070c <i2c_write_byte.isra.0>
10000a46:	6265      	str	r5, [r4, #36]	@ 0x24
10000a48:	2001      	movs	r0, #1
10000a4a:	61a5      	str	r5, [r4, #24]
10000a4c:	2100      	movs	r1, #0
10000a4e:	6166      	str	r6, [r4, #20]
10000a50:	f001 fccc 	bl	100023ec <sleep_us>
10000a54:	2001      	movs	r0, #1
10000a56:	2100      	movs	r1, #0
10000a58:	6165      	str	r5, [r4, #20]
10000a5a:	f001 fcc7 	bl	100023ec <sleep_us>
10000a5e:	6265      	str	r5, [r4, #36]	@ 0x24
10000a60:	2001      	movs	r0, #1
10000a62:	6165      	str	r5, [r4, #20]
10000a64:	2100      	movs	r1, #0
10000a66:	6166      	str	r6, [r4, #20]
10000a68:	f001 fcc0 	bl	100023ec <sleep_us>
10000a6c:	2001      	movs	r0, #1
10000a6e:	2100      	movs	r1, #0
10000a70:	61a5      	str	r5, [r4, #24]
10000a72:	f001 fcbb 	bl	100023ec <sleep_us>
10000a76:	2100      	movs	r1, #0
10000a78:	2001      	movs	r0, #1
10000a7a:	61a6      	str	r6, [r4, #24]
10000a7c:	f001 fcb6 	bl	100023ec <sleep_us>
10000a80:	2078      	movs	r0, #120	@ 0x78
10000a82:	f7ff fe43 	bl	1000070c <i2c_write_byte.isra.0>
10000a86:	2000      	movs	r0, #0
10000a88:	f7ff fe40 	bl	1000070c <i2c_write_byte.isra.0>
10000a8c:	2014      	movs	r0, #20
10000a8e:	f7ff fe3d 	bl	1000070c <i2c_write_byte.isra.0>
10000a92:	6265      	str	r5, [r4, #36]	@ 0x24
10000a94:	2001      	movs	r0, #1
10000a96:	61a5      	str	r5, [r4, #24]
10000a98:	2100      	movs	r1, #0
10000a9a:	6166      	str	r6, [r4, #20]
10000a9c:	f001 fca6 	bl	100023ec <sleep_us>
10000aa0:	2001      	movs	r0, #1
10000aa2:	2100      	movs	r1, #0
10000aa4:	6165      	str	r5, [r4, #20]
10000aa6:	f001 fca1 	bl	100023ec <sleep_us>
10000aaa:	6265      	str	r5, [r4, #36]	@ 0x24
10000aac:	2001      	movs	r0, #1
10000aae:	6165      	str	r5, [r4, #20]
10000ab0:	2100      	movs	r1, #0
10000ab2:	6166      	str	r6, [r4, #20]
10000ab4:	f001 fc9a 	bl	100023ec <sleep_us>
10000ab8:	2001      	movs	r0, #1
10000aba:	2100      	movs	r1, #0
10000abc:	61a5      	str	r5, [r4, #24]
10000abe:	f001 fc95 	bl	100023ec <sleep_us>
10000ac2:	2100      	movs	r1, #0
10000ac4:	2001      	movs	r0, #1
10000ac6:	61a6      	str	r6, [r4, #24]
10000ac8:	f001 fc90 	bl	100023ec <sleep_us>
10000acc:	2078      	movs	r0, #120	@ 0x78
10000ace:	f7ff fe1d 	bl	1000070c <i2c_write_byte.isra.0>
10000ad2:	2000      	movs	r0, #0
10000ad4:	f7ff fe1a 	bl	1000070c <i2c_write_byte.isra.0>
10000ad8:	2020      	movs	r0, #32
10000ada:	f7ff fe17 	bl	1000070c <i2c_write_byte.isra.0>
10000ade:	6265      	str	r5, [r4, #36]	@ 0x24
10000ae0:	2001      	movs	r0, #1
10000ae2:	61a5      	str	r5, [r4, #24]
10000ae4:	2100      	movs	r1, #0
10000ae6:	6166      	str	r6, [r4, #20]
10000ae8:	f001 fc80 	bl	100023ec <sleep_us>
10000aec:	2001      	movs	r0, #1
10000aee:	2100      	movs	r1, #0
10000af0:	6165      	str	r5, [r4, #20]
10000af2:	f001 fc7b 	bl	100023ec <sleep_us>
10000af6:	6265      	str	r5, [r4, #36]	@ 0x24
10000af8:	2001      	movs	r0, #1
10000afa:	6165      	str	r5, [r4, #20]
10000afc:	2100      	movs	r1, #0
10000afe:	6166      	str	r6, [r4, #20]
10000b00:	f001 fc74 	bl	100023ec <sleep_us>
10000b04:	2001      	movs	r0, #1
10000b06:	2100      	movs	r1, #0
10000b08:	61a5      	str	r5, [r4, #24]
10000b0a:	f001 fc6f 	bl	100023ec <sleep_us>
10000b0e:	2100      	movs	r1, #0
10000b10:	2001      	movs	r0, #1
10000b12:	61a6      	str	r6, [r4, #24]
10000b14:	f001 fc6a 	bl	100023ec <sleep_us>
10000b18:	2078      	movs	r0, #120	@ 0x78
10000b1a:	f7ff fdf7 	bl	1000070c <i2c_write_byte.isra.0>
10000b1e:	2000      	movs	r0, #0
10000b20:	f7ff fdf4 	bl	1000070c <i2c_write_byte.isra.0>
10000b24:	2000      	movs	r0, #0
10000b26:	f7ff fdf1 	bl	1000070c <i2c_write_byte.isra.0>
10000b2a:	6265      	str	r5, [r4, #36]	@ 0x24
10000b2c:	2001      	movs	r0, #1
10000b2e:	61a5      	str	r5, [r4, #24]
10000b30:	2100      	movs	r1, #0
10000b32:	6166      	str	r6, [r4, #20]
10000b34:	f001 fc5a 	bl	100023ec <sleep_us>
10000b38:	2001      	movs	r0, #1
10000b3a:	2100      	movs	r1, #0
10000b3c:	6165      	str	r5, [r4, #20]
10000b3e:	f001 fc55 	bl	100023ec <sleep_us>
10000b42:	6265      	str	r5, [r4, #36]	@ 0x24
10000b44:	2001      	movs	r0, #1
10000b46:	6165      	str	r5, [r4, #20]
10000b48:	2100      	movs	r1, #0
10000b4a:	6166      	str	r6, [r4, #20]
10000b4c:	f001 fc4e 	bl	100023ec <sleep_us>
10000b50:	2001      	movs	r0, #1
10000b52:	2100      	movs	r1, #0
10000b54:	61a5      	str	r5, [r4, #24]
10000b56:	f001 fc49 	bl	100023ec <sleep_us>
10000b5a:	2100      	movs	r1, #0
10000b5c:	2001      	movs	r0, #1
10000b5e:	61a6      	str	r6, [r4, #24]
10000b60:	f001 fc44 	bl	100023ec <sleep_us>
10000b64:	2078      	movs	r0, #120	@ 0x78
10000b66:	f7ff fdd1 	bl	1000070c <i2c_write_byte.isra.0>
10000b6a:	2000      	movs	r0, #0
10000b6c:	f7ff fdce 	bl	1000070c <i2c_write_byte.isra.0>
10000b70:	20a1      	movs	r0, #161	@ 0xa1
10000b72:	f7ff fdcb 	bl	1000070c <i2c_write_byte.isra.0>
10000b76:	6265      	str	r5, [r4, #36]	@ 0x24
10000b78:	2001      	movs	r0, #1
10000b7a:	61a5      	str	r5, [r4, #24]
10000b7c:	2100      	movs	r1, #0
10000b7e:	6166      	str	r6, [r4, #20]
10000b80:	f001 fc34 	bl	100023ec <sleep_us>
10000b84:	2001      	movs	r0, #1
10000b86:	2100      	movs	r1, #0
10000b88:	6165      	str	r5, [r4, #20]
10000b8a:	f001 fc2f 	bl	100023ec <sleep_us>
10000b8e:	6265      	str	r5, [r4, #36]	@ 0x24
10000b90:	2001      	movs	r0, #1
10000b92:	6165      	str	r5, [r4, #20]
10000b94:	2100      	movs	r1, #0
10000b96:	6166      	str	r6, [r4, #20]
10000b98:	f001 fc28 	bl	100023ec <sleep_us>
10000b9c:	2001      	movs	r0, #1
10000b9e:	2100      	movs	r1, #0
10000ba0:	61a5      	str	r5, [r4, #24]
10000ba2:	f001 fc23 	bl	100023ec <sleep_us>
10000ba6:	2100      	movs	r1, #0
10000ba8:	2001      	movs	r0, #1
10000baa:	61a6      	str	r6, [r4, #24]
10000bac:	f001 fc1e 	bl	100023ec <sleep_us>
10000bb0:	2078      	movs	r0, #120	@ 0x78
10000bb2:	f7ff fdab 	bl	1000070c <i2c_write_byte.isra.0>
10000bb6:	2000      	movs	r0, #0
10000bb8:	f7ff fda8 	bl	1000070c <i2c_write_byte.isra.0>
10000bbc:	20c8      	movs	r0, #200	@ 0xc8
10000bbe:	f7ff fda5 	bl	1000070c <i2c_write_byte.isra.0>
10000bc2:	6265      	str	r5, [r4, #36]	@ 0x24
10000bc4:	2001      	movs	r0, #1
10000bc6:	61a5      	str	r5, [r4, #24]
10000bc8:	2100      	movs	r1, #0
10000bca:	6166      	str	r6, [r4, #20]
10000bcc:	f001 fc0e 	bl	100023ec <sleep_us>
10000bd0:	2001      	movs	r0, #1
10000bd2:	2100      	movs	r1, #0
10000bd4:	6165      	str	r5, [r4, #20]
10000bd6:	f001 fc09 	bl	100023ec <sleep_us>
10000bda:	6265      	str	r5, [r4, #36]	@ 0x24
10000bdc:	2001      	movs	r0, #1
10000bde:	6165      	str	r5, [r4, #20]
10000be0:	2100      	movs	r1, #0
10000be2:	6166      	str	r6, [r4, #20]
10000be4:	f001 fc02 	bl	100023ec <sleep_us>
10000be8:	2001      	movs	r0, #1
10000bea:	2100      	movs	r1, #0
10000bec:	61a5      	str	r5, [r4, #24]
10000bee:	f001 fbfd 	bl	100023ec <sleep_us>
10000bf2:	2100      	movs	r1, #0
10000bf4:	2001      	movs	r0, #1
10000bf6:	61a6      	str	r6, [r4, #24]
10000bf8:	f001 fbf8 	bl	100023ec <sleep_us>
10000bfc:	2078      	movs	r0, #120	@ 0x78
10000bfe:	f7ff fd85 	bl	1000070c <i2c_write_byte.isra.0>
10000c02:	2000      	movs	r0, #0
10000c04:	f7ff fd82 	bl	1000070c <i2c_write_byte.isra.0>
10000c08:	20da      	movs	r0, #218	@ 0xda
10000c0a:	f7ff fd7f 	bl	1000070c <i2c_write_byte.isra.0>
10000c0e:	6265      	str	r5, [r4, #36]	@ 0x24
10000c10:	2001      	movs	r0, #1
10000c12:	61a5      	str	r5, [r4, #24]
10000c14:	2100      	movs	r1, #0
10000c16:	6166      	str	r6, [r4, #20]
10000c18:	f001 fbe8 	bl	100023ec <sleep_us>
10000c1c:	2001      	movs	r0, #1
10000c1e:	2100      	movs	r1, #0
10000c20:	6165      	str	r5, [r4, #20]
10000c22:	f001 fbe3 	bl	100023ec <sleep_us>
10000c26:	6265      	str	r5, [r4, #36]	@ 0x24
10000c28:	2001      	movs	r0, #1
10000c2a:	6165      	str	r5, [r4, #20]
10000c2c:	2100      	movs	r1, #0
10000c2e:	6166      	str	r6, [r4, #20]
10000c30:	f001 fbdc 	bl	100023ec <sleep_us>
10000c34:	2001      	movs	r0, #1
10000c36:	2100      	movs	r1, #0
10000c38:	61a5      	str	r5, [r4, #24]
10000c3a:	f001 fbd7 	bl	100023ec <sleep_us>
10000c3e:	2100      	movs	r1, #0
10000c40:	2001      	movs	r0, #1
10000c42:	61a6      	str	r6, [r4, #24]
10000c44:	f001 fbd2 	bl	100023ec <sleep_us>
10000c48:	2078      	movs	r0, #120	@ 0x78
10000c4a:	f7ff fd5f 	bl	1000070c <i2c_write_byte.isra.0>
10000c4e:	2000      	movs	r0, #0
10000c50:	f7ff fd5c 	bl	1000070c <i2c_write_byte.isra.0>
10000c54:	2002      	movs	r0, #2
10000c56:	f7ff fd59 	bl	1000070c <i2c_write_byte.isra.0>
10000c5a:	6265      	str	r5, [r4, #36]	@ 0x24
10000c5c:	2001      	movs	r0, #1
10000c5e:	61a5      	str	r5, [r4, #24]
10000c60:	2100      	movs	r1, #0
10000c62:	6166      	str	r6, [r4, #20]
10000c64:	f001 fbc2 	bl	100023ec <sleep_us>
10000c68:	2001      	movs	r0, #1
10000c6a:	2100      	movs	r1, #0
10000c6c:	6165      	str	r5, [r4, #20]
10000c6e:	f001 fbbd 	bl	100023ec <sleep_us>
10000c72:	6265      	str	r5, [r4, #36]	@ 0x24
10000c74:	2001      	movs	r0, #1
10000c76:	6165      	str	r5, [r4, #20]
10000c78:	2100      	movs	r1, #0
10000c7a:	6166      	str	r6, [r4, #20]
10000c7c:	f001 fbb6 	bl	100023ec <sleep_us>
10000c80:	2001      	movs	r0, #1
10000c82:	2100      	movs	r1, #0
10000c84:	61a5      	str	r5, [r4, #24]
10000c86:	f001 fbb1 	bl	100023ec <sleep_us>
10000c8a:	2100      	movs	r1, #0
10000c8c:	2001      	movs	r0, #1
10000c8e:	61a6      	str	r6, [r4, #24]
10000c90:	f001 fbac 	bl	100023ec <sleep_us>
10000c94:	2078      	movs	r0, #120	@ 0x78
10000c96:	f7ff fd39 	bl	1000070c <i2c_write_byte.isra.0>
10000c9a:	2000      	movs	r0, #0
10000c9c:	f7ff fd36 	bl	1000070c <i2c_write_byte.isra.0>
10000ca0:	2081      	movs	r0, #129	@ 0x81
10000ca2:	f7ff fd33 	bl	1000070c <i2c_write_byte.isra.0>
10000ca6:	6265      	str	r5, [r4, #36]	@ 0x24
10000ca8:	2001      	movs	r0, #1
10000caa:	61a5      	str	r5, [r4, #24]
10000cac:	2100      	movs	r1, #0
10000cae:	6166      	str	r6, [r4, #20]
10000cb0:	f001 fb9c 	bl	100023ec <sleep_us>
10000cb4:	2001      	movs	r0, #1
10000cb6:	2100      	movs	r1, #0
10000cb8:	6165      	str	r5, [r4, #20]
10000cba:	f001 fb97 	bl	100023ec <sleep_us>
10000cbe:	6265      	str	r5, [r4, #36]	@ 0x24
10000cc0:	2001      	movs	r0, #1
10000cc2:	6165      	str	r5, [r4, #20]
10000cc4:	2100      	movs	r1, #0
10000cc6:	6166      	str	r6, [r4, #20]
10000cc8:	f001 fb90 	bl	100023ec <sleep_us>
10000ccc:	2001      	movs	r0, #1
10000cce:	2100      	movs	r1, #0
10000cd0:	61a5      	str	r5, [r4, #24]
10000cd2:	f001 fb8b 	bl	100023ec <sleep_us>
10000cd6:	2100      	movs	r1, #0
10000cd8:	2001      	movs	r0, #1
10000cda:	61a6      	str	r6, [r4, #24]
10000cdc:	f001 fb86 	bl	100023ec <sleep_us>
10000ce0:	2078      	movs	r0, #120	@ 0x78
10000ce2:	f7ff fd13 	bl	1000070c <i2c_write_byte.isra.0>
10000ce6:	2000      	movs	r0, #0
10000ce8:	f7ff fd10 	bl	1000070c <i2c_write_byte.isra.0>
10000cec:	208f      	movs	r0, #143	@ 0x8f
10000cee:	f7ff fd0d 	bl	1000070c <i2c_write_byte.isra.0>
10000cf2:	6265      	str	r5, [r4, #36]	@ 0x24
10000cf4:	2001      	movs	r0, #1
10000cf6:	61a5      	str	r5, [r4, #24]
10000cf8:	2100      	movs	r1, #0
10000cfa:	6166      	str	r6, [r4, #20]
10000cfc:	f001 fb76 	bl	100023ec <sleep_us>
10000d00:	2001      	movs	r0, #1
10000d02:	2100      	movs	r1, #0
10000d04:	6165      	str	r5, [r4, #20]
10000d06:	f001 fb71 	bl	100023ec <sleep_us>
10000d0a:	6265      	str	r5, [r4, #36]	@ 0x24
10000d0c:	2001      	movs	r0, #1
10000d0e:	6165      	str	r5, [r4, #20]
10000d10:	2100      	movs	r1, #0
10000d12:	6166      	str	r6, [r4, #20]
10000d14:	f001 fb6a 	bl	100023ec <sleep_us>
10000d18:	2001      	movs	r0, #1
10000d1a:	2100      	movs	r1, #0
10000d1c:	61a5      	str	r5, [r4, #24]
10000d1e:	f001 fb65 	bl	100023ec <sleep_us>
10000d22:	2100      	movs	r1, #0
10000d24:	2001      	movs	r0, #1
10000d26:	61a6      	str	r6, [r4, #24]
10000d28:	f001 fb60 	bl	100023ec <sleep_us>
10000d2c:	2078      	movs	r0, #120	@ 0x78
10000d2e:	f7ff fced 	bl	1000070c <i2c_write_byte.isra.0>
10000d32:	2000      	movs	r0, #0
10000d34:	f7ff fcea 	bl	1000070c <i2c_write_byte.isra.0>
10000d38:	20d9      	movs	r0, #217	@ 0xd9
10000d3a:	f7ff fce7 	bl	1000070c <i2c_write_byte.isra.0>
10000d3e:	6265      	str	r5, [r4, #36]	@ 0x24
10000d40:	2001      	movs	r0, #1
10000d42:	61a5      	str	r5, [r4, #24]
10000d44:	2100      	movs	r1, #0
10000d46:	6166      	str	r6, [r4, #20]
10000d48:	f001 fb50 	bl	100023ec <sleep_us>
10000d4c:	2001      	movs	r0, #1
10000d4e:	2100      	movs	r1, #0
10000d50:	6165      	str	r5, [r4, #20]
10000d52:	f001 fb4b 	bl	100023ec <sleep_us>
10000d56:	6265      	str	r5, [r4, #36]	@ 0x24
10000d58:	2001      	movs	r0, #1
10000d5a:	6165      	str	r5, [r4, #20]
10000d5c:	2100      	movs	r1, #0
10000d5e:	6166      	str	r6, [r4, #20]
10000d60:	f001 fb44 	bl	100023ec <sleep_us>
10000d64:	2001      	movs	r0, #1
10000d66:	2100      	movs	r1, #0
10000d68:	61a5      	str	r5, [r4, #24]
10000d6a:	f001 fb3f 	bl	100023ec <sleep_us>
10000d6e:	2100      	movs	r1, #0
10000d70:	2001      	movs	r0, #1
10000d72:	61a6      	str	r6, [r4, #24]
10000d74:	f001 fb3a 	bl	100023ec <sleep_us>
10000d78:	2078      	movs	r0, #120	@ 0x78
10000d7a:	f7ff fcc7 	bl	1000070c <i2c_write_byte.isra.0>
10000d7e:	2000      	movs	r0, #0
10000d80:	f7ff fcc4 	bl	1000070c <i2c_write_byte.isra.0>
10000d84:	20f1      	movs	r0, #241	@ 0xf1
10000d86:	f7ff fcc1 	bl	1000070c <i2c_write_byte.isra.0>
10000d8a:	6265      	str	r5, [r4, #36]	@ 0x24
10000d8c:	2001      	movs	r0, #1
10000d8e:	61a5      	str	r5, [r4, #24]
10000d90:	2100      	movs	r1, #0
10000d92:	6166      	str	r6, [r4, #20]
10000d94:	f001 fb2a 	bl	100023ec <sleep_us>
10000d98:	2001      	movs	r0, #1
10000d9a:	2100      	movs	r1, #0
10000d9c:	6165      	str	r5, [r4, #20]
10000d9e:	f001 fb25 	bl	100023ec <sleep_us>
10000da2:	6265      	str	r5, [r4, #36]	@ 0x24
10000da4:	2001      	movs	r0, #1
10000da6:	6165      	str	r5, [r4, #20]
10000da8:	2100      	movs	r1, #0
10000daa:	6166      	str	r6, [r4, #20]
10000dac:	f001 fb1e 	bl	100023ec <sleep_us>
10000db0:	2001      	movs	r0, #1
10000db2:	2100      	movs	r1, #0
10000db4:	61a5      	str	r5, [r4, #24]
10000db6:	f001 fb19 	bl	100023ec <sleep_us>
10000dba:	2100      	movs	r1, #0
10000dbc:	2001      	movs	r0, #1
10000dbe:	61a6      	str	r6, [r4, #24]
10000dc0:	f001 fb14 	bl	100023ec <sleep_us>
10000dc4:	2078      	movs	r0, #120	@ 0x78
10000dc6:	f7ff fca1 	bl	1000070c <i2c_write_byte.isra.0>
10000dca:	2000      	movs	r0, #0
10000dcc:	f7ff fc9e 	bl	1000070c <i2c_write_byte.isra.0>
10000dd0:	20db      	movs	r0, #219	@ 0xdb
10000dd2:	f7ff fc9b 	bl	1000070c <i2c_write_byte.isra.0>
10000dd6:	6265      	str	r5, [r4, #36]	@ 0x24
10000dd8:	2001      	movs	r0, #1
10000dda:	61a5      	str	r5, [r4, #24]
10000ddc:	2100      	movs	r1, #0
10000dde:	6166      	str	r6, [r4, #20]
10000de0:	f001 fb04 	bl	100023ec <sleep_us>
10000de4:	2001      	movs	r0, #1
10000de6:	2100      	movs	r1, #0
10000de8:	6165      	str	r5, [r4, #20]
10000dea:	f001 faff 	bl	100023ec <sleep_us>
10000dee:	6265      	str	r5, [r4, #36]	@ 0x24
10000df0:	2001      	movs	r0, #1
10000df2:	6165      	str	r5, [r4, #20]
10000df4:	2100      	movs	r1, #0
10000df6:	6166      	str	r6, [r4, #20]
10000df8:	f001 faf8 	bl	100023ec <sleep_us>
10000dfc:	2001      	movs	r0, #1
10000dfe:	2100      	movs	r1, #0
10000e00:	61a5      	str	r5, [r4, #24]
10000e02:	f001 faf3 	bl	100023ec <sleep_us>
10000e06:	2100      	movs	r1, #0
10000e08:	2001      	movs	r0, #1
10000e0a:	61a6      	str	r6, [r4, #24]
10000e0c:	f001 faee 	bl	100023ec <sleep_us>
10000e10:	2078      	movs	r0, #120	@ 0x78
10000e12:	f7ff fc7b 	bl	1000070c <i2c_write_byte.isra.0>
10000e16:	2000      	movs	r0, #0
10000e18:	f7ff fc78 	bl	1000070c <i2c_write_byte.isra.0>
10000e1c:	2040      	movs	r0, #64	@ 0x40
10000e1e:	f7ff fc75 	bl	1000070c <i2c_write_byte.isra.0>
10000e22:	6265      	str	r5, [r4, #36]	@ 0x24
10000e24:	2001      	movs	r0, #1
10000e26:	61a5      	str	r5, [r4, #24]
10000e28:	2100      	movs	r1, #0
10000e2a:	6166      	str	r6, [r4, #20]
10000e2c:	f001 fade 	bl	100023ec <sleep_us>
10000e30:	2001      	movs	r0, #1
10000e32:	2100      	movs	r1, #0
10000e34:	6165      	str	r5, [r4, #20]
10000e36:	f001 fad9 	bl	100023ec <sleep_us>
10000e3a:	6265      	str	r5, [r4, #36]	@ 0x24
10000e3c:	2001      	movs	r0, #1
10000e3e:	6165      	str	r5, [r4, #20]
10000e40:	2100      	movs	r1, #0
10000e42:	6166      	str	r6, [r4, #20]
10000e44:	f001 fad2 	bl	100023ec <sleep_us>
10000e48:	2001      	movs	r0, #1
10000e4a:	2100      	movs	r1, #0
10000e4c:	61a5      	str	r5, [r4, #24]
10000e4e:	f001 facd 	bl	100023ec <sleep_us>
10000e52:	2100      	movs	r1, #0
10000e54:	2001      	movs	r0, #1
10000e56:	61a6      	str	r6, [r4, #24]
10000e58:	f001 fac8 	bl	100023ec <sleep_us>
10000e5c:	2078      	movs	r0, #120	@ 0x78
10000e5e:	f7ff fc55 	bl	1000070c <i2c_write_byte.isra.0>
10000e62:	2000      	movs	r0, #0
10000e64:	f7ff fc52 	bl	1000070c <i2c_write_byte.isra.0>
10000e68:	20a4      	movs	r0, #164	@ 0xa4
10000e6a:	f7ff fc4f 	bl	1000070c <i2c_write_byte.isra.0>
10000e6e:	6265      	str	r5, [r4, #36]	@ 0x24
10000e70:	2001      	movs	r0, #1
10000e72:	61a5      	str	r5, [r4, #24]
10000e74:	2100      	movs	r1, #0
10000e76:	6166      	str	r6, [r4, #20]
10000e78:	f001 fab8 	bl	100023ec <sleep_us>
10000e7c:	2001      	movs	r0, #1
10000e7e:	2100      	movs	r1, #0
10000e80:	6165      	str	r5, [r4, #20]
10000e82:	f001 fab3 	bl	100023ec <sleep_us>
10000e86:	6265      	str	r5, [r4, #36]	@ 0x24
10000e88:	2001      	movs	r0, #1
10000e8a:	6165      	str	r5, [r4, #20]
10000e8c:	2100      	movs	r1, #0
10000e8e:	6166      	str	r6, [r4, #20]
10000e90:	f001 faac 	bl	100023ec <sleep_us>
10000e94:	2001      	movs	r0, #1
10000e96:	2100      	movs	r1, #0
10000e98:	61a5      	str	r5, [r4, #24]
10000e9a:	f001 faa7 	bl	100023ec <sleep_us>
10000e9e:	2100      	movs	r1, #0
10000ea0:	2001      	movs	r0, #1
10000ea2:	61a6      	str	r6, [r4, #24]
10000ea4:	f001 faa2 	bl	100023ec <sleep_us>
10000ea8:	2078      	movs	r0, #120	@ 0x78
10000eaa:	f7ff fc2f 	bl	1000070c <i2c_write_byte.isra.0>
10000eae:	2000      	movs	r0, #0
10000eb0:	f7ff fc2c 	bl	1000070c <i2c_write_byte.isra.0>
10000eb4:	20a6      	movs	r0, #166	@ 0xa6
10000eb6:	f7ff fc29 	bl	1000070c <i2c_write_byte.isra.0>
10000eba:	6265      	str	r5, [r4, #36]	@ 0x24
10000ebc:	2001      	movs	r0, #1
10000ebe:	61a5      	str	r5, [r4, #24]
10000ec0:	2100      	movs	r1, #0
10000ec2:	6166      	str	r6, [r4, #20]
10000ec4:	f001 fa92 	bl	100023ec <sleep_us>
10000ec8:	2001      	movs	r0, #1
10000eca:	2100      	movs	r1, #0
10000ecc:	6165      	str	r5, [r4, #20]
10000ece:	f001 fa8d 	bl	100023ec <sleep_us>
10000ed2:	6265      	str	r5, [r4, #36]	@ 0x24
10000ed4:	2001      	movs	r0, #1
10000ed6:	6165      	str	r5, [r4, #20]
10000ed8:	2100      	movs	r1, #0
10000eda:	6166      	str	r6, [r4, #20]
10000edc:	f001 fa86 	bl	100023ec <sleep_us>
10000ee0:	2001      	movs	r0, #1
10000ee2:	2100      	movs	r1, #0
10000ee4:	61a5      	str	r5, [r4, #24]
10000ee6:	f001 fa81 	bl	100023ec <sleep_us>
10000eea:	2100      	movs	r1, #0
10000eec:	2001      	movs	r0, #1
10000eee:	61a6      	str	r6, [r4, #24]
10000ef0:	f001 fa7c 	bl	100023ec <sleep_us>
10000ef4:	2078      	movs	r0, #120	@ 0x78
10000ef6:	f7ff fc09 	bl	1000070c <i2c_write_byte.isra.0>
10000efa:	2000      	movs	r0, #0
10000efc:	f7ff fc06 	bl	1000070c <i2c_write_byte.isra.0>
10000f00:	20af      	movs	r0, #175	@ 0xaf
10000f02:	f7ff fc03 	bl	1000070c <i2c_write_byte.isra.0>
10000f06:	6265      	str	r5, [r4, #36]	@ 0x24
10000f08:	2001      	movs	r0, #1
10000f0a:	61a5      	str	r5, [r4, #24]
10000f0c:	2100      	movs	r1, #0
10000f0e:	6166      	str	r6, [r4, #20]
10000f10:	f001 fa6c 	bl	100023ec <sleep_us>
10000f14:	2001      	movs	r0, #1
10000f16:	2100      	movs	r1, #0
10000f18:	6165      	str	r5, [r4, #20]
10000f1a:	f001 fa67 	bl	100023ec <sleep_us>
10000f1e:	2280      	movs	r2, #128	@ 0x80
10000f20:	2100      	movs	r1, #0
10000f22:	0092      	lsls	r2, r2, #2
10000f24:	4802      	ldr	r0, [pc, #8]	@ (10000f30 <oled_init+0x7a4>)
10000f26:	f002 f92b 	bl	10003180 <__wrap_memset>
10000f2a:	2001      	movs	r0, #1
10000f2c:	bd70      	pop	{r4, r5, r6, pc}
10000f2e:	46c0      	nop			@ (mov r8, r8)
10000f30:	200014fc 	.word	0x200014fc

10000f34 <oled_update>:
10000f34:	b5f8      	push	{r3, r4, r5, r6, r7, lr}
10000f36:	4b62      	ldr	r3, [pc, #392]	@ (100010c0 <oled_update+0x18c>)
10000f38:	4657      	mov	r7, sl
10000f3a:	469a      	mov	sl, r3
10000f3c:	23b0      	movs	r3, #176	@ 0xb0
10000f3e:	4645      	mov	r5, r8
10000f40:	46de      	mov	lr, fp
10000f42:	464e      	mov	r6, r9
10000f44:	469b      	mov	fp, r3
10000f46:	24d0      	movs	r4, #208	@ 0xd0
10000f48:	3b30      	subs	r3, #48	@ 0x30
10000f4a:	b5e0      	push	{r5, r6, r7, lr}
10000f4c:	4698      	mov	r8, r3
10000f4e:	2580      	movs	r5, #128	@ 0x80
10000f50:	0624      	lsls	r4, r4, #24
10000f52:	2680      	movs	r6, #128	@ 0x80
10000f54:	4643      	mov	r3, r8
10000f56:	05b6      	lsls	r6, r6, #22
10000f58:	6263      	str	r3, [r4, #36]	@ 0x24
10000f5a:	2001      	movs	r0, #1
10000f5c:	6163      	str	r3, [r4, #20]
10000f5e:	2100      	movs	r1, #0
10000f60:	6166      	str	r6, [r4, #20]
10000f62:	f001 fa43 	bl	100023ec <sleep_us>
10000f66:	2001      	movs	r0, #1
10000f68:	2100      	movs	r1, #0
10000f6a:	61a5      	str	r5, [r4, #24]
10000f6c:	f001 fa3e 	bl	100023ec <sleep_us>
10000f70:	2100      	movs	r1, #0
10000f72:	2001      	movs	r0, #1
10000f74:	61a6      	str	r6, [r4, #24]
10000f76:	f001 fa39 	bl	100023ec <sleep_us>
10000f7a:	2078      	movs	r0, #120	@ 0x78
10000f7c:	f7ff fbc6 	bl	1000070c <i2c_write_byte.isra.0>
10000f80:	2000      	movs	r0, #0
10000f82:	f7ff fbc3 	bl	1000070c <i2c_write_byte.isra.0>
10000f86:	4658      	mov	r0, fp
10000f88:	f7ff fbc0 	bl	1000070c <i2c_write_byte.isra.0>
10000f8c:	6265      	str	r5, [r4, #36]	@ 0x24
10000f8e:	2001      	movs	r0, #1
10000f90:	2100      	movs	r1, #0
10000f92:	61a5      	str	r5, [r4, #24]
10000f94:	6166      	str	r6, [r4, #20]
10000f96:	f001 fa29 	bl	100023ec <sleep_us>
10000f9a:	2001      	movs	r0, #1
10000f9c:	2100      	movs	r1, #0
10000f9e:	6165      	str	r5, [r4, #20]
10000fa0:	f001 fa24 	bl	100023ec <sleep_us>
10000fa4:	6265      	str	r5, [r4, #36]	@ 0x24
10000fa6:	2001      	movs	r0, #1
10000fa8:	2100      	movs	r1, #0
10000faa:	6165      	str	r5, [r4, #20]
10000fac:	6166      	str	r6, [r4, #20]
10000fae:	f001 fa1d 	bl	100023ec <sleep_us>
10000fb2:	2001      	movs	r0, #1
10000fb4:	2100      	movs	r1, #0
10000fb6:	61a5      	str	r5, [r4, #24]
10000fb8:	f001 fa18 	bl	100023ec <sleep_us>
10000fbc:	2100      	movs	r1, #0
10000fbe:	2001      	movs	r0, #1
10000fc0:	61a6      	str	r6, [r4, #24]
10000fc2:	f001 fa13 	bl	100023ec <sleep_us>
10000fc6:	2078      	movs	r0, #120	@ 0x78
10000fc8:	f7ff fba0 	bl	1000070c <i2c_write_byte.isra.0>
10000fcc:	2000      	movs	r0, #0
10000fce:	f7ff fb9d 	bl	1000070c <i2c_write_byte.isra.0>
10000fd2:	2000      	movs	r0, #0
10000fd4:	f7ff fb9a 	bl	1000070c <i2c_write_byte.isra.0>
10000fd8:	6265      	str	r5, [r4, #36]	@ 0x24
10000fda:	2001      	movs	r0, #1
10000fdc:	2100      	movs	r1, #0
10000fde:	61a5      	str	r5, [r4, #24]
10000fe0:	6166      	str	r6, [r4, #20]
10000fe2:	f001 fa03 	bl	100023ec <sleep_us>
10000fe6:	2001      	movs	r0, #1
10000fe8:	2100      	movs	r1, #0
10000fea:	6165      	str	r5, [r4, #20]
10000fec:	f001 f9fe 	bl	100023ec <sleep_us>
10000ff0:	6265      	str	r5, [r4, #36]	@ 0x24
10000ff2:	2001      	movs	r0, #1
10000ff4:	2100      	movs	r1, #0
10000ff6:	6165      	str	r5, [r4, #20]
10000ff8:	6166      	str	r6, [r4, #20]
10000ffa:	f001 f9f7 	bl	100023ec <sleep_us>
10000ffe:	2001      	movs	r0, #1
10001000:	2100      	movs	r1, #0
10001002:	61a5      	str	r5, [r4, #24]
10001004:	f001 f9f2 	bl	100023ec <sleep_us>
10001008:	2100      	movs	r1, #0
1000100a:	2001      	movs	r0, #1
1000100c:	61a6      	str	r6, [r4, #24]
1000100e:	f001 f9ed 	bl	100023ec <sleep_us>
10001012:	2078      	movs	r0, #120	@ 0x78
10001014:	f7ff fb7a 	bl	1000070c <i2c_write_byte.isra.0>
10001018:	2000      	movs	r0, #0
1000101a:	f7ff fb77 	bl	1000070c <i2c_write_byte.isra.0>
1000101e:	2010      	movs	r0, #16
10001020:	f7ff fb74 	bl	1000070c <i2c_write_byte.isra.0>
10001024:	6265      	str	r5, [r4, #36]	@ 0x24
10001026:	2001      	movs	r0, #1
10001028:	2100      	movs	r1, #0
1000102a:	61a5      	str	r5, [r4, #24]
1000102c:	6166      	str	r6, [r4, #20]
1000102e:	f001 f9dd 	bl	100023ec <sleep_us>
10001032:	4656      	mov	r6, sl
10001034:	2001      	movs	r0, #1
10001036:	2100      	movs	r1, #0
10001038:	6165      	str	r5, [r4, #20]
1000103a:	f001 f9d7 	bl	100023ec <sleep_us>
1000103e:	3e80      	subs	r6, #128	@ 0x80
10001040:	7833      	ldrb	r3, [r6, #0]
10001042:	2780      	movs	r7, #128	@ 0x80
10001044:	4699      	mov	r9, r3
10001046:	4643      	mov	r3, r8
10001048:	05bf      	lsls	r7, r7, #22
1000104a:	6263      	str	r3, [r4, #36]	@ 0x24
1000104c:	2001      	movs	r0, #1
1000104e:	6163      	str	r3, [r4, #20]
10001050:	2100      	movs	r1, #0
10001052:	6167      	str	r7, [r4, #20]
10001054:	f001 f9ca 	bl	100023ec <sleep_us>
10001058:	2001      	movs	r0, #1
1000105a:	2100      	movs	r1, #0
1000105c:	61a5      	str	r5, [r4, #24]
1000105e:	f001 f9c5 	bl	100023ec <sleep_us>
10001062:	2100      	movs	r1, #0
10001064:	2001      	movs	r0, #1
10001066:	61a7      	str	r7, [r4, #24]
10001068:	f001 f9c0 	bl	100023ec <sleep_us>
1000106c:	2078      	movs	r0, #120	@ 0x78
1000106e:	f7ff fb4d 	bl	1000070c <i2c_write_byte.isra.0>
10001072:	2040      	movs	r0, #64	@ 0x40
10001074:	f7ff fb4a 	bl	1000070c <i2c_write_byte.isra.0>
10001078:	4648      	mov	r0, r9
1000107a:	f7ff fb47 	bl	1000070c <i2c_write_byte.isra.0>
1000107e:	6265      	str	r5, [r4, #36]	@ 0x24
10001080:	2001      	movs	r0, #1
10001082:	2100      	movs	r1, #0
10001084:	61a5      	str	r5, [r4, #24]
10001086:	6167      	str	r7, [r4, #20]
10001088:	f001 f9b0 	bl	100023ec <sleep_us>
1000108c:	3601      	adds	r6, #1
1000108e:	2001      	movs	r0, #1
10001090:	2100      	movs	r1, #0
10001092:	6165      	str	r5, [r4, #20]
10001094:	f001 f9aa 	bl	100023ec <sleep_us>
10001098:	4556      	cmp	r6, sl
1000109a:	d1d1      	bne.n	10001040 <oled_update+0x10c>
1000109c:	465b      	mov	r3, fp
1000109e:	3301      	adds	r3, #1
100010a0:	b2db      	uxtb	r3, r3
100010a2:	469b      	mov	fp, r3
100010a4:	2380      	movs	r3, #128	@ 0x80
100010a6:	469a      	mov	sl, r3
100010a8:	465b      	mov	r3, fp
100010aa:	44b2      	add	sl, r6
100010ac:	2bb4      	cmp	r3, #180	@ 0xb4
100010ae:	d000      	beq.n	100010b2 <oled_update+0x17e>
100010b0:	e74f      	b.n	10000f52 <oled_update+0x1e>
100010b2:	bcf0      	pop	{r4, r5, r6, r7}
100010b4:	46bb      	mov	fp, r7
100010b6:	46b2      	mov	sl, r6
100010b8:	46a9      	mov	r9, r5
100010ba:	46a0      	mov	r8, r4
100010bc:	bdf8      	pop	{r3, r4, r5, r6, r7, pc}
100010be:	46c0      	nop			@ (mov r8, r8)
100010c0:	2000157c 	.word	0x2000157c

100010c4 <oled_draw_grid>:
100010c4:	b5f0      	push	{r4, r5, r6, r7, lr}
100010c6:	2280      	movs	r2, #128	@ 0x80
100010c8:	46d6      	mov	lr, sl
100010ca:	4646      	mov	r6, r8
100010cc:	464f      	mov	r7, r9
100010ce:	000c      	movs	r4, r1
100010d0:	4b39      	ldr	r3, [pc, #228]	@ (100011b8 <oled_draw_grid+0xf4>)
100010d2:	2100      	movs	r1, #0
100010d4:	4680      	mov	r8, r0
100010d6:	b5c0      	push	{r6, r7, lr}
100010d8:	0018      	movs	r0, r3
100010da:	0092      	lsls	r2, r2, #2
100010dc:	469a      	mov	sl, r3
100010de:	f002 f84f 	bl	10003180 <__wrap_memset>
100010e2:	7823      	ldrb	r3, [r4, #0]
100010e4:	2100      	movs	r1, #0
100010e6:	2b00      	cmp	r3, #0
100010e8:	d008      	beq.n	100010fc <oled_draw_grid+0x38>
100010ea:	4834      	ldr	r0, [pc, #208]	@ (100011bc <oled_draw_grid+0xf8>)
100010ec:	3b20      	subs	r3, #32
100010ee:	b2da      	uxtb	r2, r3
100010f0:	2a3f      	cmp	r2, #63	@ 0x3f
100010f2:	d949      	bls.n	10001188 <oled_draw_grid+0xc4>
100010f4:	7863      	ldrb	r3, [r4, #1]
100010f6:	3401      	adds	r4, #1
100010f8:	2b00      	cmp	r3, #0
100010fa:	d1f7      	bne.n	100010ec <oled_draw_grid+0x28>
100010fc:	232a      	movs	r3, #42	@ 0x2a
100010fe:	2500      	movs	r5, #0
10001100:	4699      	mov	r9, r3
10001102:	4e2e      	ldr	r6, [pc, #184]	@ (100011bc <oled_draw_grid+0xf8>)
10001104:	2103      	movs	r1, #3
10001106:	0028      	movs	r0, r5
10001108:	f001 fd08 	bl	10002b1c <__wrap___aeabi_idiv>
1000110c:	464c      	mov	r4, r9
1000110e:	0028      	movs	r0, r5
10001110:	434c      	muls	r4, r1
10001112:	2103      	movs	r1, #3
10001114:	f001 fd02 	bl	10002b1c <__wrap___aeabi_idiv>
10001118:	4642      	mov	r2, r8
1000111a:	00ab      	lsls	r3, r5, #2
1000111c:	58d2      	ldr	r2, [r2, r3]
1000111e:	3402      	adds	r4, #2
10001120:	7813      	ldrb	r3, [r2, #0]
10001122:	3001      	adds	r0, #1
10001124:	b2e4      	uxtb	r4, r4
10001126:	b2c0      	uxtb	r0, r0
10001128:	2b00      	cmp	r3, #0
1000112a:	d009      	beq.n	10001140 <oled_draw_grid+0x7c>
1000112c:	01c0      	lsls	r0, r0, #7
1000112e:	4450      	add	r0, sl
10001130:	3b20      	subs	r3, #32
10001132:	b2d9      	uxtb	r1, r3
10001134:	293f      	cmp	r1, #63	@ 0x3f
10001136:	d90d      	bls.n	10001154 <oled_draw_grid+0x90>
10001138:	7853      	ldrb	r3, [r2, #1]
1000113a:	3201      	adds	r2, #1
1000113c:	2b00      	cmp	r3, #0
1000113e:	d1f7      	bne.n	10001130 <oled_draw_grid+0x6c>
10001140:	3501      	adds	r5, #1
10001142:	2d09      	cmp	r5, #9
10001144:	d1de      	bne.n	10001104 <oled_draw_grid+0x40>
10001146:	f7ff fef5 	bl	10000f34 <oled_update>
1000114a:	bce0      	pop	{r5, r6, r7}
1000114c:	46ba      	mov	sl, r7
1000114e:	46b1      	mov	r9, r6
10001150:	46a8      	mov	r8, r5
10001152:	bdf0      	pop	{r4, r5, r6, r7, pc}
10001154:	0099      	lsls	r1, r3, #2
10001156:	18cb      	adds	r3, r1, r3
10001158:	5d99      	ldrb	r1, [r3, r6]
1000115a:	18f3      	adds	r3, r6, r3
1000115c:	785f      	ldrb	r7, [r3, #1]
1000115e:	5501      	strb	r1, [r0, r4]
10001160:	1901      	adds	r1, r0, r4
10001162:	704f      	strb	r7, [r1, #1]
10001164:	789f      	ldrb	r7, [r3, #2]
10001166:	3201      	adds	r2, #1
10001168:	708f      	strb	r7, [r1, #2]
1000116a:	78df      	ldrb	r7, [r3, #3]
1000116c:	791b      	ldrb	r3, [r3, #4]
1000116e:	70cf      	strb	r7, [r1, #3]
10001170:	710b      	strb	r3, [r1, #4]
10001172:	7813      	ldrb	r3, [r2, #0]
10001174:	3406      	adds	r4, #6
10001176:	b2e4      	uxtb	r4, r4
10001178:	2b00      	cmp	r3, #0
1000117a:	d0e1      	beq.n	10001140 <oled_draw_grid+0x7c>
1000117c:	2c7a      	cmp	r4, #122	@ 0x7a
1000117e:	d9d7      	bls.n	10001130 <oled_draw_grid+0x6c>
10001180:	3501      	adds	r5, #1
10001182:	2d09      	cmp	r5, #9
10001184:	d1be      	bne.n	10001104 <oled_draw_grid+0x40>
10001186:	e7de      	b.n	10001146 <oled_draw_grid+0x82>
10001188:	4655      	mov	r5, sl
1000118a:	009a      	lsls	r2, r3, #2
1000118c:	18d3      	adds	r3, r2, r3
1000118e:	5c1a      	ldrb	r2, [r3, r0]
10001190:	18c3      	adds	r3, r0, r3
10001192:	546a      	strb	r2, [r5, r1]
10001194:	186a      	adds	r2, r5, r1
10001196:	785d      	ldrb	r5, [r3, #1]
10001198:	3401      	adds	r4, #1
1000119a:	7055      	strb	r5, [r2, #1]
1000119c:	789d      	ldrb	r5, [r3, #2]
1000119e:	3106      	adds	r1, #6
100011a0:	7095      	strb	r5, [r2, #2]
100011a2:	78dd      	ldrb	r5, [r3, #3]
100011a4:	791b      	ldrb	r3, [r3, #4]
100011a6:	70d5      	strb	r5, [r2, #3]
100011a8:	7113      	strb	r3, [r2, #4]
100011aa:	7823      	ldrb	r3, [r4, #0]
100011ac:	b2c9      	uxtb	r1, r1
100011ae:	2b00      	cmp	r3, #0
100011b0:	d0a4      	beq.n	100010fc <oled_draw_grid+0x38>
100011b2:	297a      	cmp	r1, #122	@ 0x7a
100011b4:	d99a      	bls.n	100010ec <oled_draw_grid+0x28>
100011b6:	e7a1      	b.n	100010fc <oled_draw_grid+0x38>
100011b8:	200014fc 	.word	0x200014fc
100011bc:	10004e10 	.word	0x10004e10

100011c0 <usb_hid_init>:
100011c0:	b510      	push	{r4, lr}
100011c2:	2100      	movs	r1, #0
100011c4:	2000      	movs	r0, #0
100011c6:	f003 fb3d 	bl	10004844 <tusb_rhport_init>
100011ca:	bd10      	pop	{r4, pc}

100011cc <usb_hid_send_key>:
100011cc:	b530      	push	{r4, r5, lr}
100011ce:	0005      	movs	r5, r0
100011d0:	b083      	sub	sp, #12
100011d2:	2000      	movs	r0, #0
100011d4:	000c      	movs	r4, r1
100011d6:	f003 f8fb 	bl	100043d0 <tud_hid_n_ready>
100011da:	2800      	cmp	r0, #0
100011dc:	d010      	beq.n	10001200 <usb_hid_send_key+0x34>
100011de:	2208      	movs	r2, #8
100011e0:	2100      	movs	r1, #0
100011e2:	4668      	mov	r0, sp
100011e4:	f001 ffcc 	bl	10003180 <__wrap_memset>
100011e8:	466b      	mov	r3, sp
100011ea:	0022      	movs	r2, r4
100011ec:	701c      	strb	r4, [r3, #0]
100011ee:	709d      	strb	r5, [r3, #2]
100011f0:	2101      	movs	r1, #1
100011f2:	2000      	movs	r0, #0
100011f4:	3302      	adds	r3, #2
100011f6:	f003 f907 	bl	10004408 <tud_hid_n_keyboard_report>
100011fa:	200a      	movs	r0, #10
100011fc:	f001 f90a 	bl	10002414 <sleep_ms>
10001200:	b003      	add	sp, #12
10001202:	bd30      	pop	{r4, r5, pc}

10001204 <usb_hid_release_all>:
10001204:	b500      	push	{lr}
10001206:	2000      	movs	r0, #0
10001208:	b083      	sub	sp, #12
1000120a:	f003 f8e1 	bl	100043d0 <tud_hid_n_ready>
1000120e:	2800      	cmp	r0, #0
10001210:	d00b      	beq.n	1000122a <usb_hid_release_all+0x26>
10001212:	2208      	movs	r2, #8
10001214:	2100      	movs	r1, #0
10001216:	4668      	mov	r0, sp
10001218:	f001 ffb2 	bl	10003180 <__wrap_memset>
1000121c:	466b      	mov	r3, sp
1000121e:	2200      	movs	r2, #0
10001220:	2101      	movs	r1, #1
10001222:	2000      	movs	r0, #0
10001224:	3302      	adds	r3, #2
10001226:	f003 f8ef 	bl	10004408 <tud_hid_n_keyboard_report>
1000122a:	b003      	add	sp, #12
1000122c:	bd00      	pop	{pc}
1000122e:	46c0      	nop			@ (mov r8, r8)

10001230 <tud_hid_descriptor_report_cb>:
10001230:	4800      	ldr	r0, [pc, #0]	@ (10001234 <tud_hid_descriptor_report_cb+0x4>)
10001232:	4770      	bx	lr
10001234:	10004f8c 	.word	0x10004f8c

10001238 <tud_hid_get_report_cb>:
10001238:	2000      	movs	r0, #0
1000123a:	4770      	bx	lr

1000123c <tud_hid_set_report_cb>:
1000123c:	4770      	bx	lr
1000123e:	46c0      	nop			@ (mov r8, r8)

10001240 <tud_descriptor_device_cb>:
10001240:	4800      	ldr	r0, [pc, #0]	@ (10001244 <tud_descriptor_device_cb+0x4>)
10001242:	4770      	bx	lr
10001244:	10004f78 	.word	0x10004f78

10001248 <tud_descriptor_configuration_cb>:
10001248:	4800      	ldr	r0, [pc, #0]	@ (1000124c <tud_descriptor_configuration_cb+0x4>)
1000124a:	4770      	bx	lr
1000124c:	10004f54 	.word	0x10004f54

10001250 <tud_descriptor_string_cb>:
10001250:	b570      	push	{r4, r5, r6, lr}
10001252:	2800      	cmp	r0, #0
10001254:	d022      	beq.n	1000129c <tud_descriptor_string_cb+0x4c>
10001256:	2803      	cmp	r0, #3
10001258:	d829      	bhi.n	100012ae <tud_descriptor_string_cb+0x5e>
1000125a:	4b16      	ldr	r3, [pc, #88]	@ (100012b4 <tud_descriptor_string_cb+0x64>)
1000125c:	0080      	lsls	r0, r0, #2
1000125e:	58c5      	ldr	r5, [r0, r3]
10001260:	0028      	movs	r0, r5
10001262:	f003 fc55 	bl	10004b10 <strlen>
10001266:	b2c0      	uxtb	r0, r0
10001268:	1c04      	adds	r4, r0, #0
1000126a:	281f      	cmp	r0, #31
1000126c:	d814      	bhi.n	10001298 <tud_descriptor_string_cb+0x48>
1000126e:	26c0      	movs	r6, #192	@ 0xc0
10001270:	b2e4      	uxtb	r4, r4
10001272:	1c63      	adds	r3, r4, #1
10001274:	b2db      	uxtb	r3, r3
10001276:	005b      	lsls	r3, r3, #1
10001278:	00b6      	lsls	r6, r6, #2
1000127a:	431e      	orrs	r6, r3
1000127c:	2800      	cmp	r0, #0
1000127e:	d008      	beq.n	10001292 <tud_descriptor_string_cb+0x42>
10001280:	2300      	movs	r3, #0
10001282:	4a0d      	ldr	r2, [pc, #52]	@ (100012b8 <tud_descriptor_string_cb+0x68>)
10001284:	5ce9      	ldrb	r1, [r5, r3]
10001286:	3301      	adds	r3, #1
10001288:	8011      	strh	r1, [r2, #0]
1000128a:	b2d9      	uxtb	r1, r3
1000128c:	3202      	adds	r2, #2
1000128e:	428c      	cmp	r4, r1
10001290:	d8f8      	bhi.n	10001284 <tud_descriptor_string_cb+0x34>
10001292:	480a      	ldr	r0, [pc, #40]	@ (100012bc <tud_descriptor_string_cb+0x6c>)
10001294:	8006      	strh	r6, [r0, #0]
10001296:	bd70      	pop	{r4, r5, r6, pc}
10001298:	241f      	movs	r4, #31
1000129a:	e7e8      	b.n	1000126e <tud_descriptor_string_cb+0x1e>
1000129c:	26c1      	movs	r6, #193	@ 0xc1
1000129e:	4b05      	ldr	r3, [pc, #20]	@ (100012b4 <tud_descriptor_string_cb+0x64>)
100012a0:	2202      	movs	r2, #2
100012a2:	4805      	ldr	r0, [pc, #20]	@ (100012b8 <tud_descriptor_string_cb+0x68>)
100012a4:	6819      	ldr	r1, [r3, #0]
100012a6:	f001 ff71 	bl	1000318c <__wrap___aeabi_memcpy>
100012aa:	00b6      	lsls	r6, r6, #2
100012ac:	e7f1      	b.n	10001292 <tud_descriptor_string_cb+0x42>
100012ae:	2000      	movs	r0, #0
100012b0:	e7f1      	b.n	10001296 <tud_descriptor_string_cb+0x46>
100012b2:	46c0      	nop			@ (mov r8, r8)
100012b4:	20000e20 	.word	0x20000e20
100012b8:	200012c2 	.word	0x200012c2
100012bc:	200012c0 	.word	0x200012c0

100012c0 <gpio_default_irq_handler>:
100012c0:	23d0      	movs	r3, #208	@ 0xd0
100012c2:	061b      	lsls	r3, r3, #24
100012c4:	681b      	ldr	r3, [r3, #0]
100012c6:	4a97      	ldr	r2, [pc, #604]	@ (10001524 <gpio_default_irq_handler+0x264>)
100012c8:	0099      	lsls	r1, r3, #2
100012ca:	b5f0      	push	{r4, r5, r6, r7, lr}
100012cc:	464e      	mov	r6, r9
100012ce:	4689      	mov	r9, r1
100012d0:	5851      	ldr	r1, [r2, r1]
100012d2:	425a      	negs	r2, r3
100012d4:	4153      	adcs	r3, r2
100012d6:	222f      	movs	r2, #47	@ 0x2f
100012d8:	4657      	mov	r7, sl
100012da:	4645      	mov	r5, r8
100012dc:	46de      	mov	lr, fp
100012de:	425b      	negs	r3, r3
100012e0:	4393      	bics	r3, r2
100012e2:	4698      	mov	r8, r3
100012e4:	4b90      	ldr	r3, [pc, #576]	@ (10001528 <gpio_default_irq_handler+0x268>)
100012e6:	b5e0      	push	{r5, r6, r7, lr}
100012e8:	469c      	mov	ip, r3
100012ea:	b083      	sub	sp, #12
100012ec:	2700      	movs	r7, #0
100012ee:	9101      	str	r1, [sp, #4]
100012f0:	44e0      	add	r8, ip
100012f2:	2900      	cmp	r1, #0
100012f4:	d039      	beq.n	1000136a <gpio_default_irq_handler+0xaa>
100012f6:	4b8d      	ldr	r3, [pc, #564]	@ (1000152c <gpio_default_irq_handler+0x26c>)
100012f8:	260f      	movs	r6, #15
100012fa:	469b      	mov	fp, r3
100012fc:	4642      	mov	r2, r8
100012fe:	08fb      	lsrs	r3, r7, #3
10001300:	3308      	adds	r3, #8
10001302:	009b      	lsls	r3, r3, #2
10001304:	589c      	ldr	r4, [r3, r2]
10001306:	2301      	movs	r3, #1
10001308:	003d      	movs	r5, r7
1000130a:	469a      	mov	sl, r3
1000130c:	3708      	adds	r7, #8
1000130e:	2c00      	cmp	r4, #0
10001310:	d022      	beq.n	10001358 <gpio_default_irq_handler+0x98>
10001312:	0031      	movs	r1, r6
10001314:	4021      	ands	r1, r4
10001316:	4226      	tst	r6, r4
10001318:	d018      	beq.n	1000134c <gpio_default_irq_handler+0x8c>
1000131a:	465b      	mov	r3, fp
1000131c:	464a      	mov	r2, r9
1000131e:	589a      	ldr	r2, [r3, r2]
10001320:	002b      	movs	r3, r5
10001322:	40ea      	lsrs	r2, r5
10001324:	3b20      	subs	r3, #32
10001326:	17db      	asrs	r3, r3, #31
10001328:	4013      	ands	r3, r2
1000132a:	4652      	mov	r2, sl
1000132c:	4213      	tst	r3, r2
1000132e:	d10d      	bne.n	1000134c <gpio_default_irq_handler+0x8c>
10001330:	2207      	movs	r2, #7
10001332:	0008      	movs	r0, r1
10001334:	402a      	ands	r2, r5
10001336:	0092      	lsls	r2, r2, #2
10001338:	4090      	lsls	r0, r2
1000133a:	0002      	movs	r2, r0
1000133c:	08eb      	lsrs	r3, r5, #3
1000133e:	487c      	ldr	r0, [pc, #496]	@ (10001530 <gpio_default_irq_handler+0x270>)
10001340:	333c      	adds	r3, #60	@ 0x3c
10001342:	009b      	lsls	r3, r3, #2
10001344:	501a      	str	r2, [r3, r0]
10001346:	0028      	movs	r0, r5
10001348:	9b01      	ldr	r3, [sp, #4]
1000134a:	4798      	blx	r3
1000134c:	0924      	lsrs	r4, r4, #4
1000134e:	3501      	adds	r5, #1
10001350:	2c00      	cmp	r4, #0
10001352:	d001      	beq.n	10001358 <gpio_default_irq_handler+0x98>
10001354:	42bd      	cmp	r5, r7
10001356:	d3dc      	bcc.n	10001312 <gpio_default_irq_handler+0x52>
10001358:	2f20      	cmp	r7, #32
1000135a:	d1cf      	bne.n	100012fc <gpio_default_irq_handler+0x3c>
1000135c:	b003      	add	sp, #12
1000135e:	bcf0      	pop	{r4, r5, r6, r7}
10001360:	46bb      	mov	fp, r7
10001362:	46b2      	mov	sl, r6
10001364:	46a9      	mov	r9, r5
10001366:	46a0      	mov	r8, r4
10001368:	bdf0      	pop	{r4, r5, r6, r7, pc}
1000136a:	4b70      	ldr	r3, [pc, #448]	@ (1000152c <gpio_default_irq_handler+0x26c>)
1000136c:	2000      	movs	r0, #0
1000136e:	220f      	movs	r2, #15
10001370:	469b      	mov	fp, r3
10001372:	08c6      	lsrs	r6, r0, #3
10001374:	0033      	movs	r3, r6
10001376:	4641      	mov	r1, r8
10001378:	3308      	adds	r3, #8
1000137a:	009b      	lsls	r3, r3, #2
1000137c:	585b      	ldr	r3, [r3, r1]
1000137e:	0001      	movs	r1, r0
10001380:	3008      	adds	r0, #8
10001382:	2b00      	cmp	r3, #0
10001384:	d100      	bne.n	10001388 <gpio_default_irq_handler+0xc8>
10001386:	e0b2      	b.n	100014ee <gpio_default_irq_handler+0x22e>
10001388:	0017      	movs	r7, r2
1000138a:	401f      	ands	r7, r3
1000138c:	46bc      	mov	ip, r7
1000138e:	421a      	tst	r2, r3
10001390:	d00f      	beq.n	100013b2 <gpio_default_irq_handler+0xf2>
10001392:	464c      	mov	r4, r9
10001394:	465d      	mov	r5, fp
10001396:	000f      	movs	r7, r1
10001398:	592c      	ldr	r4, [r5, r4]
1000139a:	3f20      	subs	r7, #32
1000139c:	40cc      	lsrs	r4, r1
1000139e:	17ff      	asrs	r7, r7, #31
100013a0:	4027      	ands	r7, r4
100013a2:	2401      	movs	r4, #1
100013a4:	4227      	tst	r7, r4
100013a6:	d104      	bne.n	100013b2 <gpio_default_irq_handler+0xf2>
100013a8:	4664      	mov	r4, ip
100013aa:	4f61      	ldr	r7, [pc, #388]	@ (10001530 <gpio_default_irq_handler+0x270>)
100013ac:	363c      	adds	r6, #60	@ 0x3c
100013ae:	00b6      	lsls	r6, r6, #2
100013b0:	51f4      	str	r4, [r6, r7]
100013b2:	091e      	lsrs	r6, r3, #4
100013b4:	d100      	bne.n	100013b8 <gpio_default_irq_handler+0xf8>
100013b6:	e09a      	b.n	100014ee <gpio_default_irq_handler+0x22e>
100013b8:	0017      	movs	r7, r2
100013ba:	4037      	ands	r7, r6
100013bc:	4232      	tst	r2, r6
100013be:	d013      	beq.n	100013e8 <gpio_default_irq_handler+0x128>
100013c0:	1c4c      	adds	r4, r1, #1
100013c2:	46a4      	mov	ip, r4
100013c4:	465d      	mov	r5, fp
100013c6:	464c      	mov	r4, r9
100013c8:	592c      	ldr	r4, [r5, r4]
100013ca:	4665      	mov	r5, ip
100013cc:	000e      	movs	r6, r1
100013ce:	40ec      	lsrs	r4, r5
100013d0:	3e1f      	subs	r6, #31
100013d2:	17f6      	asrs	r6, r6, #31
100013d4:	4026      	ands	r6, r4
100013d6:	2401      	movs	r4, #1
100013d8:	4226      	tst	r6, r4
100013da:	d105      	bne.n	100013e8 <gpio_default_irq_handler+0x128>
100013dc:	08ee      	lsrs	r6, r5, #3
100013de:	4c54      	ldr	r4, [pc, #336]	@ (10001530 <gpio_default_irq_handler+0x270>)
100013e0:	363c      	adds	r6, #60	@ 0x3c
100013e2:	013f      	lsls	r7, r7, #4
100013e4:	00b6      	lsls	r6, r6, #2
100013e6:	5137      	str	r7, [r6, r4]
100013e8:	0a1e      	lsrs	r6, r3, #8
100013ea:	d100      	bne.n	100013ee <gpio_default_irq_handler+0x12e>
100013ec:	e07f      	b.n	100014ee <gpio_default_irq_handler+0x22e>
100013ee:	0017      	movs	r7, r2
100013f0:	4037      	ands	r7, r6
100013f2:	4232      	tst	r2, r6
100013f4:	d013      	beq.n	1000141e <gpio_default_irq_handler+0x15e>
100013f6:	1c8c      	adds	r4, r1, #2
100013f8:	46a4      	mov	ip, r4
100013fa:	465d      	mov	r5, fp
100013fc:	464c      	mov	r4, r9
100013fe:	592c      	ldr	r4, [r5, r4]
10001400:	4665      	mov	r5, ip
10001402:	000e      	movs	r6, r1
10001404:	40ec      	lsrs	r4, r5
10001406:	3e1e      	subs	r6, #30
10001408:	17f6      	asrs	r6, r6, #31
1000140a:	4026      	ands	r6, r4
1000140c:	2401      	movs	r4, #1
1000140e:	4226      	tst	r6, r4
10001410:	d105      	bne.n	1000141e <gpio_default_irq_handler+0x15e>
10001412:	08ee      	lsrs	r6, r5, #3
10001414:	4c46      	ldr	r4, [pc, #280]	@ (10001530 <gpio_default_irq_handler+0x270>)
10001416:	363c      	adds	r6, #60	@ 0x3c
10001418:	023f      	lsls	r7, r7, #8
1000141a:	00b6      	lsls	r6, r6, #2
1000141c:	5137      	str	r7, [r6, r4]
1000141e:	0b1e      	lsrs	r6, r3, #12
10001420:	d065      	beq.n	100014ee <gpio_default_irq_handler+0x22e>
10001422:	0017      	movs	r7, r2
10001424:	4037      	ands	r7, r6
10001426:	4232      	tst	r2, r6
10001428:	d00d      	beq.n	10001446 <gpio_default_irq_handler+0x186>
1000142a:	1ccc      	adds	r4, r1, #3
1000142c:	46a4      	mov	ip, r4
1000142e:	465d      	mov	r5, fp
10001430:	464c      	mov	r4, r9
10001432:	592c      	ldr	r4, [r5, r4]
10001434:	4665      	mov	r5, ip
10001436:	000e      	movs	r6, r1
10001438:	40ec      	lsrs	r4, r5
1000143a:	3e1d      	subs	r6, #29
1000143c:	17f6      	asrs	r6, r6, #31
1000143e:	4026      	ands	r6, r4
10001440:	2401      	movs	r4, #1
10001442:	4226      	tst	r6, r4
10001444:	d057      	beq.n	100014f6 <gpio_default_irq_handler+0x236>
10001446:	0c1e      	lsrs	r6, r3, #16
10001448:	d051      	beq.n	100014ee <gpio_default_irq_handler+0x22e>
1000144a:	0014      	movs	r4, r2
1000144c:	4034      	ands	r4, r6
1000144e:	46a4      	mov	ip, r4
10001450:	4232      	tst	r2, r6
10001452:	d00b      	beq.n	1000146c <gpio_default_irq_handler+0x1ac>
10001454:	464c      	mov	r4, r9
10001456:	4e35      	ldr	r6, [pc, #212]	@ (1000152c <gpio_default_irq_handler+0x26c>)
10001458:	1d0f      	adds	r7, r1, #4
1000145a:	5936      	ldr	r6, [r6, r4]
1000145c:	40fe      	lsrs	r6, r7
1000145e:	46b2      	mov	sl, r6
10001460:	000e      	movs	r6, r1
10001462:	4654      	mov	r4, sl
10001464:	3e1c      	subs	r6, #28
10001466:	0ff6      	lsrs	r6, r6, #31
10001468:	4226      	tst	r6, r4
1000146a:	d04b      	beq.n	10001504 <gpio_default_irq_handler+0x244>
1000146c:	0d1e      	lsrs	r6, r3, #20
1000146e:	d03e      	beq.n	100014ee <gpio_default_irq_handler+0x22e>
10001470:	0014      	movs	r4, r2
10001472:	4034      	ands	r4, r6
10001474:	46a4      	mov	ip, r4
10001476:	4232      	tst	r2, r6
10001478:	d00b      	beq.n	10001492 <gpio_default_irq_handler+0x1d2>
1000147a:	464c      	mov	r4, r9
1000147c:	4e2b      	ldr	r6, [pc, #172]	@ (1000152c <gpio_default_irq_handler+0x26c>)
1000147e:	1d4f      	adds	r7, r1, #5
10001480:	5936      	ldr	r6, [r6, r4]
10001482:	40fe      	lsrs	r6, r7
10001484:	46b2      	mov	sl, r6
10001486:	000e      	movs	r6, r1
10001488:	4654      	mov	r4, sl
1000148a:	3e1b      	subs	r6, #27
1000148c:	0ff6      	lsrs	r6, r6, #31
1000148e:	4226      	tst	r6, r4
10001490:	d040      	beq.n	10001514 <gpio_default_irq_handler+0x254>
10001492:	0e1e      	lsrs	r6, r3, #24
10001494:	d02b      	beq.n	100014ee <gpio_default_irq_handler+0x22e>
10001496:	0014      	movs	r4, r2
10001498:	4034      	ands	r4, r6
1000149a:	46a4      	mov	ip, r4
1000149c:	4232      	tst	r2, r6
1000149e:	d012      	beq.n	100014c6 <gpio_default_irq_handler+0x206>
100014a0:	464c      	mov	r4, r9
100014a2:	4e22      	ldr	r6, [pc, #136]	@ (1000152c <gpio_default_irq_handler+0x26c>)
100014a4:	1d8f      	adds	r7, r1, #6
100014a6:	5936      	ldr	r6, [r6, r4]
100014a8:	40fe      	lsrs	r6, r7
100014aa:	46b2      	mov	sl, r6
100014ac:	000e      	movs	r6, r1
100014ae:	4654      	mov	r4, sl
100014b0:	3e1a      	subs	r6, #26
100014b2:	0ff6      	lsrs	r6, r6, #31
100014b4:	4226      	tst	r6, r4
100014b6:	d106      	bne.n	100014c6 <gpio_default_irq_handler+0x206>
100014b8:	4664      	mov	r4, ip
100014ba:	08fe      	lsrs	r6, r7, #3
100014bc:	363c      	adds	r6, #60	@ 0x3c
100014be:	0627      	lsls	r7, r4, #24
100014c0:	4c1b      	ldr	r4, [pc, #108]	@ (10001530 <gpio_default_irq_handler+0x270>)
100014c2:	00b6      	lsls	r6, r6, #2
100014c4:	5137      	str	r7, [r6, r4]
100014c6:	0f1b      	lsrs	r3, r3, #28
100014c8:	1dcf      	adds	r7, r1, #7
100014ca:	2b00      	cmp	r3, #0
100014cc:	d00f      	beq.n	100014ee <gpio_default_irq_handler+0x22e>
100014ce:	464c      	mov	r4, r9
100014d0:	465d      	mov	r5, fp
100014d2:	592e      	ldr	r6, [r5, r4]
100014d4:	2401      	movs	r4, #1
100014d6:	40fe      	lsrs	r6, r7
100014d8:	3919      	subs	r1, #25
100014da:	17c9      	asrs	r1, r1, #31
100014dc:	4031      	ands	r1, r6
100014de:	4221      	tst	r1, r4
100014e0:	d105      	bne.n	100014ee <gpio_default_irq_handler+0x22e>
100014e2:	08f9      	lsrs	r1, r7, #3
100014e4:	4e12      	ldr	r6, [pc, #72]	@ (10001530 <gpio_default_irq_handler+0x270>)
100014e6:	313c      	adds	r1, #60	@ 0x3c
100014e8:	071b      	lsls	r3, r3, #28
100014ea:	0089      	lsls	r1, r1, #2
100014ec:	518b      	str	r3, [r1, r6]
100014ee:	2820      	cmp	r0, #32
100014f0:	d000      	beq.n	100014f4 <gpio_default_irq_handler+0x234>
100014f2:	e73e      	b.n	10001372 <gpio_default_irq_handler+0xb2>
100014f4:	e732      	b.n	1000135c <gpio_default_irq_handler+0x9c>
100014f6:	08ee      	lsrs	r6, r5, #3
100014f8:	4c0d      	ldr	r4, [pc, #52]	@ (10001530 <gpio_default_irq_handler+0x270>)
100014fa:	363c      	adds	r6, #60	@ 0x3c
100014fc:	033f      	lsls	r7, r7, #12
100014fe:	00b6      	lsls	r6, r6, #2
10001500:	5137      	str	r7, [r6, r4]
10001502:	e7a0      	b.n	10001446 <gpio_default_irq_handler+0x186>
10001504:	4664      	mov	r4, ip
10001506:	08ff      	lsrs	r7, r7, #3
10001508:	373c      	adds	r7, #60	@ 0x3c
1000150a:	00be      	lsls	r6, r7, #2
1000150c:	4f08      	ldr	r7, [pc, #32]	@ (10001530 <gpio_default_irq_handler+0x270>)
1000150e:	0424      	lsls	r4, r4, #16
10001510:	51f4      	str	r4, [r6, r7]
10001512:	e7ab      	b.n	1000146c <gpio_default_irq_handler+0x1ac>
10001514:	4664      	mov	r4, ip
10001516:	08fe      	lsrs	r6, r7, #3
10001518:	363c      	adds	r6, #60	@ 0x3c
1000151a:	0527      	lsls	r7, r4, #20
1000151c:	4c04      	ldr	r4, [pc, #16]	@ (10001530 <gpio_default_irq_handler+0x270>)
1000151e:	00b6      	lsls	r6, r6, #2
10001520:	5137      	str	r7, [r6, r4]
10001522:	e7b6      	b.n	10001492 <gpio_default_irq_handler+0x1d2>
10001524:	200014a0 	.word	0x200014a0
10001528:	40014130 	.word	0x40014130
1000152c:	20001b38 	.word	0x20001b38
10001530:	40014000 	.word	0x40014000

10001534 <gpio_set_pulls>:
10001534:	4b07      	ldr	r3, [pc, #28]	@ (10001554 <gpio_set_pulls+0x20>)
10001536:	0080      	lsls	r0, r0, #2
10001538:	18c3      	adds	r3, r0, r3
1000153a:	681b      	ldr	r3, [r3, #0]
1000153c:	00c9      	lsls	r1, r1, #3
1000153e:	0092      	lsls	r2, r2, #2
10001540:	430a      	orrs	r2, r1
10001542:	405a      	eors	r2, r3
10001544:	230c      	movs	r3, #12
10001546:	4013      	ands	r3, r2
10001548:	4a03      	ldr	r2, [pc, #12]	@ (10001558 <gpio_set_pulls+0x24>)
1000154a:	4694      	mov	ip, r2
1000154c:	4460      	add	r0, ip
1000154e:	6003      	str	r3, [r0, #0]
10001550:	4770      	bx	lr
10001552:	46c0      	nop			@ (mov r8, r8)
10001554:	4001c004 	.word	0x4001c004
10001558:	4001d004 	.word	0x4001d004

1000155c <gpio_set_irq_enabled>:
1000155c:	23d0      	movs	r3, #208	@ 0xd0
1000155e:	061b      	lsls	r3, r3, #24
10001560:	681b      	ldr	r3, [r3, #0]
10001562:	b530      	push	{r4, r5, lr}
10001564:	0005      	movs	r5, r0
10001566:	4258      	negs	r0, r3
10001568:	4143      	adcs	r3, r0
1000156a:	202f      	movs	r0, #47	@ 0x2f
1000156c:	425b      	negs	r3, r3
1000156e:	4383      	bics	r3, r0
10001570:	480e      	ldr	r0, [pc, #56]	@ (100015ac <gpio_set_irq_enabled+0x50>)
10001572:	08ec      	lsrs	r4, r5, #3
10001574:	4684      	mov	ip, r0
10001576:	2007      	movs	r0, #7
10001578:	4028      	ands	r0, r5
1000157a:	0080      	lsls	r0, r0, #2
1000157c:	4081      	lsls	r1, r0
1000157e:	0020      	movs	r0, r4
10001580:	4d0b      	ldr	r5, [pc, #44]	@ (100015b0 <gpio_set_irq_enabled+0x54>)
10001582:	303c      	adds	r0, #60	@ 0x3c
10001584:	4463      	add	r3, ip
10001586:	0080      	lsls	r0, r0, #2
10001588:	00a4      	lsls	r4, r4, #2
1000158a:	5141      	str	r1, [r0, r5]
1000158c:	191b      	adds	r3, r3, r4
1000158e:	2a00      	cmp	r2, #0
10001590:	d005      	beq.n	1000159e <gpio_set_irq_enabled+0x42>
10001592:	2280      	movs	r2, #128	@ 0x80
10001594:	0192      	lsls	r2, r2, #6
10001596:	4694      	mov	ip, r2
10001598:	4463      	add	r3, ip
1000159a:	6019      	str	r1, [r3, #0]
1000159c:	bd30      	pop	{r4, r5, pc}
1000159e:	22c0      	movs	r2, #192	@ 0xc0
100015a0:	0192      	lsls	r2, r2, #6
100015a2:	4694      	mov	ip, r2
100015a4:	4463      	add	r3, ip
100015a6:	6019      	str	r1, [r3, #0]
100015a8:	e7f8      	b.n	1000159c <gpio_set_irq_enabled+0x40>
100015aa:	46c0      	nop			@ (mov r8, r8)
100015ac:	40014130 	.word	0x40014130
100015b0:	40014000 	.word	0x40014000

100015b4 <gpio_set_irq_enabled_with_callback>:
100015b4:	b5f8      	push	{r3, r4, r5, r6, r7, lr}
100015b6:	4645      	mov	r5, r8
100015b8:	4698      	mov	r8, r3
100015ba:	23d0      	movs	r3, #208	@ 0xd0
100015bc:	061b      	lsls	r3, r3, #24
100015be:	46de      	mov	lr, fp
100015c0:	681c      	ldr	r4, [r3, #0]
100015c2:	469b      	mov	fp, r3
100015c4:	4b2b      	ldr	r3, [pc, #172]	@ (10001674 <gpio_set_irq_enabled_with_callback+0xc0>)
100015c6:	4657      	mov	r7, sl
100015c8:	469a      	mov	sl, r3
100015ca:	00a3      	lsls	r3, r4, #2
100015cc:	464e      	mov	r6, r9
100015ce:	4699      	mov	r9, r3
100015d0:	b5e0      	push	{r5, r6, r7, lr}
100015d2:	4653      	mov	r3, sl
100015d4:	0016      	movs	r6, r2
100015d6:	464a      	mov	r2, r9
100015d8:	589b      	ldr	r3, [r3, r2]
100015da:	0007      	movs	r7, r0
100015dc:	000d      	movs	r5, r1
100015de:	2b00      	cmp	r3, #0
100015e0:	d034      	beq.n	1000164c <gpio_set_irq_enabled_with_callback+0x98>
100015e2:	4643      	mov	r3, r8
100015e4:	2b00      	cmp	r3, #0
100015e6:	d03f      	beq.n	10001668 <gpio_set_irq_enabled_with_callback+0xb4>
100015e8:	4653      	mov	r3, sl
100015ea:	464a      	mov	r2, r9
100015ec:	4641      	mov	r1, r8
100015ee:	5099      	str	r1, [r3, r2]
100015f0:	23d0      	movs	r3, #208	@ 0xd0
100015f2:	061b      	lsls	r3, r3, #24
100015f4:	681c      	ldr	r4, [r3, #0]
100015f6:	4263      	negs	r3, r4
100015f8:	415c      	adcs	r4, r3
100015fa:	222f      	movs	r2, #47	@ 0x2f
100015fc:	2007      	movs	r0, #7
100015fe:	4263      	negs	r3, r4
10001600:	4393      	bics	r3, r2
10001602:	4a1d      	ldr	r2, [pc, #116]	@ (10001678 <gpio_set_irq_enabled_with_callback+0xc4>)
10001604:	4038      	ands	r0, r7
10001606:	4694      	mov	ip, r2
10001608:	08fa      	lsrs	r2, r7, #3
1000160a:	0011      	movs	r1, r2
1000160c:	0080      	lsls	r0, r0, #2
1000160e:	4085      	lsls	r5, r0
10001610:	313c      	adds	r1, #60	@ 0x3c
10001612:	481a      	ldr	r0, [pc, #104]	@ (1000167c <gpio_set_irq_enabled_with_callback+0xc8>)
10001614:	4463      	add	r3, ip
10001616:	0089      	lsls	r1, r1, #2
10001618:	0092      	lsls	r2, r2, #2
1000161a:	500d      	str	r5, [r1, r0]
1000161c:	189b      	adds	r3, r3, r2
1000161e:	2e00      	cmp	r6, #0
10001620:	d00e      	beq.n	10001640 <gpio_set_irq_enabled_with_callback+0x8c>
10001622:	2280      	movs	r2, #128	@ 0x80
10001624:	0192      	lsls	r2, r2, #6
10001626:	4694      	mov	ip, r2
10001628:	4463      	add	r3, ip
1000162a:	2101      	movs	r1, #1
1000162c:	200d      	movs	r0, #13
1000162e:	601d      	str	r5, [r3, #0]
10001630:	f000 f914 	bl	1000185c <irq_set_enabled>
10001634:	bcf0      	pop	{r4, r5, r6, r7}
10001636:	46bb      	mov	fp, r7
10001638:	46b2      	mov	sl, r6
1000163a:	46a9      	mov	r9, r5
1000163c:	46a0      	mov	r8, r4
1000163e:	bdf8      	pop	{r3, r4, r5, r6, r7, pc}
10001640:	22c0      	movs	r2, #192	@ 0xc0
10001642:	0192      	lsls	r2, r2, #6
10001644:	4694      	mov	ip, r2
10001646:	4463      	add	r3, ip
10001648:	601d      	str	r5, [r3, #0]
1000164a:	e7f3      	b.n	10001634 <gpio_set_irq_enabled_with_callback+0x80>
1000164c:	4643      	mov	r3, r8
1000164e:	2b00      	cmp	r3, #0
10001650:	d0d1      	beq.n	100015f6 <gpio_set_irq_enabled_with_callback+0x42>
10001652:	4653      	mov	r3, sl
10001654:	4641      	mov	r1, r8
10001656:	200d      	movs	r0, #13
10001658:	5099      	str	r1, [r3, r2]
1000165a:	2200      	movs	r2, #0
1000165c:	4908      	ldr	r1, [pc, #32]	@ (10001680 <gpio_set_irq_enabled_with_callback+0xcc>)
1000165e:	f000 f939 	bl	100018d4 <irq_add_shared_handler>
10001662:	465b      	mov	r3, fp
10001664:	681c      	ldr	r4, [r3, #0]
10001666:	e7c6      	b.n	100015f6 <gpio_set_irq_enabled_with_callback+0x42>
10001668:	200d      	movs	r0, #13
1000166a:	4905      	ldr	r1, [pc, #20]	@ (10001680 <gpio_set_irq_enabled_with_callback+0xcc>)
1000166c:	f000 fa2c 	bl	10001ac8 <irq_remove_handler>
10001670:	e7ba      	b.n	100015e8 <gpio_set_irq_enabled_with_callback+0x34>
10001672:	46c0      	nop			@ (mov r8, r8)
10001674:	200014a0 	.word	0x200014a0
10001678:	40014130 	.word	0x40014130
1000167c:	40014000 	.word	0x40014000
10001680:	100012c1 	.word	0x100012c1

10001684 <gpio_init>:
10001684:	2301      	movs	r3, #1
10001686:	22d0      	movs	r2, #208	@ 0xd0
10001688:	4083      	lsls	r3, r0
1000168a:	0612      	lsls	r2, r2, #24
1000168c:	6293      	str	r3, [r2, #40]	@ 0x28
1000168e:	6193      	str	r3, [r2, #24]
10001690:	4a09      	ldr	r2, [pc, #36]	@ (100016b8 <gpio_init+0x34>)
10001692:	0083      	lsls	r3, r0, #2
10001694:	189a      	adds	r2, r3, r2
10001696:	6811      	ldr	r1, [r2, #0]
10001698:	2240      	movs	r2, #64	@ 0x40
1000169a:	4051      	eors	r1, r2
1000169c:	3280      	adds	r2, #128	@ 0x80
1000169e:	400a      	ands	r2, r1
100016a0:	4906      	ldr	r1, [pc, #24]	@ (100016bc <gpio_init+0x38>)
100016a2:	00c0      	lsls	r0, r0, #3
100016a4:	468c      	mov	ip, r1
100016a6:	4463      	add	r3, ip
100016a8:	601a      	str	r2, [r3, #0]
100016aa:	4b05      	ldr	r3, [pc, #20]	@ (100016c0 <gpio_init+0x3c>)
100016ac:	469c      	mov	ip, r3
100016ae:	2305      	movs	r3, #5
100016b0:	4460      	add	r0, ip
100016b2:	6043      	str	r3, [r0, #4]
100016b4:	4770      	bx	lr
100016b6:	46c0      	nop			@ (mov r8, r8)
100016b8:	4001c004 	.word	0x4001c004
100016bc:	4001d004 	.word	0x4001d004
100016c0:	40014000 	.word	0x40014000

100016c4 <rp2040_chip_version>:
100016c4:	2380      	movs	r3, #128	@ 0x80
100016c6:	05db      	lsls	r3, r3, #23
100016c8:	6818      	ldr	r0, [r3, #0]
100016ca:	0f00      	lsrs	r0, r0, #28
100016cc:	4770      	bx	lr
100016ce:	46c0      	nop			@ (mov r8, r8)

100016d0 <panic>:
100016d0:	b40f      	push	{r0, r1, r2, r3}
100016d2:	b500      	push	{lr}
100016d4:	4808      	ldr	r0, [pc, #32]	@ (100016f8 <panic+0x28>)
100016d6:	b083      	sub	sp, #12
100016d8:	f001 feba 	bl	10003450 <__wrap_puts>
100016dc:	9b04      	ldr	r3, [sp, #16]
100016de:	2b00      	cmp	r3, #0
100016e0:	d007      	beq.n	100016f2 <panic+0x22>
100016e2:	a905      	add	r1, sp, #20
100016e4:	0018      	movs	r0, r3
100016e6:	9101      	str	r1, [sp, #4]
100016e8:	f001 fd5e 	bl	100031a8 <weak_raw_vprintf>
100016ec:	4803      	ldr	r0, [pc, #12]	@ (100016fc <panic+0x2c>)
100016ee:	f001 feaf 	bl	10003450 <__wrap_puts>
100016f2:	2001      	movs	r0, #1
100016f4:	f001 fd70 	bl	100031d8 <_exit>
100016f8:	10004cc8 	.word	0x10004cc8
100016fc:	10004cd8 	.word	0x10004cd8

10001700 <hw_claim_or_assert>:
10001700:	b570      	push	{r4, r5, r6, lr}
10001702:	f3ef 8c10 	mrs	ip, PRIMASK
10001706:	b672      	cpsid	i
10001708:	4d0d      	ldr	r5, [pc, #52]	@ (10001740 <hw_claim_or_assert+0x40>)
1000170a:	682b      	ldr	r3, [r5, #0]
1000170c:	2b00      	cmp	r3, #0
1000170e:	d0fc      	beq.n	1000170a <hw_claim_or_assert+0xa>
10001710:	f3bf 8f5f 	dmb	sy
10001714:	2407      	movs	r4, #7
10001716:	08cb      	lsrs	r3, r1, #3
10001718:	18c6      	adds	r6, r0, r3
1000171a:	5cc0      	ldrb	r0, [r0, r3]
1000171c:	2301      	movs	r3, #1
1000171e:	400c      	ands	r4, r1
10001720:	40a3      	lsls	r3, r4
10001722:	001c      	movs	r4, r3
10001724:	4004      	ands	r4, r0
10001726:	4203      	tst	r3, r0
10001728:	d107      	bne.n	1000173a <hw_claim_or_assert+0x3a>
1000172a:	4318      	orrs	r0, r3
1000172c:	7030      	strb	r0, [r6, #0]
1000172e:	f3bf 8f5f 	dmb	sy
10001732:	602c      	str	r4, [r5, #0]
10001734:	f38c 8810 	msr	PRIMASK, ip
10001738:	bd70      	pop	{r4, r5, r6, pc}
1000173a:	0010      	movs	r0, r2
1000173c:	f7ff ffc8 	bl	100016d0 <panic>
10001740:	d000012c 	.word	0xd000012c

10001744 <hw_claim_unused_from_range>:
10001744:	b5f8      	push	{r3, r4, r5, r6, r7, lr}
10001746:	4647      	mov	r7, r8
10001748:	46ce      	mov	lr, r9
1000174a:	4688      	mov	r8, r1
1000174c:	b580      	push	{r7, lr}
1000174e:	f3ef 8c10 	mrs	ip, PRIMASK
10001752:	b672      	cpsid	i
10001754:	4d21      	ldr	r5, [pc, #132]	@ (100017dc <hw_claim_unused_from_range+0x98>)
10001756:	682c      	ldr	r4, [r5, #0]
10001758:	2c00      	cmp	r4, #0
1000175a:	d0fc      	beq.n	10001756 <hw_claim_unused_from_range+0x12>
1000175c:	f3bf 8f5f 	dmb	sy
10001760:	429a      	cmp	r2, r3
10001762:	d82c      	bhi.n	100017be <hw_claim_unused_from_range+0x7a>
10001764:	08d4      	lsrs	r4, r2, #3
10001766:	2707      	movs	r7, #7
10001768:	5d05      	ldrb	r5, [r0, r4]
1000176a:	1906      	adds	r6, r0, r4
1000176c:	2401      	movs	r4, #1
1000176e:	4017      	ands	r7, r2
10001770:	40bc      	lsls	r4, r7
10001772:	422c      	tst	r4, r5
10001774:	d01f      	beq.n	100017b6 <hw_claim_unused_from_range+0x72>
10001776:	2107      	movs	r1, #7
10001778:	2701      	movs	r7, #1
1000177a:	4689      	mov	r9, r1
1000177c:	e009      	b.n	10001792 <hw_claim_unused_from_range+0x4e>
1000177e:	08d4      	lsrs	r4, r2, #3
10001780:	5d05      	ldrb	r5, [r0, r4]
10001782:	1906      	adds	r6, r0, r4
10001784:	464c      	mov	r4, r9
10001786:	0039      	movs	r1, r7
10001788:	4014      	ands	r4, r2
1000178a:	40a1      	lsls	r1, r4
1000178c:	000c      	movs	r4, r1
1000178e:	4229      	tst	r1, r5
10001790:	d011      	beq.n	100017b6 <hw_claim_unused_from_range+0x72>
10001792:	3201      	adds	r2, #1
10001794:	4293      	cmp	r3, r2
10001796:	d2f2      	bcs.n	1000177e <hw_claim_unused_from_range+0x3a>
10001798:	2001      	movs	r0, #1
1000179a:	4240      	negs	r0, r0
1000179c:	f3bf 8f5f 	dmb	sy
100017a0:	2200      	movs	r2, #0
100017a2:	4b0e      	ldr	r3, [pc, #56]	@ (100017dc <hw_claim_unused_from_range+0x98>)
100017a4:	601a      	str	r2, [r3, #0]
100017a6:	f38c 8810 	msr	PRIMASK, ip
100017aa:	2800      	cmp	r0, #0
100017ac:	db0f      	blt.n	100017ce <hw_claim_unused_from_range+0x8a>
100017ae:	bcc0      	pop	{r6, r7}
100017b0:	46b9      	mov	r9, r7
100017b2:	46b0      	mov	r8, r6
100017b4:	bdf8      	pop	{r3, r4, r5, r6, r7, pc}
100017b6:	4325      	orrs	r5, r4
100017b8:	0010      	movs	r0, r2
100017ba:	7035      	strb	r5, [r6, #0]
100017bc:	e7ee      	b.n	1000179c <hw_claim_unused_from_range+0x58>
100017be:	f3bf 8f5f 	dmb	sy
100017c2:	2300      	movs	r3, #0
100017c4:	602b      	str	r3, [r5, #0]
100017c6:	f38c 8810 	msr	PRIMASK, ip
100017ca:	2001      	movs	r0, #1
100017cc:	4240      	negs	r0, r0
100017ce:	4643      	mov	r3, r8
100017d0:	2b00      	cmp	r3, #0
100017d2:	d0ec      	beq.n	100017ae <hw_claim_unused_from_range+0x6a>
100017d4:	9808      	ldr	r0, [sp, #32]
100017d6:	f7ff ff7b 	bl	100016d0 <panic>
100017da:	46c0      	nop			@ (mov r8, r8)
100017dc:	d000012c 	.word	0xd000012c

100017e0 <next_striped_spin_lock_num>:
100017e0:	4a04      	ldr	r2, [pc, #16]	@ (100017f4 <next_striped_spin_lock_num+0x14>)
100017e2:	7810      	ldrb	r0, [r2, #0]
100017e4:	1c43      	adds	r3, r0, #1
100017e6:	b2db      	uxtb	r3, r3
100017e8:	2b17      	cmp	r3, #23
100017ea:	d900      	bls.n	100017ee <next_striped_spin_lock_num+0xe>
100017ec:	2310      	movs	r3, #16
100017ee:	7013      	strb	r3, [r2, #0]
100017f0:	4770      	bx	lr
100017f2:	46c0      	nop			@ (mov r8, r8)
100017f4:	20000e30 	.word	0x20000e30

100017f8 <spin_lock_claim_unused>:
100017f8:	b510      	push	{r4, lr}
100017fa:	4b06      	ldr	r3, [pc, #24]	@ (10001814 <spin_lock_claim_unused+0x1c>)
100017fc:	4c06      	ldr	r4, [pc, #24]	@ (10001818 <spin_lock_claim_unused+0x20>)
100017fe:	b082      	sub	sp, #8
10001800:	0001      	movs	r1, r0
10001802:	9300      	str	r3, [sp, #0]
10001804:	2218      	movs	r2, #24
10001806:	231f      	movs	r3, #31
10001808:	0020      	movs	r0, r4
1000180a:	f7ff ff9b 	bl	10001744 <hw_claim_unused_from_range>
1000180e:	b002      	add	sp, #8
10001810:	bd10      	pop	{r4, pc}
10001812:	46c0      	nop			@ (mov r8, r8)
10001814:	10004cdc 	.word	0x10004cdc
10001818:	200014a8 	.word	0x200014a8

1000181c <spin_locks_reset>:
1000181c:	2100      	movs	r1, #0
1000181e:	4b04      	ldr	r3, [pc, #16]	@ (10001830 <spin_locks_reset+0x14>)
10001820:	4a04      	ldr	r2, [pc, #16]	@ (10001834 <spin_locks_reset+0x18>)
10001822:	f3bf 8f5f 	dmb	sy
10001826:	c302      	stmia	r3!, {r1}
10001828:	4293      	cmp	r3, r2
1000182a:	d1fa      	bne.n	10001822 <spin_locks_reset+0x6>
1000182c:	4770      	bx	lr
1000182e:	46c0      	nop			@ (mov r8, r8)
10001830:	d0000100 	.word	0xd0000100
10001834:	d0000180 	.word	0xd0000180

10001838 <runtime_init_per_core_irq_priorities>:
10001838:	4b05      	ldr	r3, [pc, #20]	@ (10001850 <runtime_init_per_core_irq_priorities+0x18>)
1000183a:	4a06      	ldr	r2, [pc, #24]	@ (10001854 <runtime_init_per_core_irq_priorities+0x1c>)
1000183c:	6013      	str	r3, [r2, #0]
1000183e:	4a06      	ldr	r2, [pc, #24]	@ (10001858 <runtime_init_per_core_irq_priorities+0x20>)
10001840:	6013      	str	r3, [r2, #0]
10001842:	6053      	str	r3, [r2, #4]
10001844:	6093      	str	r3, [r2, #8]
10001846:	60d3      	str	r3, [r2, #12]
10001848:	6113      	str	r3, [r2, #16]
1000184a:	6153      	str	r3, [r2, #20]
1000184c:	6193      	str	r3, [r2, #24]
1000184e:	4770      	bx	lr
10001850:	80808080 	.word	0x80808080
10001854:	e000e400 	.word	0xe000e400
10001858:	e000e404 	.word	0xe000e404

1000185c <irq_set_enabled>:
1000185c:	231f      	movs	r3, #31
1000185e:	4018      	ands	r0, r3
10001860:	3b1e      	subs	r3, #30
10001862:	4083      	lsls	r3, r0
10001864:	2900      	cmp	r1, #0
10001866:	d005      	beq.n	10001874 <irq_set_enabled+0x18>
10001868:	21c0      	movs	r1, #192	@ 0xc0
1000186a:	4a04      	ldr	r2, [pc, #16]	@ (1000187c <irq_set_enabled+0x20>)
1000186c:	0049      	lsls	r1, r1, #1
1000186e:	5053      	str	r3, [r2, r1]
10001870:	6013      	str	r3, [r2, #0]
10001872:	4770      	bx	lr
10001874:	2280      	movs	r2, #128	@ 0x80
10001876:	4901      	ldr	r1, [pc, #4]	@ (1000187c <irq_set_enabled+0x20>)
10001878:	508b      	str	r3, [r1, r2]
1000187a:	e7fa      	b.n	10001872 <irq_set_enabled+0x16>
1000187c:	e000e100 	.word	0xe000e100

10001880 <irq_set_exclusive_handler>:
10001880:	b570      	push	{r4, r5, r6, lr}
10001882:	000d      	movs	r5, r1
10001884:	f3ef 8610 	mrs	r6, PRIMASK
10001888:	b672      	cpsid	i
1000188a:	4a0f      	ldr	r2, [pc, #60]	@ (100018c8 <irq_set_exclusive_handler+0x48>)
1000188c:	6813      	ldr	r3, [r2, #0]
1000188e:	2b00      	cmp	r3, #0
10001890:	d0fc      	beq.n	1000188c <irq_set_exclusive_handler+0xc>
10001892:	f3bf 8f5f 	dmb	sy
10001896:	4b0d      	ldr	r3, [pc, #52]	@ (100018cc <irq_set_exclusive_handler+0x4c>)
10001898:	3010      	adds	r0, #16
1000189a:	689b      	ldr	r3, [r3, #8]
1000189c:	0084      	lsls	r4, r0, #2
1000189e:	591b      	ldr	r3, [r3, r4]
100018a0:	4a0b      	ldr	r2, [pc, #44]	@ (100018d0 <irq_set_exclusive_handler+0x50>)
100018a2:	4293      	cmp	r3, r2
100018a4:	d003      	beq.n	100018ae <irq_set_exclusive_handler+0x2e>
100018a6:	429d      	cmp	r5, r3
100018a8:	d001      	beq.n	100018ae <irq_set_exclusive_handler+0x2e>
100018aa:	f001 f80d 	bl	100028c8 <hard_assertion_failure>
100018ae:	4b07      	ldr	r3, [pc, #28]	@ (100018cc <irq_set_exclusive_handler+0x4c>)
100018b0:	689b      	ldr	r3, [r3, #8]
100018b2:	511d      	str	r5, [r3, r4]
100018b4:	f3bf 8f5f 	dmb	sy
100018b8:	f3bf 8f5f 	dmb	sy
100018bc:	2200      	movs	r2, #0
100018be:	4b02      	ldr	r3, [pc, #8]	@ (100018c8 <irq_set_exclusive_handler+0x48>)
100018c0:	601a      	str	r2, [r3, #0]
100018c2:	f386 8810 	msr	PRIMASK, r6
100018c6:	bd70      	pop	{r4, r5, r6, pc}
100018c8:	d0000124 	.word	0xd0000124
100018cc:	e000ed00 	.word	0xe000ed00
100018d0:	100001c1 	.word	0x100001c1

100018d4 <irq_add_shared_handler>:
100018d4:	b5f0      	push	{r4, r5, r6, r7, lr}
100018d6:	4657      	mov	r7, sl
100018d8:	464e      	mov	r6, r9
100018da:	46de      	mov	lr, fp
100018dc:	4645      	mov	r5, r8
100018de:	b5e0      	push	{r5, r6, r7, lr}
100018e0:	b085      	sub	sp, #20
100018e2:	0006      	movs	r6, r0
100018e4:	9100      	str	r1, [sp, #0]
100018e6:	0017      	movs	r7, r2
100018e8:	f3ef 8b10 	mrs	fp, PRIMASK
100018ec:	b672      	cpsid	i
100018ee:	4a6a      	ldr	r2, [pc, #424]	@ (10001a98 <irq_add_shared_handler+0x1c4>)
100018f0:	6813      	ldr	r3, [r2, #0]
100018f2:	2b00      	cmp	r3, #0
100018f4:	d0fc      	beq.n	100018f0 <irq_add_shared_handler+0x1c>
100018f6:	f3bf 8f5f 	dmb	sy
100018fa:	2500      	movs	r5, #0
100018fc:	4b67      	ldr	r3, [pc, #412]	@ (10001a9c <irq_add_shared_handler+0x1c8>)
100018fe:	575d      	ldrsb	r5, [r3, r5]
10001900:	469a      	mov	sl, r3
10001902:	2d00      	cmp	r5, #0
10001904:	da00      	bge.n	10001908 <irq_add_shared_handler+0x34>
10001906:	e0a9      	b.n	10001a5c <irq_add_shared_handler+0x188>
10001908:	006b      	lsls	r3, r5, #1
1000190a:	4c65      	ldr	r4, [pc, #404]	@ (10001aa0 <irq_add_shared_handler+0x1cc>)
1000190c:	9301      	str	r3, [sp, #4]
1000190e:	195b      	adds	r3, r3, r5
10001910:	009b      	lsls	r3, r3, #2
10001912:	4698      	mov	r8, r3
10001914:	46a1      	mov	r9, r4
10001916:	44c1      	add	r9, r8
10001918:	464b      	mov	r3, r9
1000191a:	4652      	mov	r2, sl
1000191c:	799b      	ldrb	r3, [r3, #6]
1000191e:	3610      	adds	r6, #16
10001920:	7013      	strb	r3, [r2, #0]
10001922:	4b60      	ldr	r3, [pc, #384]	@ (10001aa4 <irq_add_shared_handler+0x1d0>)
10001924:	00b6      	lsls	r6, r6, #2
10001926:	689b      	ldr	r3, [r3, #8]
10001928:	5999      	ldr	r1, [r3, r6]
1000192a:	1b0b      	subs	r3, r1, r4
1000192c:	2b2f      	cmp	r3, #47	@ 0x2f
1000192e:	d933      	bls.n	10001998 <irq_add_shared_handler+0xc4>
10001930:	4b5d      	ldr	r3, [pc, #372]	@ (10001aa8 <irq_add_shared_handler+0x1d4>)
10001932:	4299      	cmp	r1, r3
10001934:	d000      	beq.n	10001938 <irq_add_shared_handler+0x64>
10001936:	e0ac      	b.n	10001a92 <irq_add_shared_handler+0x1be>
10001938:	9b01      	ldr	r3, [sp, #4]
1000193a:	4642      	mov	r2, r8
1000193c:	469c      	mov	ip, r3
1000193e:	4b5b      	ldr	r3, [pc, #364]	@ (10001aac <irq_add_shared_handler+0x1d8>)
10001940:	4465      	add	r5, ip
10001942:	00ad      	lsls	r5, r5, #2
10001944:	5363      	strh	r3, [r4, r5]
10001946:	4b5a      	ldr	r3, [pc, #360]	@ (10001ab0 <irq_add_shared_handler+0x1dc>)
10001948:	3202      	adds	r2, #2
1000194a:	18a2      	adds	r2, r4, r2
1000194c:	3b04      	subs	r3, #4
1000194e:	1a9b      	subs	r3, r3, r2
10001950:	051b      	lsls	r3, r3, #20
10001952:	4a58      	ldr	r2, [pc, #352]	@ (10001ab4 <irq_add_shared_handler+0x1e0>)
10001954:	0d5b      	lsrs	r3, r3, #21
10001956:	1965      	adds	r5, r4, r5
10001958:	4313      	orrs	r3, r2
1000195a:	806b      	strh	r3, [r5, #2]
1000195c:	4b56      	ldr	r3, [pc, #344]	@ (10001ab8 <irq_add_shared_handler+0x1e4>)
1000195e:	2101      	movs	r1, #1
10001960:	80ab      	strh	r3, [r5, #4]
10001962:	23ff      	movs	r3, #255	@ 0xff
10001964:	71ab      	strb	r3, [r5, #6]
10001966:	9b00      	ldr	r3, [sp, #0]
10001968:	71ef      	strb	r7, [r5, #7]
1000196a:	60ab      	str	r3, [r5, #8]
1000196c:	464b      	mov	r3, r9
1000196e:	430b      	orrs	r3, r1
10001970:	0019      	movs	r1, r3
10001972:	4b4c      	ldr	r3, [pc, #304]	@ (10001aa4 <irq_add_shared_handler+0x1d0>)
10001974:	689b      	ldr	r3, [r3, #8]
10001976:	5199      	str	r1, [r3, r6]
10001978:	f3bf 8f5f 	dmb	sy
1000197c:	f3bf 8f5f 	dmb	sy
10001980:	2200      	movs	r2, #0
10001982:	4b45      	ldr	r3, [pc, #276]	@ (10001a98 <irq_add_shared_handler+0x1c4>)
10001984:	601a      	str	r2, [r3, #0]
10001986:	f38b 8810 	msr	PRIMASK, fp
1000198a:	b005      	add	sp, #20
1000198c:	bcf0      	pop	{r4, r5, r6, r7}
1000198e:	46bb      	mov	fp, r7
10001990:	46b2      	mov	sl, r6
10001992:	46a9      	mov	r9, r5
10001994:	46a0      	mov	r8, r4
10001996:	bdf0      	pop	{r4, r5, r6, r7, pc}
10001998:	2001      	movs	r0, #1
1000199a:	000a      	movs	r2, r1
1000199c:	4382      	bics	r2, r0
1000199e:	79d3      	ldrb	r3, [r2, #7]
100019a0:	468c      	mov	ip, r1
100019a2:	42bb      	cmp	r3, r7
100019a4:	d831      	bhi.n	10001a0a <irq_add_shared_handler+0x136>
100019a6:	4645      	mov	r5, r8
100019a8:	0013      	movs	r3, r2
100019aa:	4944      	ldr	r1, [pc, #272]	@ (10001abc <irq_add_shared_handler+0x1e8>)
100019ac:	1b1b      	subs	r3, r3, r4
100019ae:	415b      	adcs	r3, r3
100019b0:	4359      	muls	r1, r3
100019b2:	0d09      	lsrs	r1, r1, #20
100019b4:	4b3d      	ldr	r3, [pc, #244]	@ (10001aac <irq_add_shared_handler+0x1d8>)
100019b6:	5363      	strh	r3, [r4, r5]
100019b8:	4b3d      	ldr	r3, [pc, #244]	@ (10001ab0 <irq_add_shared_handler+0x1dc>)
100019ba:	3502      	adds	r5, #2
100019bc:	1965      	adds	r5, r4, r5
100019be:	3b04      	subs	r3, #4
100019c0:	1b5b      	subs	r3, r3, r5
100019c2:	051b      	lsls	r3, r3, #20
100019c4:	4d3b      	ldr	r5, [pc, #236]	@ (10001ab4 <irq_add_shared_handler+0x1e0>)
100019c6:	0d5b      	lsrs	r3, r3, #21
100019c8:	432b      	orrs	r3, r5
100019ca:	46aa      	mov	sl, r5
100019cc:	464d      	mov	r5, r9
100019ce:	806b      	strh	r3, [r5, #2]
100019d0:	2504      	movs	r5, #4
100019d2:	46ac      	mov	ip, r5
100019d4:	4655      	mov	r5, sl
100019d6:	44e0      	add	r8, ip
100019d8:	1f13      	subs	r3, r2, #4
100019da:	4444      	add	r4, r8
100019dc:	1b1b      	subs	r3, r3, r4
100019de:	051b      	lsls	r3, r3, #20
100019e0:	0d5b      	lsrs	r3, r3, #21
100019e2:	431d      	orrs	r5, r3
100019e4:	464b      	mov	r3, r9
100019e6:	7199      	strb	r1, [r3, #6]
100019e8:	9900      	ldr	r1, [sp, #0]
100019ea:	809d      	strh	r5, [r3, #4]
100019ec:	6099      	str	r1, [r3, #8]
100019ee:	4649      	mov	r1, r9
100019f0:	71df      	strb	r7, [r3, #7]
100019f2:	4b33      	ldr	r3, [pc, #204]	@ (10001ac0 <irq_add_shared_handler+0x1ec>)
100019f4:	4301      	orrs	r1, r0
100019f6:	6013      	str	r3, [r2, #0]
100019f8:	e7bb      	b.n	10001972 <irq_add_shared_handler+0x9e>
100019fa:	0058      	lsls	r0, r3, #1
100019fc:	18c0      	adds	r0, r0, r3
100019fe:	0080      	lsls	r0, r0, #2
10001a00:	1820      	adds	r0, r4, r0
10001a02:	79c1      	ldrb	r1, [r0, #7]
10001a04:	42b9      	cmp	r1, r7
10001a06:	d92f      	bls.n	10001a68 <irq_add_shared_handler+0x194>
10001a08:	0002      	movs	r2, r0
10001a0a:	2306      	movs	r3, #6
10001a0c:	56d3      	ldrsb	r3, [r2, r3]
10001a0e:	2b00      	cmp	r3, #0
10001a10:	daf3      	bge.n	100019fa <irq_add_shared_handler+0x126>
10001a12:	9302      	str	r3, [sp, #8]
10001a14:	4b2b      	ldr	r3, [pc, #172]	@ (10001ac4 <irq_add_shared_handler+0x1f0>)
10001a16:	4661      	mov	r1, ip
10001a18:	9303      	str	r3, [sp, #12]
10001a1a:	1d13      	adds	r3, r2, #4
10001a1c:	469a      	mov	sl, r3
10001a1e:	2304      	movs	r3, #4
10001a20:	425b      	negs	r3, r3
10001a22:	469c      	mov	ip, r3
10001a24:	44e1      	add	r9, ip
10001a26:	4650      	mov	r0, sl
10001a28:	464b      	mov	r3, r9
10001a2a:	1a1b      	subs	r3, r3, r0
10001a2c:	051b      	lsls	r3, r3, #20
10001a2e:	0d5b      	lsrs	r3, r3, #21
10001a30:	469c      	mov	ip, r3
10001a32:	4b20      	ldr	r3, [pc, #128]	@ (10001ab4 <irq_add_shared_handler+0x1e0>)
10001a34:	7195      	strb	r5, [r2, #6]
10001a36:	4698      	mov	r8, r3
10001a38:	4663      	mov	r3, ip
10001a3a:	4640      	mov	r0, r8
10001a3c:	4303      	orrs	r3, r0
10001a3e:	8093      	strh	r3, [r2, #4]
10001a40:	9b01      	ldr	r3, [sp, #4]
10001a42:	195a      	adds	r2, r3, r5
10001a44:	0092      	lsls	r2, r2, #2
10001a46:	9b03      	ldr	r3, [sp, #12]
10001a48:	18a4      	adds	r4, r4, r2
10001a4a:	80a3      	strh	r3, [r4, #4]
10001a4c:	9b02      	ldr	r3, [sp, #8]
10001a4e:	4a1c      	ldr	r2, [pc, #112]	@ (10001ac0 <irq_add_shared_handler+0x1ec>)
10001a50:	71a3      	strb	r3, [r4, #6]
10001a52:	9b00      	ldr	r3, [sp, #0]
10001a54:	6022      	str	r2, [r4, #0]
10001a56:	71e7      	strb	r7, [r4, #7]
10001a58:	60a3      	str	r3, [r4, #8]
10001a5a:	e78a      	b.n	10001972 <irq_add_shared_handler+0x9e>
10001a5c:	f000 ff34 	bl	100028c8 <hard_assertion_failure>
10001a60:	2500      	movs	r5, #0
10001a62:	4653      	mov	r3, sl
10001a64:	575d      	ldrsb	r5, [r3, r5]
10001a66:	e74f      	b.n	10001908 <irq_add_shared_handler+0x34>
10001a68:	8890      	ldrh	r0, [r2, #4]
10001a6a:	9302      	str	r3, [sp, #8]
10001a6c:	0540      	lsls	r0, r0, #21
10001a6e:	1d13      	adds	r3, r2, #4
10001a70:	469a      	mov	sl, r3
10001a72:	1503      	asrs	r3, r0, #20
10001a74:	4661      	mov	r1, ip
10001a76:	469c      	mov	ip, r3
10001a78:	4640      	mov	r0, r8
10001a7a:	44d4      	add	ip, sl
10001a7c:	4663      	mov	r3, ip
10001a7e:	3004      	adds	r0, #4
10001a80:	1820      	adds	r0, r4, r0
10001a82:	1a18      	subs	r0, r3, r0
10001a84:	23e0      	movs	r3, #224	@ 0xe0
10001a86:	0500      	lsls	r0, r0, #20
10001a88:	0d40      	lsrs	r0, r0, #21
10001a8a:	021b      	lsls	r3, r3, #8
10001a8c:	4318      	orrs	r0, r3
10001a8e:	9003      	str	r0, [sp, #12]
10001a90:	e7c5      	b.n	10001a1e <irq_add_shared_handler+0x14a>
10001a92:	f000 ff19 	bl	100028c8 <hard_assertion_failure>
10001a96:	e74f      	b.n	10001938 <irq_add_shared_handler+0x64>
10001a98:	d0000124 	.word	0xd0000124
10001a9c:	20001b52 	.word	0x20001b52
10001aa0:	20000e34 	.word	0x20000e34
10001aa4:	e000ed00 	.word	0xe000ed00
10001aa8:	100001c1 	.word	0x100001c1
10001aac:	ffffa100 	.word	0xffffa100
10001ab0:	20000e64 	.word	0x20000e64
10001ab4:	ffffe000 	.word	0xffffe000
10001ab8:	ffffbd01 	.word	0xffffbd01
10001abc:	0000aaaa 	.word	0x0000aaaa
10001ac0:	47804801 	.word	0x47804801
10001ac4:	0000bd01 	.word	0x0000bd01

10001ac8 <irq_remove_handler>:
10001ac8:	b5f0      	push	{r4, r5, r6, r7, lr}
10001aca:	46de      	mov	lr, fp
10001acc:	4657      	mov	r7, sl
10001ace:	464e      	mov	r6, r9
10001ad0:	4645      	mov	r5, r8
10001ad2:	b5e0      	push	{r5, r6, r7, lr}
10001ad4:	000c      	movs	r4, r1
10001ad6:	b083      	sub	sp, #12
10001ad8:	f3ef 8810 	mrs	r8, PRIMASK
10001adc:	b672      	cpsid	i
10001ade:	4a63      	ldr	r2, [pc, #396]	@ (10001c6c <irq_remove_handler+0x1a4>)
10001ae0:	6813      	ldr	r3, [r2, #0]
10001ae2:	2b00      	cmp	r3, #0
10001ae4:	d0fc      	beq.n	10001ae0 <irq_remove_handler+0x18>
10001ae6:	f3bf 8f5f 	dmb	sy
10001aea:	4b61      	ldr	r3, [pc, #388]	@ (10001c70 <irq_remove_handler+0x1a8>)
10001aec:	4961      	ldr	r1, [pc, #388]	@ (10001c74 <irq_remove_handler+0x1ac>)
10001aee:	689a      	ldr	r2, [r3, #8]
10001af0:	0003      	movs	r3, r0
10001af2:	3310      	adds	r3, #16
10001af4:	009f      	lsls	r7, r3, #2
10001af6:	59d5      	ldr	r5, [r2, r7]
10001af8:	9300      	str	r3, [sp, #0]
10001afa:	428d      	cmp	r5, r1
10001afc:	d043      	beq.n	10001b86 <irq_remove_handler+0xbe>
10001afe:	42a5      	cmp	r5, r4
10001b00:	d054      	beq.n	10001bac <irq_remove_handler+0xe4>
10001b02:	4e5d      	ldr	r6, [pc, #372]	@ (10001c78 <irq_remove_handler+0x1b0>)
10001b04:	1baa      	subs	r2, r5, r6
10001b06:	2a2f      	cmp	r2, #47	@ 0x2f
10001b08:	d83d      	bhi.n	10001b86 <irq_remove_handler+0xbe>
10001b0a:	4b5c      	ldr	r3, [pc, #368]	@ (10001c7c <irq_remove_handler+0x1b4>)
10001b0c:	469c      	mov	ip, r3
10001b0e:	681b      	ldr	r3, [r3, #0]
10001b10:	469a      	mov	sl, r3
10001b12:	2301      	movs	r3, #1
10001b14:	001a      	movs	r2, r3
10001b16:	4699      	mov	r9, r3
10001b18:	4082      	lsls	r2, r0
10001b1a:	4653      	mov	r3, sl
10001b1c:	4013      	ands	r3, r2
10001b1e:	221f      	movs	r2, #31
10001b20:	9301      	str	r3, [sp, #4]
10001b22:	464b      	mov	r3, r9
10001b24:	4002      	ands	r2, r0
10001b26:	4093      	lsls	r3, r2
10001b28:	469a      	mov	sl, r3
10001b2a:	2280      	movs	r2, #128	@ 0x80
10001b2c:	4663      	mov	r3, ip
10001b2e:	4650      	mov	r0, sl
10001b30:	5098      	str	r0, [r3, r2]
10001b32:	f3bf 8f5f 	dmb	sy
10001b36:	f3ef 8305 	mrs	r3, IPSR
10001b3a:	469b      	mov	fp, r3
10001b3c:	2b00      	cmp	r3, #0
10001b3e:	d037      	beq.n	10001bb0 <irq_remove_handler+0xe8>
10001b40:	9b00      	ldr	r3, [sp, #0]
10001b42:	455b      	cmp	r3, fp
10001b44:	d001      	beq.n	10001b4a <irq_remove_handler+0x82>
10001b46:	f000 febf 	bl	100028c8 <hard_assertion_failure>
10001b4a:	002a      	movs	r2, r5
10001b4c:	464b      	mov	r3, r9
10001b4e:	439a      	bics	r2, r3
10001b50:	6890      	ldr	r0, [r2, #8]
10001b52:	4284      	cmp	r4, r0
10001b54:	d108      	bne.n	10001b68 <irq_remove_handler+0xa0>
10001b56:	e077      	b.n	10001c48 <irq_remove_handler+0x180>
10001b58:	004b      	lsls	r3, r1, #1
10001b5a:	185b      	adds	r3, r3, r1
10001b5c:	009b      	lsls	r3, r3, #2
10001b5e:	18f3      	adds	r3, r6, r3
10001b60:	6898      	ldr	r0, [r3, #8]
10001b62:	4284      	cmp	r4, r0
10001b64:	d036      	beq.n	10001bd4 <irq_remove_handler+0x10c>
10001b66:	001a      	movs	r2, r3
10001b68:	2106      	movs	r1, #6
10001b6a:	5651      	ldrsb	r1, [r2, r1]
10001b6c:	2900      	cmp	r1, #0
10001b6e:	daf3      	bge.n	10001b58 <irq_remove_handler+0x90>
10001b70:	4284      	cmp	r4, r0
10001b72:	d055      	beq.n	10001c20 <irq_remove_handler+0x158>
10001b74:	9b01      	ldr	r3, [sp, #4]
10001b76:	2b00      	cmp	r3, #0
10001b78:	d027      	beq.n	10001bca <irq_remove_handler+0x102>
10001b7a:	22c0      	movs	r2, #192	@ 0xc0
10001b7c:	4651      	mov	r1, sl
10001b7e:	4b3f      	ldr	r3, [pc, #252]	@ (10001c7c <irq_remove_handler+0x1b4>)
10001b80:	0052      	lsls	r2, r2, #1
10001b82:	5099      	str	r1, [r3, r2]
10001b84:	6019      	str	r1, [r3, #0]
10001b86:	4b3a      	ldr	r3, [pc, #232]	@ (10001c70 <irq_remove_handler+0x1a8>)
10001b88:	689b      	ldr	r3, [r3, #8]
10001b8a:	51dd      	str	r5, [r3, r7]
10001b8c:	f3bf 8f5f 	dmb	sy
10001b90:	f3bf 8f5f 	dmb	sy
10001b94:	2200      	movs	r2, #0
10001b96:	4b35      	ldr	r3, [pc, #212]	@ (10001c6c <irq_remove_handler+0x1a4>)
10001b98:	601a      	str	r2, [r3, #0]
10001b9a:	f388 8810 	msr	PRIMASK, r8
10001b9e:	b003      	add	sp, #12
10001ba0:	bcf0      	pop	{r4, r5, r6, r7}
10001ba2:	46bb      	mov	fp, r7
10001ba4:	46b2      	mov	sl, r6
10001ba6:	46a9      	mov	r9, r5
10001ba8:	46a0      	mov	r8, r4
10001baa:	bdf0      	pop	{r4, r5, r6, r7, pc}
10001bac:	000d      	movs	r5, r1
10001bae:	e7ea      	b.n	10001b86 <irq_remove_handler+0xbe>
10001bb0:	002a      	movs	r2, r5
10001bb2:	464b      	mov	r3, r9
10001bb4:	439a      	bics	r2, r3
10001bb6:	6890      	ldr	r0, [r2, #8]
10001bb8:	4284      	cmp	r4, r0
10001bba:	d1d5      	bne.n	10001b68 <irq_remove_handler+0xa0>
10001bbc:	2006      	movs	r0, #6
10001bbe:	5610      	ldrsb	r0, [r2, r0]
10001bc0:	0013      	movs	r3, r2
10001bc2:	2800      	cmp	r0, #0
10001bc4:	da0a      	bge.n	10001bdc <irq_remove_handler+0x114>
10001bc6:	000d      	movs	r5, r1
10001bc8:	e032      	b.n	10001c30 <irq_remove_handler+0x168>
10001bca:	2380      	movs	r3, #128	@ 0x80
10001bcc:	4651      	mov	r1, sl
10001bce:	4a2b      	ldr	r2, [pc, #172]	@ (10001c7c <irq_remove_handler+0x1b4>)
10001bd0:	50d1      	str	r1, [r2, r3]
10001bd2:	e7d8      	b.n	10001b86 <irq_remove_handler+0xbe>
10001bd4:	2006      	movs	r0, #6
10001bd6:	5618      	ldrsb	r0, [r3, r0]
10001bd8:	2800      	cmp	r0, #0
10001bda:	db22      	blt.n	10001c22 <irq_remove_handler+0x15a>
10001bdc:	0042      	lsls	r2, r0, #1
10001bde:	1811      	adds	r1, r2, r0
10001be0:	0089      	lsls	r1, r1, #2
10001be2:	1874      	adds	r4, r6, r1
10001be4:	4689      	mov	r9, r1
10001be6:	68a1      	ldr	r1, [r4, #8]
10001be8:	6099      	str	r1, [r3, #8]
10001bea:	79e1      	ldrb	r1, [r4, #7]
10001bec:	71d9      	strb	r1, [r3, #7]
10001bee:	2106      	movs	r1, #6
10001bf0:	5661      	ldrsb	r1, [r4, r1]
10001bf2:	7199      	strb	r1, [r3, #6]
10001bf4:	2900      	cmp	r1, #0
10001bf6:	db25      	blt.n	10001c44 <irq_remove_handler+0x17c>
10001bf8:	88a4      	ldrh	r4, [r4, #4]
10001bfa:	1af1      	subs	r1, r6, r3
10001bfc:	0564      	lsls	r4, r4, #21
10001bfe:	1524      	asrs	r4, r4, #20
10001c00:	444c      	add	r4, r9
10001c02:	1909      	adds	r1, r1, r4
10001c04:	24e0      	movs	r4, #224	@ 0xe0
10001c06:	0509      	lsls	r1, r1, #20
10001c08:	0d49      	lsrs	r1, r1, #21
10001c0a:	0224      	lsls	r4, r4, #8
10001c0c:	4321      	orrs	r1, r4
10001c0e:	8099      	strh	r1, [r3, #4]
10001c10:	1813      	adds	r3, r2, r0
10001c12:	4a1b      	ldr	r2, [pc, #108]	@ (10001c80 <irq_remove_handler+0x1b8>)
10001c14:	009b      	lsls	r3, r3, #2
10001c16:	7811      	ldrb	r1, [r2, #0]
10001c18:	18f3      	adds	r3, r6, r3
10001c1a:	7199      	strb	r1, [r3, #6]
10001c1c:	7010      	strb	r0, [r2, #0]
10001c1e:	e7a9      	b.n	10001b74 <irq_remove_handler+0xac>
10001c20:	0013      	movs	r3, r2
10001c22:	4659      	mov	r1, fp
10001c24:	2900      	cmp	r1, #0
10001c26:	d114      	bne.n	10001c52 <irq_remove_handler+0x18a>
10001c28:	31ff      	adds	r1, #255	@ 0xff
10001c2a:	7191      	strb	r1, [r2, #6]
10001c2c:	4915      	ldr	r1, [pc, #84]	@ (10001c84 <irq_remove_handler+0x1bc>)
10001c2e:	8091      	strh	r1, [r2, #4]
10001c30:	4913      	ldr	r1, [pc, #76]	@ (10001c80 <irq_remove_handler+0x1b8>)
10001c32:	780a      	ldrb	r2, [r1, #0]
10001c34:	719a      	strb	r2, [r3, #6]
10001c36:	4a14      	ldr	r2, [pc, #80]	@ (10001c88 <irq_remove_handler+0x1c0>)
10001c38:	1b9b      	subs	r3, r3, r6
10001c3a:	415b      	adcs	r3, r3
10001c3c:	435a      	muls	r2, r3
10001c3e:	0d12      	lsrs	r2, r2, #20
10001c40:	700a      	strb	r2, [r1, #0]
10001c42:	e797      	b.n	10001b74 <irq_remove_handler+0xac>
10001c44:	4911      	ldr	r1, [pc, #68]	@ (10001c8c <irq_remove_handler+0x1c4>)
10001c46:	e7e2      	b.n	10001c0e <irq_remove_handler+0x146>
10001c48:	2006      	movs	r0, #6
10001c4a:	5610      	ldrsb	r0, [r2, r0]
10001c4c:	0013      	movs	r3, r2
10001c4e:	2800      	cmp	r0, #0
10001c50:	dac4      	bge.n	10001bdc <irq_remove_handler+0x114>
10001c52:	4a0f      	ldr	r2, [pc, #60]	@ (10001c90 <irq_remove_handler+0x1c8>)
10001c54:	490f      	ldr	r1, [pc, #60]	@ (10001c94 <irq_remove_handler+0x1cc>)
10001c56:	1ad2      	subs	r2, r2, r3
10001c58:	3a08      	subs	r2, #8
10001c5a:	0250      	lsls	r0, r2, #9
10001c5c:	0d40      	lsrs	r0, r0, #21
10001c5e:	4301      	orrs	r1, r0
10001c60:	8099      	strh	r1, [r3, #4]
10001c62:	490d      	ldr	r1, [pc, #52]	@ (10001c98 <irq_remove_handler+0x1d0>)
10001c64:	0852      	lsrs	r2, r2, #1
10001c66:	430a      	orrs	r2, r1
10001c68:	80da      	strh	r2, [r3, #6]
10001c6a:	e783      	b.n	10001b74 <irq_remove_handler+0xac>
10001c6c:	d0000124 	.word	0xd0000124
10001c70:	e000ed00 	.word	0xe000ed00
10001c74:	100001c1 	.word	0x100001c1
10001c78:	20000e34 	.word	0x20000e34
10001c7c:	e000e100 	.word	0xe000e100
10001c80:	20001b52 	.word	0x20001b52
10001c84:	ffffbd01 	.word	0xffffbd01
10001c88:	0000aaaa 	.word	0x0000aaaa
10001c8c:	0000bd01 	.word	0x0000bd01
10001c90:	20000e6e 	.word	0x20000e6e
10001c94:	fffff000 	.word	0xfffff000
10001c98:	fffff800 	.word	0xfffff800

10001c9c <irq_add_tail_to_free_list>:
10001c9c:	b570      	push	{r4, r5, r6, lr}
10001c9e:	2401      	movs	r4, #1
10001ca0:	4304      	orrs	r4, r0
10001ca2:	f3ef 8105 	mrs	r1, IPSR
10001ca6:	f3ef 8c10 	mrs	ip, PRIMASK
10001caa:	b672      	cpsid	i
10001cac:	4a21      	ldr	r2, [pc, #132]	@ (10001d34 <irq_add_tail_to_free_list+0x98>)
10001cae:	6813      	ldr	r3, [r2, #0]
10001cb0:	2b00      	cmp	r3, #0
10001cb2:	d0fc      	beq.n	10001cae <irq_add_tail_to_free_list+0x12>
10001cb4:	f3bf 8f5f 	dmb	sy
10001cb8:	4b1f      	ldr	r3, [pc, #124]	@ (10001d38 <irq_add_tail_to_free_list+0x9c>)
10001cba:	0005      	movs	r5, r0
10001cbc:	4a1f      	ldr	r2, [pc, #124]	@ (10001d3c <irq_add_tail_to_free_list+0xa0>)
10001cbe:	1aed      	subs	r5, r5, r3
10001cc0:	416d      	adcs	r5, r5
10001cc2:	436a      	muls	r2, r5
10001cc4:	0d12      	lsrs	r2, r2, #20
10001cc6:	4d1e      	ldr	r5, [pc, #120]	@ (10001d40 <irq_add_tail_to_free_list+0xa4>)
10001cc8:	0089      	lsls	r1, r1, #2
10001cca:	68ae      	ldr	r6, [r5, #8]
10001ccc:	b252      	sxtb	r2, r2
10001cce:	5876      	ldr	r6, [r6, r1]
10001cd0:	42a6      	cmp	r6, r4
10001cd2:	d01c      	beq.n	10001d0e <irq_add_tail_to_free_list+0x72>
10001cd4:	2106      	movs	r1, #6
10001cd6:	5659      	ldrsb	r1, [r3, r1]
10001cd8:	4291      	cmp	r1, r2
10001cda:	d01c      	beq.n	10001d16 <irq_add_tail_to_free_list+0x7a>
10001cdc:	2112      	movs	r1, #18
10001cde:	5659      	ldrsb	r1, [r3, r1]
10001ce0:	4291      	cmp	r1, r2
10001ce2:	d022      	beq.n	10001d2a <irq_add_tail_to_free_list+0x8e>
10001ce4:	211e      	movs	r1, #30
10001ce6:	5659      	ldrsb	r1, [r3, r1]
10001ce8:	4291      	cmp	r1, r2
10001cea:	d020      	beq.n	10001d2e <irq_add_tail_to_free_list+0x92>
10001cec:	212a      	movs	r1, #42	@ 0x2a
10001cee:	5659      	ldrsb	r1, [r3, r1]
10001cf0:	2403      	movs	r4, #3
10001cf2:	4291      	cmp	r1, r2
10001cf4:	d010      	beq.n	10001d18 <irq_add_tail_to_free_list+0x7c>
10001cf6:	4b13      	ldr	r3, [pc, #76]	@ (10001d44 <irq_add_tail_to_free_list+0xa8>)
10001cf8:	7819      	ldrb	r1, [r3, #0]
10001cfa:	701a      	strb	r2, [r3, #0]
10001cfc:	7181      	strb	r1, [r0, #6]
10001cfe:	f3bf 8f5f 	dmb	sy
10001d02:	2200      	movs	r2, #0
10001d04:	4b0b      	ldr	r3, [pc, #44]	@ (10001d34 <irq_add_tail_to_free_list+0x98>)
10001d06:	601a      	str	r2, [r3, #0]
10001d08:	f38c 8810 	msr	PRIMASK, ip
10001d0c:	bd70      	pop	{r4, r5, r6, pc}
10001d0e:	68ab      	ldr	r3, [r5, #8]
10001d10:	4c0d      	ldr	r4, [pc, #52]	@ (10001d48 <irq_add_tail_to_free_list+0xac>)
10001d12:	505c      	str	r4, [r3, r1]
10001d14:	e7ef      	b.n	10001cf6 <irq_add_tail_to_free_list+0x5a>
10001d16:	2400      	movs	r4, #0
10001d18:	0061      	lsls	r1, r4, #1
10001d1a:	1909      	adds	r1, r1, r4
10001d1c:	0089      	lsls	r1, r1, #2
10001d1e:	185b      	adds	r3, r3, r1
10001d20:	21ff      	movs	r1, #255	@ 0xff
10001d22:	7199      	strb	r1, [r3, #6]
10001d24:	4909      	ldr	r1, [pc, #36]	@ (10001d4c <irq_add_tail_to_free_list+0xb0>)
10001d26:	8099      	strh	r1, [r3, #4]
10001d28:	e7e5      	b.n	10001cf6 <irq_add_tail_to_free_list+0x5a>
10001d2a:	2401      	movs	r4, #1
10001d2c:	e7f4      	b.n	10001d18 <irq_add_tail_to_free_list+0x7c>
10001d2e:	2402      	movs	r4, #2
10001d30:	e7f2      	b.n	10001d18 <irq_add_tail_to_free_list+0x7c>
10001d32:	46c0      	nop			@ (mov r8, r8)
10001d34:	d0000124 	.word	0xd0000124
10001d38:	20000e34 	.word	0x20000e34
10001d3c:	0000aaaa 	.word	0x0000aaaa
10001d40:	e000ed00 	.word	0xe000ed00
10001d44:	20001b52 	.word	0x20001b52
10001d48:	100001c1 	.word	0x100001c1
10001d4c:	ffffbd01 	.word	0xffffbd01

10001d50 <lock_init>:
10001d50:	4b02      	ldr	r3, [pc, #8]	@ (10001d5c <lock_init+0xc>)
10001d52:	469c      	mov	ip, r3
10001d54:	4461      	add	r1, ip
10001d56:	0089      	lsls	r1, r1, #2
10001d58:	6001      	str	r1, [r0, #0]
10001d5a:	4770      	bx	lr
10001d5c:	34000040 	.word	0x34000040

10001d60 <runtime_init_mutex>:
10001d60:	b570      	push	{r4, r5, r6, lr}
10001d62:	4c11      	ldr	r4, [pc, #68]	@ (10001da8 <runtime_init_mutex+0x48>)
10001d64:	4d11      	ldr	r5, [pc, #68]	@ (10001dac <runtime_init_mutex+0x4c>)
10001d66:	42ac      	cmp	r4, r5
10001d68:	d20f      	bcs.n	10001d8a <runtime_init_mutex+0x2a>
10001d6a:	26ff      	movs	r6, #255	@ 0xff
10001d6c:	6823      	ldr	r3, [r4, #0]
10001d6e:	2b00      	cmp	r3, #0
10001d70:	d00c      	beq.n	10001d8c <runtime_init_mutex+0x2c>
10001d72:	f7ff fd35 	bl	100017e0 <next_striped_spin_lock_num>
10001d76:	0001      	movs	r1, r0
10001d78:	0020      	movs	r0, r4
10001d7a:	f7ff ffe9 	bl	10001d50 <lock_init>
10001d7e:	80a6      	strh	r6, [r4, #4]
10001d80:	f3bf 8f5f 	dmb	sy
10001d84:	3408      	adds	r4, #8
10001d86:	42ac      	cmp	r4, r5
10001d88:	d3f0      	bcc.n	10001d6c <runtime_init_mutex+0xc>
10001d8a:	bd70      	pop	{r4, r5, r6, pc}
10001d8c:	f7ff fd28 	bl	100017e0 <next_striped_spin_lock_num>
10001d90:	0001      	movs	r1, r0
10001d92:	0020      	movs	r0, r4
10001d94:	f7ff ffdc 	bl	10001d50 <lock_init>
10001d98:	7126      	strb	r6, [r4, #4]
10001d9a:	f3bf 8f5f 	dmb	sy
10001d9e:	3408      	adds	r4, #8
10001da0:	42ac      	cmp	r4, r5
10001da2:	d3e3      	bcc.n	10001d6c <runtime_init_mutex+0xc>
10001da4:	e7f1      	b.n	10001d8a <runtime_init_mutex+0x2a>
10001da6:	46c0      	nop			@ (mov r8, r8)
10001da8:	20000ee0 	.word	0x20000ee0
10001dac:	20000ee8 	.word	0x20000ee8

10001db0 <mutex_init>:
10001db0:	b510      	push	{r4, lr}
10001db2:	0004      	movs	r4, r0
10001db4:	f7ff fd14 	bl	100017e0 <next_striped_spin_lock_num>
10001db8:	0001      	movs	r1, r0
10001dba:	0020      	movs	r0, r4
10001dbc:	f7ff ffc8 	bl	10001d50 <lock_init>
10001dc0:	23ff      	movs	r3, #255	@ 0xff
10001dc2:	7123      	strb	r3, [r4, #4]
10001dc4:	f3bf 8f5f 	dmb	sy
10001dc8:	bd10      	pop	{r4, pc}
10001dca:	46c0      	nop			@ (mov r8, r8)

10001dcc <critical_section_init>:
10001dcc:	b510      	push	{r4, lr}
10001dce:	0004      	movs	r4, r0
10001dd0:	2001      	movs	r0, #1
10001dd2:	f7ff fd11 	bl	100017f8 <spin_lock_claim_unused>
10001dd6:	4b03      	ldr	r3, [pc, #12]	@ (10001de4 <critical_section_init+0x18>)
10001dd8:	18c3      	adds	r3, r0, r3
10001dda:	009b      	lsls	r3, r3, #2
10001ddc:	6023      	str	r3, [r4, #0]
10001dde:	f3bf 8f5f 	dmb	sy
10001de2:	bd10      	pop	{r4, pc}
10001de4:	34000040 	.word	0x34000040

10001de8 <sleep_until_callback>:
10001de8:	4b0a      	ldr	r3, [pc, #40]	@ (10001e14 <sleep_until_callback+0x2c>)
10001dea:	6819      	ldr	r1, [r3, #0]
10001dec:	f3ef 8010 	mrs	r0, PRIMASK
10001df0:	b672      	cpsid	i
10001df2:	680a      	ldr	r2, [r1, #0]
10001df4:	2a00      	cmp	r2, #0
10001df6:	d0fc      	beq.n	10001df2 <sleep_until_callback+0xa>
10001df8:	f3bf 8f5f 	dmb	sy
10001dfc:	681b      	ldr	r3, [r3, #0]
10001dfe:	f3bf 8f5f 	dmb	sy
10001e02:	2200      	movs	r2, #0
10001e04:	601a      	str	r2, [r3, #0]
10001e06:	f380 8810 	msr	PRIMASK, r0
10001e0a:	bf40      	sev
10001e0c:	2000      	movs	r0, #0
10001e0e:	2100      	movs	r1, #0
10001e10:	4770      	bx	lr
10001e12:	46c0      	nop			@ (mov r8, r8)
10001e14:	20001b44 	.word	0x20001b44

10001e18 <alarm_pool_irq_handler>:
10001e18:	b5f0      	push	{r4, r5, r6, r7, lr}
10001e1a:	46de      	mov	lr, fp
10001e1c:	4657      	mov	r7, sl
10001e1e:	464e      	mov	r6, r9
10001e20:	4645      	mov	r5, r8
10001e22:	b5e0      	push	{r5, r6, r7, lr}
10001e24:	b083      	sub	sp, #12
10001e26:	f3ef 8205 	mrs	r2, IPSR
10001e2a:	2303      	movs	r3, #3
10001e2c:	4013      	ands	r3, r2
10001e2e:	4ab5      	ldr	r2, [pc, #724]	@ (10002104 <alarm_pool_irq_handler+0x2ec>)
10001e30:	0099      	lsls	r1, r3, #2
10001e32:	5852      	ldr	r2, [r2, r1]
10001e34:	9100      	str	r1, [sp, #0]
10001e36:	4690      	mov	r8, r2
10001e38:	2201      	movs	r2, #1
10001e3a:	409a      	lsls	r2, r3
10001e3c:	4693      	mov	fp, r2
10001e3e:	4bb2      	ldr	r3, [pc, #712]	@ (10002108 <alarm_pool_irq_handler+0x2f0>)
10001e40:	601a      	str	r2, [r3, #0]
10001e42:	4bb2      	ldr	r3, [pc, #712]	@ (1000210c <alarm_pool_irq_handler+0x2f4>)
10001e44:	9301      	str	r3, [sp, #4]
10001e46:	465b      	mov	r3, fp
10001e48:	48b1      	ldr	r0, [pc, #708]	@ (10002110 <alarm_pool_irq_handler+0x2f8>)
10001e4a:	6343      	str	r3, [r0, #52]	@ 0x34
10001e4c:	4643      	mov	r3, r8
10001e4e:	2208      	movs	r2, #8
10001e50:	5e9b      	ldrsh	r3, [r3, r2]
10001e52:	4699      	mov	r9, r3
10001e54:	2b00      	cmp	r3, #0
10001e56:	da3a      	bge.n	10001ece <alarm_pool_irq_handler+0xb6>
10001e58:	4643      	mov	r3, r8
10001e5a:	889b      	ldrh	r3, [r3, #4]
10001e5c:	b21b      	sxth	r3, r3
10001e5e:	2b00      	cmp	r3, #0
10001e60:	db00      	blt.n	10001e64 <alarm_pool_irq_handler+0x4c>
10001e62:	e09d      	b.n	10001fa0 <alarm_pool_irq_handler+0x188>
10001e64:	4643      	mov	r3, r8
10001e66:	799b      	ldrb	r3, [r3, #6]
10001e68:	2b00      	cmp	r3, #0
10001e6a:	d000      	beq.n	10001e6e <alarm_pool_irq_handler+0x56>
10001e6c:	e0e1      	b.n	10002032 <alarm_pool_irq_handler+0x21a>
10001e6e:	4643      	mov	r3, r8
10001e70:	2408      	movs	r4, #8
10001e72:	5f1c      	ldrsh	r4, [r3, r4]
10001e74:	2c00      	cmp	r4, #0
10001e76:	db20      	blt.n	10001eba <alarm_pool_irq_handler+0xa2>
10001e78:	4643      	mov	r3, r8
10001e7a:	695a      	ldr	r2, [r3, #20]
10001e7c:	0063      	lsls	r3, r4, #1
10001e7e:	191b      	adds	r3, r3, r4
10001e80:	00db      	lsls	r3, r3, #3
10001e82:	18d3      	adds	r3, r2, r3
10001e84:	689d      	ldr	r5, [r3, #8]
10001e86:	68dc      	ldr	r4, [r3, #12]
10001e88:	1c6b      	adds	r3, r5, #1
10001e8a:	d100      	bne.n	10001e8e <alarm_pool_irq_handler+0x76>
10001e8c:	e103      	b.n	10002096 <alarm_pool_irq_handler+0x27e>
10001e8e:	48a0      	ldr	r0, [pc, #640]	@ (10002110 <alarm_pool_irq_handler+0x2f8>)
10001e90:	9900      	ldr	r1, [sp, #0]
10001e92:	4684      	mov	ip, r0
10001e94:	4461      	add	r1, ip
10001e96:	6a82      	ldr	r2, [r0, #40]	@ 0x28
10001e98:	690b      	ldr	r3, [r1, #16]
10001e9a:	1aae      	subs	r6, r5, r2
10001e9c:	1a9b      	subs	r3, r3, r2
10001e9e:	429e      	cmp	r6, r3
10001ea0:	d313      	bcc.n	10001eca <alarm_pool_irq_handler+0xb2>
10001ea2:	465a      	mov	r2, fp
10001ea4:	6a03      	ldr	r3, [r0, #32]
10001ea6:	421a      	tst	r2, r3
10001ea8:	d00f      	beq.n	10001eca <alarm_pool_irq_handler+0xb2>
10001eaa:	4899      	ldr	r0, [pc, #612]	@ (10002110 <alarm_pool_irq_handler+0x2f8>)
10001eac:	f000 fb54 	bl	10002558 <timer_time_us_64>
10001eb0:	428c      	cmp	r4, r1
10001eb2:	dc02      	bgt.n	10001eba <alarm_pool_irq_handler+0xa2>
10001eb4:	d1c7      	bne.n	10001e46 <alarm_pool_irq_handler+0x2e>
10001eb6:	4285      	cmp	r5, r0
10001eb8:	d9c5      	bls.n	10001e46 <alarm_pool_irq_handler+0x2e>
10001eba:	bf40      	sev
10001ebc:	b003      	add	sp, #12
10001ebe:	bcf0      	pop	{r4, r5, r6, r7}
10001ec0:	46bb      	mov	fp, r7
10001ec2:	46b2      	mov	sl, r6
10001ec4:	46a9      	mov	r9, r5
10001ec6:	46a0      	mov	r8, r4
10001ec8:	bdf0      	pop	{r4, r5, r6, r7, pc}
10001eca:	610d      	str	r5, [r1, #16]
10001ecc:	e7ed      	b.n	10001eaa <alarm_pool_irq_handler+0x92>
10001ece:	4642      	mov	r2, r8
10001ed0:	6952      	ldr	r2, [r2, #20]
10001ed2:	005b      	lsls	r3, r3, #1
10001ed4:	4692      	mov	sl, r2
10001ed6:	444b      	add	r3, r9
10001ed8:	00db      	lsls	r3, r3, #3
10001eda:	449a      	add	sl, r3
10001edc:	4653      	mov	r3, sl
10001ede:	689e      	ldr	r6, [r3, #8]
10001ee0:	68df      	ldr	r7, [r3, #12]
10001ee2:	f000 fb39 	bl	10002558 <timer_time_us_64>
10001ee6:	428f      	cmp	r7, r1
10001ee8:	dcb6      	bgt.n	10001e58 <alarm_pool_irq_handler+0x40>
10001eea:	d100      	bne.n	10001eee <alarm_pool_irq_handler+0xd6>
10001eec:	e0f8      	b.n	100020e0 <alarm_pool_irq_handler+0x2c8>
10001eee:	2f00      	cmp	r7, #0
10001ef0:	da00      	bge.n	10001ef4 <alarm_pool_irq_handler+0xdc>
10001ef2:	e0d9      	b.n	100020a8 <alarm_pool_irq_handler+0x290>
10001ef4:	4652      	mov	r2, sl
10001ef6:	4653      	mov	r3, sl
10001ef8:	6954      	ldr	r4, [r2, #20]
10001efa:	691b      	ldr	r3, [r3, #16]
10001efc:	9a01      	ldr	r2, [sp, #4]
10001efe:	4293      	cmp	r3, r2
10001f00:	d100      	bne.n	10001f04 <alarm_pool_irq_handler+0xec>
10001f02:	e0cc      	b.n	1000209e <alarm_pool_irq_handler+0x286>
10001f04:	4641      	mov	r1, r8
10001f06:	4652      	mov	r2, sl
10001f08:	2008      	movs	r0, #8
10001f0a:	5e08      	ldrsh	r0, [r1, r0]
10001f0c:	8852      	ldrh	r2, [r2, #2]
10001f0e:	0400      	lsls	r0, r0, #16
10001f10:	0021      	movs	r1, r4
10001f12:	4310      	orrs	r0, r2
10001f14:	4798      	blx	r3
10001f16:	0004      	movs	r4, r0
10001f18:	000d      	movs	r5, r1
10001f1a:	0023      	movs	r3, r4
10001f1c:	432b      	orrs	r3, r5
10001f1e:	d100      	bne.n	10001f22 <alarm_pool_irq_handler+0x10a>
10001f20:	e0c2      	b.n	100020a8 <alarm_pool_irq_handler+0x290>
10001f22:	2d00      	cmp	r5, #0
10001f24:	db00      	blt.n	10001f28 <alarm_pool_irq_handler+0x110>
10001f26:	e0df      	b.n	100020e8 <alarm_pool_irq_handler+0x2d0>
10001f28:	0030      	movs	r0, r6
10001f2a:	0039      	movs	r1, r7
10001f2c:	1b00      	subs	r0, r0, r4
10001f2e:	41a9      	sbcs	r1, r5
10001f30:	4653      	mov	r3, sl
10001f32:	6098      	str	r0, [r3, #8]
10001f34:	60d9      	str	r1, [r3, #12]
10001f36:	2200      	movs	r2, #0
10001f38:	5e9a      	ldrsh	r2, [r3, r2]
10001f3a:	2a00      	cmp	r2, #0
10001f3c:	da00      	bge.n	10001f40 <alarm_pool_irq_handler+0x128>
10001f3e:	e78b      	b.n	10001e58 <alarm_pool_irq_handler+0x40>
10001f40:	4643      	mov	r3, r8
10001f42:	695d      	ldr	r5, [r3, #20]
10001f44:	0053      	lsls	r3, r2, #1
10001f46:	189c      	adds	r4, r3, r2
10001f48:	00e4      	lsls	r4, r4, #3
10001f4a:	192c      	adds	r4, r5, r4
10001f4c:	68a7      	ldr	r7, [r4, #8]
10001f4e:	68e4      	ldr	r4, [r4, #12]
10001f50:	428c      	cmp	r4, r1
10001f52:	dd00      	ble.n	10001f56 <alarm_pool_irq_handler+0x13e>
10001f54:	e780      	b.n	10001e58 <alarm_pool_irq_handler+0x40>
10001f56:	d102      	bne.n	10001f5e <alarm_pool_irq_handler+0x146>
10001f58:	4287      	cmp	r7, r0
10001f5a:	d900      	bls.n	10001f5e <alarm_pool_irq_handler+0x146>
10001f5c:	e77c      	b.n	10001e58 <alarm_pool_irq_handler+0x40>
10001f5e:	4646      	mov	r6, r8
10001f60:	8132      	strh	r2, [r6, #8]
10001f62:	3608      	adds	r6, #8
10001f64:	e00d      	b.n	10001f82 <alarm_pool_irq_handler+0x16a>
10001f66:	428c      	cmp	r4, r1
10001f68:	d100      	bne.n	10001f6c <alarm_pool_irq_handler+0x154>
10001f6a:	e0c6      	b.n	100020fa <alarm_pool_irq_handler+0x2e2>
10001f6c:	001e      	movs	r6, r3
10001f6e:	2300      	movs	r3, #0
10001f70:	5ef2      	ldrsh	r2, [r6, r3]
10001f72:	2a00      	cmp	r2, #0
10001f74:	db0a      	blt.n	10001f8c <alarm_pool_irq_handler+0x174>
10001f76:	0053      	lsls	r3, r2, #1
10001f78:	189c      	adds	r4, r3, r2
10001f7a:	00e4      	lsls	r4, r4, #3
10001f7c:	192c      	adds	r4, r5, r4
10001f7e:	68a7      	ldr	r7, [r4, #8]
10001f80:	68e4      	ldr	r4, [r4, #12]
10001f82:	189b      	adds	r3, r3, r2
10001f84:	00db      	lsls	r3, r3, #3
10001f86:	18eb      	adds	r3, r5, r3
10001f88:	428c      	cmp	r4, r1
10001f8a:	ddec      	ble.n	10001f66 <alarm_pool_irq_handler+0x14e>
10001f8c:	4653      	mov	r3, sl
10001f8e:	801a      	strh	r2, [r3, #0]
10001f90:	464b      	mov	r3, r9
10001f92:	8033      	strh	r3, [r6, #0]
10001f94:	4643      	mov	r3, r8
10001f96:	889b      	ldrh	r3, [r3, #4]
10001f98:	b21b      	sxth	r3, r3
10001f9a:	2b00      	cmp	r3, #0
10001f9c:	da00      	bge.n	10001fa0 <alarm_pool_irq_handler+0x188>
10001f9e:	e761      	b.n	10001e64 <alarm_pool_irq_handler+0x4c>
10001fa0:	4643      	mov	r3, r8
10001fa2:	691a      	ldr	r2, [r3, #16]
10001fa4:	f3ef 8110 	mrs	r1, PRIMASK
10001fa8:	b672      	cpsid	i
10001faa:	6813      	ldr	r3, [r2, #0]
10001fac:	2b00      	cmp	r3, #0
10001fae:	d0fc      	beq.n	10001faa <alarm_pool_irq_handler+0x192>
10001fb0:	f3bf 8f5f 	dmb	sy
10001fb4:	4643      	mov	r3, r8
10001fb6:	889e      	ldrh	r6, [r3, #4]
10001fb8:	2301      	movs	r3, #1
10001fba:	4642      	mov	r2, r8
10001fbc:	425b      	negs	r3, r3
10001fbe:	8093      	strh	r3, [r2, #4]
10001fc0:	b236      	sxth	r6, r6
10001fc2:	6913      	ldr	r3, [r2, #16]
10001fc4:	f3bf 8f5f 	dmb	sy
10001fc8:	2200      	movs	r2, #0
10001fca:	601a      	str	r2, [r3, #0]
10001fcc:	f381 8810 	msr	PRIMASK, r1
10001fd0:	2e00      	cmp	r6, #0
10001fd2:	da00      	bge.n	10001fd6 <alarm_pool_irq_handler+0x1be>
10001fd4:	e746      	b.n	10001e64 <alarm_pool_irq_handler+0x4c>
10001fd6:	4643      	mov	r3, r8
10001fd8:	695d      	ldr	r5, [r3, #20]
10001fda:	3308      	adds	r3, #8
10001fdc:	4642      	mov	r2, r8
10001fde:	469c      	mov	ip, r3
10001fe0:	0077      	lsls	r7, r6, #1
10001fe2:	19bf      	adds	r7, r7, r6
10001fe4:	00ff      	lsls	r7, r7, #3
10001fe6:	19ef      	adds	r7, r5, r7
10001fe8:	68bb      	ldr	r3, [r7, #8]
10001fea:	4660      	mov	r0, ip
10001fec:	4698      	mov	r8, r3
10001fee:	2308      	movs	r3, #8
10001ff0:	5ed1      	ldrsh	r1, [r2, r3]
10001ff2:	4692      	mov	sl, r2
10001ff4:	68fc      	ldr	r4, [r7, #12]
10001ff6:	2900      	cmp	r1, #0
10001ff8:	da07      	bge.n	1000200a <alarm_pool_irq_handler+0x1f2>
10001ffa:	e00e      	b.n	1000201a <alarm_pool_irq_handler+0x202>
10001ffc:	42a2      	cmp	r2, r4
10001ffe:	d046      	beq.n	1000208e <alarm_pool_irq_handler+0x276>
10002000:	0018      	movs	r0, r3
10002002:	2300      	movs	r3, #0
10002004:	5ec1      	ldrsh	r1, [r0, r3]
10002006:	2900      	cmp	r1, #0
10002008:	db06      	blt.n	10002018 <alarm_pool_irq_handler+0x200>
1000200a:	004b      	lsls	r3, r1, #1
1000200c:	185b      	adds	r3, r3, r1
1000200e:	00db      	lsls	r3, r3, #3
10002010:	18eb      	adds	r3, r5, r3
10002012:	68da      	ldr	r2, [r3, #12]
10002014:	42a2      	cmp	r2, r4
10002016:	ddf1      	ble.n	10001ffc <alarm_pool_irq_handler+0x1e4>
10002018:	4652      	mov	r2, sl
1000201a:	8006      	strh	r6, [r0, #0]
1000201c:	2300      	movs	r3, #0
1000201e:	5efe      	ldrsh	r6, [r7, r3]
10002020:	8039      	strh	r1, [r7, #0]
10002022:	2e00      	cmp	r6, #0
10002024:	dadc      	bge.n	10001fe0 <alarm_pool_irq_handler+0x1c8>
10002026:	4690      	mov	r8, r2
10002028:	4643      	mov	r3, r8
1000202a:	799b      	ldrb	r3, [r3, #6]
1000202c:	2b00      	cmp	r3, #0
1000202e:	d100      	bne.n	10002032 <alarm_pool_irq_handler+0x21a>
10002030:	e71d      	b.n	10001e6e <alarm_pool_irq_handler+0x56>
10002032:	2300      	movs	r3, #0
10002034:	4642      	mov	r2, r8
10002036:	7193      	strb	r3, [r2, #6]
10002038:	4643      	mov	r3, r8
1000203a:	4646      	mov	r6, r8
1000203c:	2108      	movs	r1, #8
1000203e:	5e59      	ldrsh	r1, [r3, r1]
10002040:	3608      	adds	r6, #8
10002042:	1c4b      	adds	r3, r1, #1
10002044:	d100      	bne.n	10002048 <alarm_pool_irq_handler+0x230>
10002046:	e738      	b.n	10001eba <alarm_pool_irq_handler+0xa2>
10002048:	4647      	mov	r7, r8
1000204a:	4689      	mov	r9, r1
1000204c:	6955      	ldr	r5, [r2, #20]
1000204e:	e002      	b.n	10002056 <alarm_pool_irq_handler+0x23e>
10002050:	0006      	movs	r6, r0
10002052:	1c4b      	adds	r3, r1, #1
10002054:	d018      	beq.n	10002088 <alarm_pool_irq_handler+0x270>
10002056:	004b      	lsls	r3, r1, #1
10002058:	185b      	adds	r3, r3, r1
1000205a:	00db      	lsls	r3, r3, #3
1000205c:	18e8      	adds	r0, r5, r3
1000205e:	000a      	movs	r2, r1
10002060:	468c      	mov	ip, r1
10002062:	5ee9      	ldrsh	r1, [r5, r3]
10002064:	8843      	ldrh	r3, [r0, #2]
10002066:	b21b      	sxth	r3, r3
10002068:	2b00      	cmp	r3, #0
1000206a:	daf1      	bge.n	10002050 <alarm_pool_irq_handler+0x238>
1000206c:	2301      	movs	r3, #1
1000206e:	425b      	negs	r3, r3
10002070:	17dc      	asrs	r4, r3, #31
10002072:	6083      	str	r3, [r0, #8]
10002074:	60c4      	str	r4, [r0, #12]
10002076:	454a      	cmp	r2, r9
10002078:	d003      	beq.n	10002082 <alarm_pool_irq_handler+0x26a>
1000207a:	8031      	strh	r1, [r6, #0]
1000207c:	893b      	ldrh	r3, [r7, #8]
1000207e:	8003      	strh	r3, [r0, #0]
10002080:	813a      	strh	r2, [r7, #8]
10002082:	46e1      	mov	r9, ip
10002084:	1c4b      	adds	r3, r1, #1
10002086:	d1e6      	bne.n	10002056 <alarm_pool_irq_handler+0x23e>
10002088:	46b8      	mov	r8, r7
1000208a:	464c      	mov	r4, r9
1000208c:	e6f2      	b.n	10001e74 <alarm_pool_irq_handler+0x5c>
1000208e:	689a      	ldr	r2, [r3, #8]
10002090:	4542      	cmp	r2, r8
10002092:	d9b5      	bls.n	10002000 <alarm_pool_irq_handler+0x1e8>
10002094:	e7c0      	b.n	10002018 <alarm_pool_irq_handler+0x200>
10002096:	1c63      	adds	r3, r4, #1
10002098:	d000      	beq.n	1000209c <alarm_pool_irq_handler+0x284>
1000209a:	e6f8      	b.n	10001e8e <alarm_pool_irq_handler+0x76>
1000209c:	e705      	b.n	10001eaa <alarm_pool_irq_handler+0x92>
1000209e:	0020      	movs	r0, r4
100020a0:	6923      	ldr	r3, [r4, #16]
100020a2:	4798      	blx	r3
100020a4:	2800      	cmp	r0, #0
100020a6:	d125      	bne.n	100020f4 <alarm_pool_irq_handler+0x2dc>
100020a8:	4653      	mov	r3, sl
100020aa:	4642      	mov	r2, r8
100020ac:	881b      	ldrh	r3, [r3, #0]
100020ae:	8113      	strh	r3, [r2, #8]
100020b0:	6912      	ldr	r2, [r2, #16]
100020b2:	f3ef 8310 	mrs	r3, PRIMASK
100020b6:	b672      	cpsid	i
100020b8:	6811      	ldr	r1, [r2, #0]
100020ba:	2900      	cmp	r1, #0
100020bc:	d0fc      	beq.n	100020b8 <alarm_pool_irq_handler+0x2a0>
100020be:	f3bf 8f5f 	dmb	sy
100020c2:	4642      	mov	r2, r8
100020c4:	4651      	mov	r1, sl
100020c6:	8852      	ldrh	r2, [r2, #2]
100020c8:	800a      	strh	r2, [r1, #0]
100020ca:	4642      	mov	r2, r8
100020cc:	4649      	mov	r1, r9
100020ce:	8051      	strh	r1, [r2, #2]
100020d0:	6912      	ldr	r2, [r2, #16]
100020d2:	f3bf 8f5f 	dmb	sy
100020d6:	2100      	movs	r1, #0
100020d8:	6011      	str	r1, [r2, #0]
100020da:	f383 8810 	msr	PRIMASK, r3
100020de:	e6bb      	b.n	10001e58 <alarm_pool_irq_handler+0x40>
100020e0:	4286      	cmp	r6, r0
100020e2:	d800      	bhi.n	100020e6 <alarm_pool_irq_handler+0x2ce>
100020e4:	e703      	b.n	10001eee <alarm_pool_irq_handler+0xd6>
100020e6:	e6b7      	b.n	10001e58 <alarm_pool_irq_handler+0x40>
100020e8:	4809      	ldr	r0, [pc, #36]	@ (10002110 <alarm_pool_irq_handler+0x2f8>)
100020ea:	f000 fa35 	bl	10002558 <timer_time_us_64>
100020ee:	1900      	adds	r0, r0, r4
100020f0:	4169      	adcs	r1, r5
100020f2:	e71d      	b.n	10001f30 <alarm_pool_irq_handler+0x118>
100020f4:	6865      	ldr	r5, [r4, #4]
100020f6:	6824      	ldr	r4, [r4, #0]
100020f8:	e70f      	b.n	10001f1a <alarm_pool_irq_handler+0x102>
100020fa:	4287      	cmp	r7, r0
100020fc:	d800      	bhi.n	10002100 <alarm_pool_irq_handler+0x2e8>
100020fe:	e735      	b.n	10001f6c <alarm_pool_irq_handler+0x154>
10002100:	e744      	b.n	10001f8c <alarm_pool_irq_handler+0x174>
10002102:	46c0      	nop			@ (mov r8, r8)
10002104:	20001b28 	.word	0x20001b28
10002108:	4005703c 	.word	0x4005703c
1000210c:	10001e19 	.word	0x10001e19
10002110:	40054000 	.word	0x40054000

10002114 <runtime_init_default_alarm_pool>:
10002114:	b570      	push	{r4, r5, r6, lr}
10002116:	4c2e      	ldr	r4, [pc, #184]	@ (100021d0 <runtime_init_default_alarm_pool+0xbc>)
10002118:	6925      	ldr	r5, [r4, #16]
1000211a:	2d00      	cmp	r5, #0
1000211c:	d004      	beq.n	10002128 <runtime_init_default_alarm_pool+0x14>
1000211e:	210a      	movs	r1, #10
10002120:	482c      	ldr	r0, [pc, #176]	@ (100021d4 <runtime_init_default_alarm_pool+0xc0>)
10002122:	f7ff fe15 	bl	10001d50 <lock_init>
10002126:	bd70      	pop	{r4, r5, r6, pc}
10002128:	4e2b      	ldr	r6, [pc, #172]	@ (100021d8 <runtime_init_default_alarm_pool+0xc4>)
1000212a:	2103      	movs	r1, #3
1000212c:	0030      	movs	r0, r6
1000212e:	f000 fa09 	bl	10002544 <timer_hardware_alarm_claim>
10002132:	60e6      	str	r6, [r4, #12]
10002134:	f7ff fb54 	bl	100017e0 <next_striped_spin_lock_num>
10002138:	4b28      	ldr	r3, [pc, #160]	@ (100021dc <runtime_init_default_alarm_pool+0xc8>)
1000213a:	2203      	movs	r2, #3
1000213c:	469c      	mov	ip, r3
1000213e:	23d0      	movs	r3, #208	@ 0xd0
10002140:	7022      	strb	r2, [r4, #0]
10002142:	061b      	lsls	r3, r3, #24
10002144:	681b      	ldr	r3, [r3, #0]
10002146:	2101      	movs	r1, #1
10002148:	7063      	strb	r3, [r4, #1]
1000214a:	4b25      	ldr	r3, [pc, #148]	@ (100021e0 <runtime_init_default_alarm_pool+0xcc>)
1000214c:	4460      	add	r0, ip
1000214e:	60a3      	str	r3, [r4, #8]
10002150:	230f      	movs	r3, #15
10002152:	0080      	lsls	r0, r0, #2
10002154:	6120      	str	r0, [r4, #16]
10002156:	2002      	movs	r0, #2
10002158:	8063      	strh	r3, [r4, #2]
1000215a:	6963      	ldr	r3, [r4, #20]
1000215c:	4249      	negs	r1, r1
1000215e:	80a1      	strh	r1, [r4, #4]
10002160:	8019      	strh	r1, [r3, #0]
10002162:	3102      	adds	r1, #2
10002164:	8619      	strh	r1, [r3, #48]	@ 0x30
10002166:	3147      	adds	r1, #71	@ 0x47
10002168:	831d      	strh	r5, [r3, #24]
1000216a:	5258      	strh	r0, [r3, r1]
1000216c:	3118      	adds	r1, #24
1000216e:	525a      	strh	r2, [r3, r1]
10002170:	3275      	adds	r2, #117	@ 0x75
10002172:	395c      	subs	r1, #92	@ 0x5c
10002174:	5299      	strh	r1, [r3, r2]
10002176:	3218      	adds	r2, #24
10002178:	3101      	adds	r1, #1
1000217a:	5299      	strh	r1, [r3, r2]
1000217c:	3218      	adds	r2, #24
1000217e:	3101      	adds	r1, #1
10002180:	5299      	strh	r1, [r3, r2]
10002182:	3218      	adds	r2, #24
10002184:	3101      	adds	r1, #1
10002186:	5299      	strh	r1, [r3, r2]
10002188:	3508      	adds	r5, #8
1000218a:	3218      	adds	r2, #24
1000218c:	529d      	strh	r5, [r3, r2]
1000218e:	3102      	adds	r1, #2
10002190:	3218      	adds	r2, #24
10002192:	5299      	strh	r1, [r3, r2]
10002194:	3218      	adds	r2, #24
10002196:	3101      	adds	r1, #1
10002198:	5299      	strh	r1, [r3, r2]
1000219a:	3218      	adds	r2, #24
1000219c:	3101      	adds	r1, #1
1000219e:	5299      	strh	r1, [r3, r2]
100021a0:	3218      	adds	r2, #24
100021a2:	3101      	adds	r1, #1
100021a4:	5299      	strh	r1, [r3, r2]
100021a6:	3218      	adds	r2, #24
100021a8:	3101      	adds	r1, #1
100021aa:	5299      	strh	r1, [r3, r2]
100021ac:	3218      	adds	r2, #24
100021ae:	3101      	adds	r1, #1
100021b0:	5299      	strh	r1, [r3, r2]
100021b2:	4b0c      	ldr	r3, [pc, #48]	@ (100021e4 <runtime_init_default_alarm_pool+0xd0>)
100021b4:	490c      	ldr	r1, [pc, #48]	@ (100021e8 <runtime_init_default_alarm_pool+0xd4>)
100021b6:	60dc      	str	r4, [r3, #12]
100021b8:	3001      	adds	r0, #1
100021ba:	6235      	str	r5, [r6, #32]
100021bc:	f7ff fb60 	bl	10001880 <irq_set_exclusive_handler>
100021c0:	2101      	movs	r1, #1
100021c2:	2003      	movs	r0, #3
100021c4:	f7ff fb4a 	bl	1000185c <irq_set_enabled>
100021c8:	4b08      	ldr	r3, [pc, #32]	@ (100021ec <runtime_init_default_alarm_pool+0xd8>)
100021ca:	601d      	str	r5, [r3, #0]
100021cc:	e7a7      	b.n	1000211e <runtime_init_default_alarm_pool+0xa>
100021ce:	46c0      	nop			@ (mov r8, r8)
100021d0:	20000e7c 	.word	0x20000e7c
100021d4:	20001b44 	.word	0x20001b44
100021d8:	40054000 	.word	0x40054000
100021dc:	34000040 	.word	0x34000040
100021e0:	0010ffff 	.word	0x0010ffff
100021e4:	20001b28 	.word	0x20001b28
100021e8:	10001e19 	.word	0x10001e19
100021ec:	40056038 	.word	0x40056038

100021f0 <alarm_pool_add_alarm_at_force_in_context>:
100021f0:	b570      	push	{r4, r5, r6, lr}
100021f2:	0001      	movs	r1, r0
100021f4:	6904      	ldr	r4, [r0, #16]
100021f6:	f3ef 8c10 	mrs	ip, PRIMASK
100021fa:	b672      	cpsid	i
100021fc:	6820      	ldr	r0, [r4, #0]
100021fe:	2800      	cmp	r0, #0
10002200:	d0fc      	beq.n	100021fc <alarm_pool_add_alarm_at_force_in_context+0xc>
10002202:	f3bf 8f5f 	dmb	sy
10002206:	2002      	movs	r0, #2
10002208:	5e0d      	ldrsh	r5, [r1, r0]
1000220a:	694c      	ldr	r4, [r1, #20]
1000220c:	0068      	lsls	r0, r5, #1
1000220e:	1940      	adds	r0, r0, r5
10002210:	00c0      	lsls	r0, r0, #3
10002212:	1824      	adds	r4, r4, r0
10002214:	2d00      	cmp	r5, #0
10002216:	db37      	blt.n	10002288 <alarm_pool_add_alarm_at_force_in_context+0x98>
10002218:	8820      	ldrh	r0, [r4, #0]
1000221a:	8048      	strh	r0, [r1, #2]
1000221c:	6908      	ldr	r0, [r1, #16]
1000221e:	f3bf 8f5f 	dmb	sy
10002222:	2600      	movs	r6, #0
10002224:	6006      	str	r6, [r0, #0]
10002226:	f38c 8810 	msr	PRIMASK, ip
1000222a:	60e3      	str	r3, [r4, #12]
1000222c:	8863      	ldrh	r3, [r4, #2]
1000222e:	9804      	ldr	r0, [sp, #16]
10002230:	3301      	adds	r3, #1
10002232:	6120      	str	r0, [r4, #16]
10002234:	045b      	lsls	r3, r3, #17
10002236:	9805      	ldr	r0, [sp, #20]
10002238:	0c5b      	lsrs	r3, r3, #17
1000223a:	60a2      	str	r2, [r4, #8]
1000223c:	6160      	str	r0, [r4, #20]
1000223e:	1c1a      	adds	r2, r3, #0
10002240:	2b00      	cmp	r3, #0
10002242:	d01f      	beq.n	10002284 <alarm_pool_add_alarm_at_force_in_context+0x94>
10002244:	b293      	uxth	r3, r2
10002246:	0428      	lsls	r0, r5, #16
10002248:	8062      	strh	r2, [r4, #2]
1000224a:	4318      	orrs	r0, r3
1000224c:	690a      	ldr	r2, [r1, #16]
1000224e:	f3ef 8c10 	mrs	ip, PRIMASK
10002252:	b672      	cpsid	i
10002254:	6813      	ldr	r3, [r2, #0]
10002256:	2b00      	cmp	r3, #0
10002258:	d0fc      	beq.n	10002254 <alarm_pool_add_alarm_at_force_in_context+0x64>
1000225a:	f3bf 8f5f 	dmb	sy
1000225e:	888b      	ldrh	r3, [r1, #4]
10002260:	8023      	strh	r3, [r4, #0]
10002262:	808d      	strh	r5, [r1, #4]
10002264:	690b      	ldr	r3, [r1, #16]
10002266:	f3bf 8f5f 	dmb	sy
1000226a:	2200      	movs	r2, #0
1000226c:	601a      	str	r2, [r3, #0]
1000226e:	f38c 8810 	msr	PRIMASK, ip
10002272:	780b      	ldrb	r3, [r1, #0]
10002274:	3201      	adds	r2, #1
10002276:	409a      	lsls	r2, r3
10002278:	68cb      	ldr	r3, [r1, #12]
1000227a:	4908      	ldr	r1, [pc, #32]	@ (1000229c <alarm_pool_add_alarm_at_force_in_context+0xac>)
1000227c:	468c      	mov	ip, r1
1000227e:	4463      	add	r3, ip
10002280:	601a      	str	r2, [r3, #0]
10002282:	bd70      	pop	{r4, r5, r6, pc}
10002284:	2201      	movs	r2, #1
10002286:	e7dd      	b.n	10002244 <alarm_pool_add_alarm_at_force_in_context+0x54>
10002288:	690b      	ldr	r3, [r1, #16]
1000228a:	f3bf 8f5f 	dmb	sy
1000228e:	2200      	movs	r2, #0
10002290:	601a      	str	r2, [r3, #0]
10002292:	f38c 8810 	msr	PRIMASK, ip
10002296:	2001      	movs	r0, #1
10002298:	4240      	negs	r0, r0
1000229a:	e7f2      	b.n	10002282 <alarm_pool_add_alarm_at_force_in_context+0x92>
1000229c:	0000203c 	.word	0x0000203c

100022a0 <alarm_pool_cancel_alarm>:
100022a0:	b510      	push	{r4, lr}
100022a2:	8943      	ldrh	r3, [r0, #10]
100022a4:	140a      	asrs	r2, r1, #16
100022a6:	4293      	cmp	r3, r2
100022a8:	dd1a      	ble.n	100022e0 <alarm_pool_cancel_alarm+0x40>
100022aa:	0053      	lsls	r3, r2, #1
100022ac:	189b      	adds	r3, r3, r2
100022ae:	6942      	ldr	r2, [r0, #20]
100022b0:	00db      	lsls	r3, r3, #3
100022b2:	18d3      	adds	r3, r2, r3
100022b4:	6904      	ldr	r4, [r0, #16]
100022b6:	f3ef 8c10 	mrs	ip, PRIMASK
100022ba:	b672      	cpsid	i
100022bc:	6822      	ldr	r2, [r4, #0]
100022be:	2a00      	cmp	r2, #0
100022c0:	d0fc      	beq.n	100022bc <alarm_pool_cancel_alarm+0x1c>
100022c2:	f3bf 8f5f 	dmb	sy
100022c6:	885a      	ldrh	r2, [r3, #2]
100022c8:	0409      	lsls	r1, r1, #16
100022ca:	b294      	uxth	r4, r2
100022cc:	0c09      	lsrs	r1, r1, #16
100022ce:	428a      	cmp	r2, r1
100022d0:	d008      	beq.n	100022e4 <alarm_pool_cancel_alarm+0x44>
100022d2:	6903      	ldr	r3, [r0, #16]
100022d4:	f3bf 8f5f 	dmb	sy
100022d8:	2200      	movs	r2, #0
100022da:	601a      	str	r2, [r3, #0]
100022dc:	f38c 8810 	msr	PRIMASK, ip
100022e0:	2000      	movs	r0, #0
100022e2:	bd10      	pop	{r4, pc}
100022e4:	2280      	movs	r2, #128	@ 0x80
100022e6:	0212      	lsls	r2, r2, #8
100022e8:	4314      	orrs	r4, r2
100022ea:	805c      	strh	r4, [r3, #2]
100022ec:	2301      	movs	r3, #1
100022ee:	6902      	ldr	r2, [r0, #16]
100022f0:	7183      	strb	r3, [r0, #6]
100022f2:	f3bf 8f5f 	dmb	sy
100022f6:	2100      	movs	r1, #0
100022f8:	6011      	str	r1, [r2, #0]
100022fa:	f38c 8810 	msr	PRIMASK, ip
100022fe:	4904      	ldr	r1, [pc, #16]	@ (10002310 <alarm_pool_cancel_alarm+0x70>)
10002300:	7802      	ldrb	r2, [r0, #0]
10002302:	468c      	mov	ip, r1
10002304:	4093      	lsls	r3, r2
10002306:	68c2      	ldr	r2, [r0, #12]
10002308:	2001      	movs	r0, #1
1000230a:	4462      	add	r2, ip
1000230c:	6013      	str	r3, [r2, #0]
1000230e:	e7e8      	b.n	100022e2 <alarm_pool_cancel_alarm+0x42>
10002310:	0000203c 	.word	0x0000203c

10002314 <sleep_until>:
10002314:	b5f0      	push	{r4, r5, r6, r7, lr}
10002316:	0004      	movs	r4, r0
10002318:	000d      	movs	r5, r1
1000231a:	2606      	movs	r6, #6
1000231c:	4276      	negs	r6, r6
1000231e:	17f7      	asrs	r7, r6, #31
10002320:	46c6      	mov	lr, r8
10002322:	1936      	adds	r6, r6, r4
10002324:	416f      	adcs	r7, r5
10002326:	b500      	push	{lr}
10002328:	b082      	sub	sp, #8
1000232a:	428f      	cmp	r7, r1
1000232c:	d814      	bhi.n	10002358 <sleep_until+0x44>
1000232e:	d011      	beq.n	10002354 <sleep_until+0x40>
10002330:	f000 f91a 	bl	10002568 <time_us_64>
10002334:	0032      	movs	r2, r6
10002336:	003b      	movs	r3, r7
10002338:	1a12      	subs	r2, r2, r0
1000233a:	418b      	sbcs	r3, r1
1000233c:	2b00      	cmp	r3, #0
1000233e:	dc17      	bgt.n	10002370 <sleep_until+0x5c>
10002340:	2b00      	cmp	r3, #0
10002342:	d047      	beq.n	100023d4 <sleep_until+0xc0>
10002344:	0020      	movs	r0, r4
10002346:	0029      	movs	r1, r5
10002348:	f000 f918 	bl	1000257c <busy_wait_until>
1000234c:	b002      	add	sp, #8
1000234e:	bc80      	pop	{r7}
10002350:	46b8      	mov	r8, r7
10002352:	bdf0      	pop	{r4, r5, r6, r7, pc}
10002354:	4286      	cmp	r6, r0
10002356:	d9eb      	bls.n	10002330 <sleep_until+0x1c>
10002358:	2200      	movs	r2, #0
1000235a:	2300      	movs	r3, #0
1000235c:	0016      	movs	r6, r2
1000235e:	001f      	movs	r7, r3
10002360:	f000 f902 	bl	10002568 <time_us_64>
10002364:	0032      	movs	r2, r6
10002366:	003b      	movs	r3, r7
10002368:	1a12      	subs	r2, r2, r0
1000236a:	418b      	sbcs	r3, r1
1000236c:	2b00      	cmp	r3, #0
1000236e:	dde7      	ble.n	10002340 <sleep_until+0x2c>
10002370:	f000 f8fa 	bl	10002568 <time_us_64>
10002374:	0032      	movs	r2, r6
10002376:	003b      	movs	r3, r7
10002378:	1a12      	subs	r2, r2, r0
1000237a:	418b      	sbcs	r3, r1
1000237c:	2b00      	cmp	r3, #0
1000237e:	db0a      	blt.n	10002396 <sleep_until+0x82>
10002380:	2300      	movs	r3, #0
10002382:	9301      	str	r3, [sp, #4]
10002384:	4b15      	ldr	r3, [pc, #84]	@ (100023dc <sleep_until+0xc8>)
10002386:	0032      	movs	r2, r6
10002388:	9300      	str	r3, [sp, #0]
1000238a:	4815      	ldr	r0, [pc, #84]	@ (100023e0 <sleep_until+0xcc>)
1000238c:	003b      	movs	r3, r7
1000238e:	f7ff ff2f 	bl	100021f0 <alarm_pool_add_alarm_at_force_in_context>
10002392:	2800      	cmp	r0, #0
10002394:	dbd6      	blt.n	10002344 <sleep_until+0x30>
10002396:	2300      	movs	r3, #0
10002398:	469c      	mov	ip, r3
1000239a:	46b0      	mov	r8, r6
1000239c:	4a11      	ldr	r2, [pc, #68]	@ (100023e4 <sleep_until+0xd0>)
1000239e:	4e12      	ldr	r6, [pc, #72]	@ (100023e8 <sleep_until+0xd4>)
100023a0:	6a73      	ldr	r3, [r6, #36]	@ 0x24
100023a2:	429f      	cmp	r7, r3
100023a4:	d804      	bhi.n	100023b0 <sleep_until+0x9c>
100023a6:	6ab1      	ldr	r1, [r6, #40]	@ 0x28
100023a8:	4588      	cmp	r8, r1
100023aa:	d9cb      	bls.n	10002344 <sleep_until+0x30>
100023ac:	429f      	cmp	r7, r3
100023ae:	d1c9      	bne.n	10002344 <sleep_until+0x30>
100023b0:	6811      	ldr	r1, [r2, #0]
100023b2:	f3ef 8010 	mrs	r0, PRIMASK
100023b6:	b672      	cpsid	i
100023b8:	680b      	ldr	r3, [r1, #0]
100023ba:	2b00      	cmp	r3, #0
100023bc:	d0fc      	beq.n	100023b8 <sleep_until+0xa4>
100023be:	f3bf 8f5f 	dmb	sy
100023c2:	6813      	ldr	r3, [r2, #0]
100023c4:	f3bf 8f5f 	dmb	sy
100023c8:	4661      	mov	r1, ip
100023ca:	6019      	str	r1, [r3, #0]
100023cc:	f380 8810 	msr	PRIMASK, r0
100023d0:	bf20      	wfe
100023d2:	e7e5      	b.n	100023a0 <sleep_until+0x8c>
100023d4:	2a00      	cmp	r2, #0
100023d6:	d0b5      	beq.n	10002344 <sleep_until+0x30>
100023d8:	e7ca      	b.n	10002370 <sleep_until+0x5c>
100023da:	46c0      	nop			@ (mov r8, r8)
100023dc:	10001de9 	.word	0x10001de9
100023e0:	20000e7c 	.word	0x20000e7c
100023e4:	20001b44 	.word	0x20001b44
100023e8:	40054000 	.word	0x40054000

100023ec <sleep_us>:
100023ec:	b570      	push	{r4, r5, r6, lr}
100023ee:	0004      	movs	r4, r0
100023f0:	000d      	movs	r5, r1
100023f2:	f000 f8b9 	bl	10002568 <time_us_64>
100023f6:	2380      	movs	r3, #128	@ 0x80
100023f8:	1900      	adds	r0, r0, r4
100023fa:	4169      	adcs	r1, r5
100023fc:	061b      	lsls	r3, r3, #24
100023fe:	4299      	cmp	r1, r3
10002400:	d302      	bcc.n	10002408 <sleep_us+0x1c>
10002402:	2001      	movs	r0, #1
10002404:	4902      	ldr	r1, [pc, #8]	@ (10002410 <sleep_us+0x24>)
10002406:	4240      	negs	r0, r0
10002408:	f7ff ff84 	bl	10002314 <sleep_until>
1000240c:	bd70      	pop	{r4, r5, r6, pc}
1000240e:	46c0      	nop			@ (mov r8, r8)
10002410:	7fffffff 	.word	0x7fffffff

10002414 <sleep_ms>:
10002414:	b570      	push	{r4, r5, r6, lr}
10002416:	0006      	movs	r6, r0
10002418:	f000 f8a6 	bl	10002568 <time_us_64>
1000241c:	22fa      	movs	r2, #250	@ 0xfa
1000241e:	0004      	movs	r4, r0
10002420:	000d      	movs	r5, r1
10002422:	2300      	movs	r3, #0
10002424:	0030      	movs	r0, r6
10002426:	2100      	movs	r1, #0
10002428:	0092      	lsls	r2, r2, #2
1000242a:	f000 fe3f 	bl	100030ac <__wrap___aeabi_lmul>
1000242e:	2380      	movs	r3, #128	@ 0x80
10002430:	1900      	adds	r0, r0, r4
10002432:	4169      	adcs	r1, r5
10002434:	061b      	lsls	r3, r3, #24
10002436:	4299      	cmp	r1, r3
10002438:	d302      	bcc.n	10002440 <sleep_ms+0x2c>
1000243a:	2001      	movs	r0, #1
1000243c:	4902      	ldr	r1, [pc, #8]	@ (10002448 <sleep_ms+0x34>)
1000243e:	4240      	negs	r0, r0
10002440:	f7ff ff68 	bl	10002314 <sleep_until>
10002444:	bd70      	pop	{r4, r5, r6, pc}
10002446:	46c0      	nop			@ (mov r8, r8)
10002448:	7fffffff 	.word	0x7fffffff

1000244c <best_effort_wfe_or_timeout>:
1000244c:	b5f0      	push	{r4, r5, r6, r7, lr}
1000244e:	46d6      	mov	lr, sl
10002450:	464f      	mov	r7, r9
10002452:	4646      	mov	r6, r8
10002454:	b5c0      	push	{r6, r7, lr}
10002456:	0004      	movs	r4, r0
10002458:	000d      	movs	r5, r1
1000245a:	b082      	sub	sp, #8
1000245c:	f3ef 8705 	mrs	r7, IPSR
10002460:	4689      	mov	r9, r1
10002462:	2f00      	cmp	r7, #0
10002464:	d00e      	beq.n	10002484 <best_effort_wfe_or_timeout+0x38>
10002466:	4934      	ldr	r1, [pc, #208]	@ (10002538 <best_effort_wfe_or_timeout+0xec>)
10002468:	2000      	movs	r0, #0
1000246a:	6a4b      	ldr	r3, [r1, #36]	@ 0x24
1000246c:	42ab      	cmp	r3, r5
1000246e:	d303      	bcc.n	10002478 <best_effort_wfe_or_timeout+0x2c>
10002470:	6a8a      	ldr	r2, [r1, #40]	@ 0x28
10002472:	3001      	adds	r0, #1
10002474:	42a2      	cmp	r2, r4
10002476:	d326      	bcc.n	100024c6 <best_effort_wfe_or_timeout+0x7a>
10002478:	b002      	add	sp, #8
1000247a:	bce0      	pop	{r5, r6, r7}
1000247c:	46ba      	mov	sl, r7
1000247e:	46b1      	mov	r9, r6
10002480:	46a8      	mov	r8, r5
10002482:	bdf0      	pop	{r4, r5, r6, r7, pc}
10002484:	4b2d      	ldr	r3, [pc, #180]	@ (1000253c <best_effort_wfe_or_timeout+0xf0>)
10002486:	4698      	mov	r8, r3
10002488:	68db      	ldr	r3, [r3, #12]
1000248a:	469a      	mov	sl, r3
1000248c:	4643      	mov	r3, r8
1000248e:	4650      	mov	r0, sl
10002490:	781e      	ldrb	r6, [r3, #0]
10002492:	f000 f861 	bl	10002558 <timer_time_us_64>
10002496:	000b      	movs	r3, r1
10002498:	4651      	mov	r1, sl
1000249a:	0002      	movs	r2, r0
1000249c:	3604      	adds	r6, #4
1000249e:	00b6      	lsls	r6, r6, #2
100024a0:	5871      	ldr	r1, [r6, r1]
100024a2:	0020      	movs	r0, r4
100024a4:	1a8e      	subs	r6, r1, r2
100024a6:	0029      	movs	r1, r5
100024a8:	1a80      	subs	r0, r0, r2
100024aa:	4199      	sbcs	r1, r3
100024ac:	428f      	cmp	r7, r1
100024ae:	dc11      	bgt.n	100024d4 <best_effort_wfe_or_timeout+0x88>
100024b0:	d00e      	beq.n	100024d0 <best_effort_wfe_or_timeout+0x84>
100024b2:	bf20      	wfe
100024b4:	4a20      	ldr	r2, [pc, #128]	@ (10002538 <best_effort_wfe_or_timeout+0xec>)
100024b6:	2000      	movs	r0, #0
100024b8:	6a53      	ldr	r3, [r2, #36]	@ 0x24
100024ba:	454b      	cmp	r3, r9
100024bc:	d3dc      	bcc.n	10002478 <best_effort_wfe_or_timeout+0x2c>
100024be:	6a92      	ldr	r2, [r2, #40]	@ 0x28
100024c0:	3001      	adds	r0, #1
100024c2:	42a2      	cmp	r2, r4
100024c4:	d2d8      	bcs.n	10002478 <best_effort_wfe_or_timeout+0x2c>
100024c6:	1b5b      	subs	r3, r3, r5
100024c8:	1e5a      	subs	r2, r3, #1
100024ca:	4193      	sbcs	r3, r2
100024cc:	b2d8      	uxtb	r0, r3
100024ce:	e7d3      	b.n	10002478 <best_effort_wfe_or_timeout+0x2c>
100024d0:	4286      	cmp	r6, r0
100024d2:	d9ee      	bls.n	100024b2 <best_effort_wfe_or_timeout+0x66>
100024d4:	f000 f848 	bl	10002568 <time_us_64>
100024d8:	0022      	movs	r2, r4
100024da:	002b      	movs	r3, r5
100024dc:	1a12      	subs	r2, r2, r0
100024de:	418b      	sbcs	r3, r1
100024e0:	2b00      	cmp	r3, #0
100024e2:	db1a      	blt.n	1000251a <best_effort_wfe_or_timeout+0xce>
100024e4:	2300      	movs	r3, #0
100024e6:	9301      	str	r3, [sp, #4]
100024e8:	4b15      	ldr	r3, [pc, #84]	@ (10002540 <best_effort_wfe_or_timeout+0xf4>)
100024ea:	0022      	movs	r2, r4
100024ec:	9300      	str	r3, [sp, #0]
100024ee:	4640      	mov	r0, r8
100024f0:	002b      	movs	r3, r5
100024f2:	f7ff fe7d 	bl	100021f0 <alarm_pool_add_alarm_at_force_in_context>
100024f6:	1e01      	subs	r1, r0, #0
100024f8:	dd0f      	ble.n	1000251a <best_effort_wfe_or_timeout+0xce>
100024fa:	4b0f      	ldr	r3, [pc, #60]	@ (10002538 <best_effort_wfe_or_timeout+0xec>)
100024fc:	6a5a      	ldr	r2, [r3, #36]	@ 0x24
100024fe:	454a      	cmp	r2, r9
10002500:	d317      	bcc.n	10002532 <best_effort_wfe_or_timeout+0xe6>
10002502:	6a9b      	ldr	r3, [r3, #40]	@ 0x28
10002504:	42a3      	cmp	r3, r4
10002506:	d312      	bcc.n	1000252e <best_effort_wfe_or_timeout+0xe2>
10002508:	4640      	mov	r0, r8
1000250a:	f7ff fec9 	bl	100022a0 <alarm_pool_cancel_alarm>
1000250e:	4a0a      	ldr	r2, [pc, #40]	@ (10002538 <best_effort_wfe_or_timeout+0xec>)
10002510:	2000      	movs	r0, #0
10002512:	6a53      	ldr	r3, [r2, #36]	@ 0x24
10002514:	454b      	cmp	r3, r9
10002516:	d3af      	bcc.n	10002478 <best_effort_wfe_or_timeout+0x2c>
10002518:	e7d1      	b.n	100024be <best_effort_wfe_or_timeout+0x72>
1000251a:	4a07      	ldr	r2, [pc, #28]	@ (10002538 <best_effort_wfe_or_timeout+0xec>)
1000251c:	2000      	movs	r0, #0
1000251e:	6a53      	ldr	r3, [r2, #36]	@ 0x24
10002520:	454b      	cmp	r3, r9
10002522:	d3a9      	bcc.n	10002478 <best_effort_wfe_or_timeout+0x2c>
10002524:	6a92      	ldr	r2, [r2, #40]	@ 0x28
10002526:	2001      	movs	r0, #1
10002528:	42a2      	cmp	r2, r4
1000252a:	d2a5      	bcs.n	10002478 <best_effort_wfe_or_timeout+0x2c>
1000252c:	e7cb      	b.n	100024c6 <best_effort_wfe_or_timeout+0x7a>
1000252e:	454a      	cmp	r2, r9
10002530:	d1ea      	bne.n	10002508 <best_effort_wfe_or_timeout+0xbc>
10002532:	bf20      	wfe
10002534:	e7e8      	b.n	10002508 <best_effort_wfe_or_timeout+0xbc>
10002536:	46c0      	nop			@ (mov r8, r8)
10002538:	40054000 	.word	0x40054000
1000253c:	20000e7c 	.word	0x20000e7c
10002540:	10001de9 	.word	0x10001de9

10002544 <timer_hardware_alarm_claim>:
10002544:	b510      	push	{r4, lr}
10002546:	4a02      	ldr	r2, [pc, #8]	@ (10002550 <timer_hardware_alarm_claim+0xc>)
10002548:	4802      	ldr	r0, [pc, #8]	@ (10002554 <timer_hardware_alarm_claim+0x10>)
1000254a:	f7ff f8d9 	bl	10001700 <hw_claim_or_assert>
1000254e:	bd10      	pop	{r4, pc}
10002550:	10004cf8 	.word	0x10004cf8
10002554:	200014ac 	.word	0x200014ac

10002558 <timer_time_us_64>:
10002558:	0003      	movs	r3, r0
1000255a:	6a41      	ldr	r1, [r0, #36]	@ 0x24
1000255c:	000a      	movs	r2, r1
1000255e:	6a98      	ldr	r0, [r3, #40]	@ 0x28
10002560:	6a59      	ldr	r1, [r3, #36]	@ 0x24
10002562:	428a      	cmp	r2, r1
10002564:	d1fa      	bne.n	1000255c <timer_time_us_64+0x4>
10002566:	4770      	bx	lr

10002568 <time_us_64>:
10002568:	4b03      	ldr	r3, [pc, #12]	@ (10002578 <time_us_64+0x10>)
1000256a:	6a59      	ldr	r1, [r3, #36]	@ 0x24
1000256c:	000a      	movs	r2, r1
1000256e:	6a98      	ldr	r0, [r3, #40]	@ 0x28
10002570:	6a59      	ldr	r1, [r3, #36]	@ 0x24
10002572:	4291      	cmp	r1, r2
10002574:	d1fa      	bne.n	1000256c <time_us_64+0x4>
10002576:	4770      	bx	lr
10002578:	40054000 	.word	0x40054000

1000257c <busy_wait_until>:
1000257c:	4a06      	ldr	r2, [pc, #24]	@ (10002598 <busy_wait_until+0x1c>)
1000257e:	6a53      	ldr	r3, [r2, #36]	@ 0x24
10002580:	4299      	cmp	r1, r3
10002582:	d8fc      	bhi.n	1000257e <busy_wait_until+0x2>
10002584:	d107      	bne.n	10002596 <busy_wait_until+0x1a>
10002586:	4b04      	ldr	r3, [pc, #16]	@ (10002598 <busy_wait_until+0x1c>)
10002588:	e002      	b.n	10002590 <busy_wait_until+0x14>
1000258a:	6a5a      	ldr	r2, [r3, #36]	@ 0x24
1000258c:	4291      	cmp	r1, r2
1000258e:	d102      	bne.n	10002596 <busy_wait_until+0x1a>
10002590:	6a9a      	ldr	r2, [r3, #40]	@ 0x28
10002592:	4282      	cmp	r2, r0
10002594:	d3f9      	bcc.n	1000258a <busy_wait_until+0xe>
10002596:	4770      	bx	lr
10002598:	40054000 	.word	0x40054000

1000259c <clock_configure_int_divider>:
1000259c:	b5f8      	push	{r3, r4, r5, r6, r7, lr}
1000259e:	46de      	mov	lr, fp
100025a0:	464e      	mov	r6, r9
100025a2:	4657      	mov	r7, sl
100025a4:	4645      	mov	r5, r8
100025a6:	b5e0      	push	{r5, r6, r7, lr}
100025a8:	468b      	mov	fp, r1
100025aa:	0005      	movs	r5, r0
100025ac:	990a      	ldr	r1, [sp, #40]	@ 0x28
100025ae:	0018      	movs	r0, r3
100025b0:	0016      	movs	r6, r2
100025b2:	f000 fadb 	bl	10002b6c <__wrap___aeabi_uidiv>
100025b6:	9b0a      	ldr	r3, [sp, #40]	@ 0x28
100025b8:	006c      	lsls	r4, r5, #1
100025ba:	021f      	lsls	r7, r3, #8
100025bc:	4b32      	ldr	r3, [pc, #200]	@ (10002688 <clock_configure_int_divider+0xec>)
100025be:	1964      	adds	r4, r4, r5
100025c0:	469c      	mov	ip, r3
100025c2:	00a4      	lsls	r4, r4, #2
100025c4:	4464      	add	r4, ip
100025c6:	6863      	ldr	r3, [r4, #4]
100025c8:	4681      	mov	r9, r0
100025ca:	429f      	cmp	r7, r3
100025cc:	d900      	bls.n	100025d0 <clock_configure_int_divider+0x34>
100025ce:	6067      	str	r7, [r4, #4]
100025d0:	1f2b      	subs	r3, r5, #4
100025d2:	b2db      	uxtb	r3, r3
100025d4:	4698      	mov	r8, r3
100025d6:	2b01      	cmp	r3, #1
100025d8:	d930      	bls.n	1000263c <clock_configure_int_divider+0xa0>
100025da:	23c0      	movs	r3, #192	@ 0xc0
100025dc:	2280      	movs	r2, #128	@ 0x80
100025de:	019b      	lsls	r3, r3, #6
100025e0:	18e3      	adds	r3, r4, r3
100025e2:	0112      	lsls	r2, r2, #4
100025e4:	601a      	str	r2, [r3, #0]
100025e6:	4b29      	ldr	r3, [pc, #164]	@ (1000268c <clock_configure_int_divider+0xf0>)
100025e8:	00ad      	lsls	r5, r5, #2
100025ea:	5959      	ldr	r1, [r3, r5]
100025ec:	469a      	mov	sl, r3
100025ee:	2900      	cmp	r1, #0
100025f0:	d11b      	bne.n	1000262a <clock_configure_int_divider+0x8e>
100025f2:	0173      	lsls	r3, r6, #5
100025f4:	26e0      	movs	r6, #224	@ 0xe0
100025f6:	6822      	ldr	r2, [r4, #0]
100025f8:	4053      	eors	r3, r2
100025fa:	401e      	ands	r6, r3
100025fc:	2380      	movs	r3, #128	@ 0x80
100025fe:	4642      	mov	r2, r8
10002600:	015b      	lsls	r3, r3, #5
10002602:	18e3      	adds	r3, r4, r3
10002604:	601e      	str	r6, [r3, #0]
10002606:	2a01      	cmp	r2, #1
10002608:	d930      	bls.n	1000266c <clock_configure_int_divider+0xd0>
1000260a:	2380      	movs	r3, #128	@ 0x80
1000260c:	2280      	movs	r2, #128	@ 0x80
1000260e:	019b      	lsls	r3, r3, #6
10002610:	18e3      	adds	r3, r4, r3
10002612:	0112      	lsls	r2, r2, #4
10002614:	601a      	str	r2, [r3, #0]
10002616:	4653      	mov	r3, sl
10002618:	464a      	mov	r2, r9
1000261a:	6067      	str	r7, [r4, #4]
1000261c:	515a      	str	r2, [r3, r5]
1000261e:	bcf0      	pop	{r4, r5, r6, r7}
10002620:	46bb      	mov	fp, r7
10002622:	46b2      	mov	sl, r6
10002624:	46a9      	mov	r9, r5
10002626:	46a0      	mov	r8, r4
10002628:	bdf8      	pop	{r3, r4, r5, r6, r7, pc}
1000262a:	6958      	ldr	r0, [r3, #20]
1000262c:	f000 fa9e 	bl	10002b6c <__wrap___aeabi_uidiv>
10002630:	3001      	adds	r0, #1
10002632:	0043      	lsls	r3, r0, #1
10002634:	181b      	adds	r3, r3, r0
10002636:	3b03      	subs	r3, #3
10002638:	d2fd      	bcs.n	10002636 <clock_configure_int_divider+0x9a>
1000263a:	e7da      	b.n	100025f2 <clock_configure_int_divider+0x56>
1000263c:	465b      	mov	r3, fp
1000263e:	2b01      	cmp	r3, #1
10002640:	d1cb      	bne.n	100025da <clock_configure_int_divider+0x3e>
10002642:	23c0      	movs	r3, #192	@ 0xc0
10002644:	2203      	movs	r2, #3
10002646:	019b      	lsls	r3, r3, #6
10002648:	18e3      	adds	r3, r4, r3
1000264a:	601a      	str	r2, [r3, #0]
1000264c:	3a02      	subs	r2, #2
1000264e:	68a3      	ldr	r3, [r4, #8]
10002650:	421a      	tst	r2, r3
10002652:	d0fc      	beq.n	1000264e <clock_configure_int_divider+0xb2>
10002654:	0173      	lsls	r3, r6, #5
10002656:	26e0      	movs	r6, #224	@ 0xe0
10002658:	6822      	ldr	r2, [r4, #0]
1000265a:	00ad      	lsls	r5, r5, #2
1000265c:	4053      	eors	r3, r2
1000265e:	401e      	ands	r6, r3
10002660:	2380      	movs	r3, #128	@ 0x80
10002662:	4a0a      	ldr	r2, [pc, #40]	@ (1000268c <clock_configure_int_divider+0xf0>)
10002664:	015b      	lsls	r3, r3, #5
10002666:	4692      	mov	sl, r2
10002668:	18e3      	adds	r3, r4, r3
1000266a:	601e      	str	r6, [r3, #0]
1000266c:	465a      	mov	r2, fp
1000266e:	6821      	ldr	r1, [r4, #0]
10002670:	4051      	eors	r1, r2
10002672:	2203      	movs	r2, #3
10002674:	400a      	ands	r2, r1
10002676:	601a      	str	r2, [r3, #0]
10002678:	2201      	movs	r2, #1
1000267a:	465b      	mov	r3, fp
1000267c:	409a      	lsls	r2, r3
1000267e:	68a3      	ldr	r3, [r4, #8]
10002680:	421a      	tst	r2, r3
10002682:	d0fc      	beq.n	1000267e <clock_configure_int_divider+0xe2>
10002684:	e7c1      	b.n	1000260a <clock_configure_int_divider+0x6e>
10002686:	46c0      	nop			@ (mov r8, r8)
10002688:	40008000 	.word	0x40008000
1000268c:	200014b0 	.word	0x200014b0

10002690 <clock_configure_undivided>:
10002690:	b5f0      	push	{r4, r5, r6, r7, lr}
10002692:	4646      	mov	r6, r8
10002694:	464f      	mov	r7, r9
10002696:	46d6      	mov	lr, sl
10002698:	b5c0      	push	{r6, r7, lr}
1000269a:	001f      	movs	r7, r3
1000269c:	4b34      	ldr	r3, [pc, #208]	@ (10002770 <clock_configure_undivided+0xe0>)
1000269e:	0044      	lsls	r4, r0, #1
100026a0:	469c      	mov	ip, r3
100026a2:	1824      	adds	r4, r4, r0
100026a4:	00a4      	lsls	r4, r4, #2
100026a6:	4464      	add	r4, ip
100026a8:	6863      	ldr	r3, [r4, #4]
100026aa:	4688      	mov	r8, r1
100026ac:	0016      	movs	r6, r2
100026ae:	2bff      	cmp	r3, #255	@ 0xff
100026b0:	d802      	bhi.n	100026b8 <clock_configure_undivided+0x28>
100026b2:	2380      	movs	r3, #128	@ 0x80
100026b4:	005b      	lsls	r3, r3, #1
100026b6:	6063      	str	r3, [r4, #4]
100026b8:	1f03      	subs	r3, r0, #4
100026ba:	b2db      	uxtb	r3, r3
100026bc:	469a      	mov	sl, r3
100026be:	2b01      	cmp	r3, #1
100026c0:	d930      	bls.n	10002724 <clock_configure_undivided+0x94>
100026c2:	23c0      	movs	r3, #192	@ 0xc0
100026c4:	2280      	movs	r2, #128	@ 0x80
100026c6:	019b      	lsls	r3, r3, #6
100026c8:	18e3      	adds	r3, r4, r3
100026ca:	0112      	lsls	r2, r2, #4
100026cc:	601a      	str	r2, [r3, #0]
100026ce:	4b29      	ldr	r3, [pc, #164]	@ (10002774 <clock_configure_undivided+0xe4>)
100026d0:	0085      	lsls	r5, r0, #2
100026d2:	5959      	ldr	r1, [r3, r5]
100026d4:	4699      	mov	r9, r3
100026d6:	2900      	cmp	r1, #0
100026d8:	d11b      	bne.n	10002712 <clock_configure_undivided+0x82>
100026da:	0173      	lsls	r3, r6, #5
100026dc:	26e0      	movs	r6, #224	@ 0xe0
100026de:	6822      	ldr	r2, [r4, #0]
100026e0:	4053      	eors	r3, r2
100026e2:	401e      	ands	r6, r3
100026e4:	2380      	movs	r3, #128	@ 0x80
100026e6:	4652      	mov	r2, sl
100026e8:	015b      	lsls	r3, r3, #5
100026ea:	18e3      	adds	r3, r4, r3
100026ec:	601e      	str	r6, [r3, #0]
100026ee:	2a01      	cmp	r2, #1
100026f0:	d930      	bls.n	10002754 <clock_configure_undivided+0xc4>
100026f2:	2380      	movs	r3, #128	@ 0x80
100026f4:	2280      	movs	r2, #128	@ 0x80
100026f6:	019b      	lsls	r3, r3, #6
100026f8:	18e3      	adds	r3, r4, r3
100026fa:	0112      	lsls	r2, r2, #4
100026fc:	601a      	str	r2, [r3, #0]
100026fe:	2380      	movs	r3, #128	@ 0x80
10002700:	005b      	lsls	r3, r3, #1
10002702:	6063      	str	r3, [r4, #4]
10002704:	464b      	mov	r3, r9
10002706:	515f      	str	r7, [r3, r5]
10002708:	bce0      	pop	{r5, r6, r7}
1000270a:	46ba      	mov	sl, r7
1000270c:	46b1      	mov	r9, r6
1000270e:	46a8      	mov	r8, r5
10002710:	bdf0      	pop	{r4, r5, r6, r7, pc}
10002712:	6958      	ldr	r0, [r3, #20]
10002714:	f000 fa2a 	bl	10002b6c <__wrap___aeabi_uidiv>
10002718:	3001      	adds	r0, #1
1000271a:	0043      	lsls	r3, r0, #1
1000271c:	181b      	adds	r3, r3, r0
1000271e:	3b03      	subs	r3, #3
10002720:	d2fd      	bcs.n	1000271e <clock_configure_undivided+0x8e>
10002722:	e7da      	b.n	100026da <clock_configure_undivided+0x4a>
10002724:	4643      	mov	r3, r8
10002726:	2b01      	cmp	r3, #1
10002728:	d1cb      	bne.n	100026c2 <clock_configure_undivided+0x32>
1000272a:	23c0      	movs	r3, #192	@ 0xc0
1000272c:	2203      	movs	r2, #3
1000272e:	019b      	lsls	r3, r3, #6
10002730:	18e3      	adds	r3, r4, r3
10002732:	601a      	str	r2, [r3, #0]
10002734:	3a02      	subs	r2, #2
10002736:	68a3      	ldr	r3, [r4, #8]
10002738:	421a      	tst	r2, r3
1000273a:	d0fc      	beq.n	10002736 <clock_configure_undivided+0xa6>
1000273c:	0173      	lsls	r3, r6, #5
1000273e:	26e0      	movs	r6, #224	@ 0xe0
10002740:	6822      	ldr	r2, [r4, #0]
10002742:	0085      	lsls	r5, r0, #2
10002744:	4053      	eors	r3, r2
10002746:	401e      	ands	r6, r3
10002748:	2380      	movs	r3, #128	@ 0x80
1000274a:	4a0a      	ldr	r2, [pc, #40]	@ (10002774 <clock_configure_undivided+0xe4>)
1000274c:	015b      	lsls	r3, r3, #5
1000274e:	4691      	mov	r9, r2
10002750:	18e3      	adds	r3, r4, r3
10002752:	601e      	str	r6, [r3, #0]
10002754:	4642      	mov	r2, r8
10002756:	6821      	ldr	r1, [r4, #0]
10002758:	4051      	eors	r1, r2
1000275a:	2203      	movs	r2, #3
1000275c:	400a      	ands	r2, r1
1000275e:	601a      	str	r2, [r3, #0]
10002760:	2301      	movs	r3, #1
10002762:	4642      	mov	r2, r8
10002764:	4093      	lsls	r3, r2
10002766:	68a2      	ldr	r2, [r4, #8]
10002768:	4213      	tst	r3, r2
1000276a:	d0fc      	beq.n	10002766 <clock_configure_undivided+0xd6>
1000276c:	e7c1      	b.n	100026f2 <clock_configure_undivided+0x62>
1000276e:	46c0      	nop			@ (mov r8, r8)
10002770:	40008000 	.word	0x40008000
10002774:	200014b0 	.word	0x200014b0

10002778 <clock_get_hz>:
10002778:	4b01      	ldr	r3, [pc, #4]	@ (10002780 <clock_get_hz+0x8>)
1000277a:	0080      	lsls	r0, r0, #2
1000277c:	58c0      	ldr	r0, [r0, r3]
1000277e:	4770      	bx	lr
10002780:	200014b0 	.word	0x200014b0

10002784 <pll_init>:
10002784:	b5f8      	push	{r3, r4, r5, r6, r7, lr}
10002786:	0004      	movs	r4, r0
10002788:	4821      	ldr	r0, [pc, #132]	@ (10002810 <pll_init+0x8c>)
1000278a:	001e      	movs	r6, r3
1000278c:	0017      	movs	r7, r2
1000278e:	000d      	movs	r5, r1
10002790:	f000 f9ec 	bl	10002b6c <__wrap___aeabi_uidiv>
10002794:	0001      	movs	r1, r0
10002796:	0038      	movs	r0, r7
10002798:	f000 f9e8 	bl	10002b6c <__wrap___aeabi_uidiv>
1000279c:	9b06      	ldr	r3, [sp, #24]
1000279e:	0436      	lsls	r6, r6, #16
100027a0:	031b      	lsls	r3, r3, #12
100027a2:	431e      	orrs	r6, r3
100027a4:	6823      	ldr	r3, [r4, #0]
100027a6:	2b00      	cmp	r3, #0
100027a8:	db20      	blt.n	100027ec <pll_init+0x68>
100027aa:	4b1a      	ldr	r3, [pc, #104]	@ (10002814 <pll_init+0x90>)
100027ac:	491a      	ldr	r1, [pc, #104]	@ (10002818 <pll_init+0x94>)
100027ae:	18e3      	adds	r3, r4, r3
100027b0:	1e5a      	subs	r2, r3, #1
100027b2:	4193      	sbcs	r3, r2
100027b4:	2280      	movs	r2, #128	@ 0x80
100027b6:	0192      	lsls	r2, r2, #6
100027b8:	4694      	mov	ip, r2
100027ba:	425b      	negs	r3, r3
100027bc:	0b1b      	lsrs	r3, r3, #12
100027be:	4a17      	ldr	r2, [pc, #92]	@ (1000281c <pll_init+0x98>)
100027c0:	031b      	lsls	r3, r3, #12
100027c2:	4463      	add	r3, ip
100027c4:	6013      	str	r3, [r2, #0]
100027c6:	4a16      	ldr	r2, [pc, #88]	@ (10002820 <pll_init+0x9c>)
100027c8:	6013      	str	r3, [r2, #0]
100027ca:	001f      	movs	r7, r3
100027cc:	680a      	ldr	r2, [r1, #0]
100027ce:	4397      	bics	r7, r2
100027d0:	d1fb      	bne.n	100027ca <pll_init+0x46>
100027d2:	4b14      	ldr	r3, [pc, #80]	@ (10002824 <pll_init+0xa0>)
100027d4:	6025      	str	r5, [r4, #0]
100027d6:	18e2      	adds	r2, r4, r3
100027d8:	2321      	movs	r3, #33	@ 0x21
100027da:	60a0      	str	r0, [r4, #8]
100027dc:	6013      	str	r3, [r2, #0]
100027de:	6823      	ldr	r3, [r4, #0]
100027e0:	2b00      	cmp	r3, #0
100027e2:	dafc      	bge.n	100027de <pll_init+0x5a>
100027e4:	2308      	movs	r3, #8
100027e6:	60e6      	str	r6, [r4, #12]
100027e8:	6013      	str	r3, [r2, #0]
100027ea:	bdf8      	pop	{r3, r4, r5, r6, r7, pc}
100027ec:	233f      	movs	r3, #63	@ 0x3f
100027ee:	6822      	ldr	r2, [r4, #0]
100027f0:	4013      	ands	r3, r2
100027f2:	42ab      	cmp	r3, r5
100027f4:	d1d9      	bne.n	100027aa <pll_init+0x26>
100027f6:	68a3      	ldr	r3, [r4, #8]
100027f8:	051b      	lsls	r3, r3, #20
100027fa:	0d1b      	lsrs	r3, r3, #20
100027fc:	4283      	cmp	r3, r0
100027fe:	d1d4      	bne.n	100027aa <pll_init+0x26>
10002800:	22ee      	movs	r2, #238	@ 0xee
10002802:	68e3      	ldr	r3, [r4, #12]
10002804:	02d2      	lsls	r2, r2, #11
10002806:	4013      	ands	r3, r2
10002808:	42b3      	cmp	r3, r6
1000280a:	d1ce      	bne.n	100027aa <pll_init+0x26>
1000280c:	e7ed      	b.n	100027ea <pll_init+0x66>
1000280e:	46c0      	nop			@ (mov r8, r8)
10002810:	00b71b00 	.word	0x00b71b00
10002814:	bffd4000 	.word	0xbffd4000
10002818:	4000c008 	.word	0x4000c008
1000281c:	4000e000 	.word	0x4000e000
10002820:	4000f000 	.word	0x4000f000
10002824:	00003004 	.word	0x00003004

10002828 <tick_start>:
10002828:	2380      	movs	r3, #128	@ 0x80
1000282a:	4a02      	ldr	r2, [pc, #8]	@ (10002834 <tick_start+0xc>)
1000282c:	009b      	lsls	r3, r3, #2
1000282e:	430b      	orrs	r3, r1
10002830:	62d3      	str	r3, [r2, #44]	@ 0x2c
10002832:	4770      	bx	lr
10002834:	40058000 	.word	0x40058000

10002838 <rom_func_lookup>:
10002838:	2314      	movs	r3, #20
1000283a:	b510      	push	{r4, lr}
1000283c:	0001      	movs	r1, r0
1000283e:	8818      	ldrh	r0, [r3, #0]
10002840:	3304      	adds	r3, #4
10002842:	881b      	ldrh	r3, [r3, #0]
10002844:	4798      	blx	r3
10002846:	bd10      	pop	{r4, pc}

10002848 <rom_data_lookup>:
10002848:	2316      	movs	r3, #22
1000284a:	b510      	push	{r4, lr}
1000284c:	0001      	movs	r1, r0
1000284e:	8818      	ldrh	r0, [r3, #0]
10002850:	3302      	adds	r3, #2
10002852:	881b      	ldrh	r3, [r3, #0]
10002854:	4798      	blx	r3
10002856:	bd10      	pop	{r4, pc}

10002858 <rom_funcs_lookup>:
10002858:	b5f8      	push	{r3, r4, r5, r6, r7, lr}
1000285a:	4647      	mov	r7, r8
1000285c:	46ce      	mov	lr, r9
1000285e:	b580      	push	{r7, lr}
10002860:	1e0f      	subs	r7, r1, #0
10002862:	d019      	beq.n	10002898 <rom_funcs_lookup+0x40>
10002864:	2314      	movs	r3, #20
10002866:	4699      	mov	r9, r3
10002868:	3304      	adds	r3, #4
1000286a:	0004      	movs	r4, r0
1000286c:	2500      	movs	r5, #0
1000286e:	2601      	movs	r6, #1
10002870:	4698      	mov	r8, r3
10002872:	464b      	mov	r3, r9
10002874:	8818      	ldrh	r0, [r3, #0]
10002876:	4643      	mov	r3, r8
10002878:	6821      	ldr	r1, [r4, #0]
1000287a:	881b      	ldrh	r3, [r3, #0]
1000287c:	4798      	blx	r3
1000287e:	c401      	stmia	r4!, {r0}
10002880:	1e43      	subs	r3, r0, #1
10002882:	4198      	sbcs	r0, r3
10002884:	3501      	adds	r5, #1
10002886:	4240      	negs	r0, r0
10002888:	4006      	ands	r6, r0
1000288a:	42af      	cmp	r7, r5
1000288c:	d1f1      	bne.n	10002872 <rom_funcs_lookup+0x1a>
1000288e:	0030      	movs	r0, r6
10002890:	bcc0      	pop	{r6, r7}
10002892:	46b9      	mov	r9, r7
10002894:	46b0      	mov	r8, r6
10002896:	bdf8      	pop	{r3, r4, r5, r6, r7, pc}
10002898:	2601      	movs	r6, #1
1000289a:	e7f8      	b.n	1000288e <rom_funcs_lookup+0x36>

1000289c <xosc_init>:
1000289c:	23aa      	movs	r3, #170	@ 0xaa
1000289e:	4a06      	ldr	r2, [pc, #24]	@ (100028b8 <xosc_init+0x1c>)
100028a0:	011b      	lsls	r3, r3, #4
100028a2:	6013      	str	r3, [r2, #0]
100028a4:	238d      	movs	r3, #141	@ 0x8d
100028a6:	005b      	lsls	r3, r3, #1
100028a8:	60d3      	str	r3, [r2, #12]
100028aa:	4904      	ldr	r1, [pc, #16]	@ (100028bc <xosc_init+0x20>)
100028ac:	4b04      	ldr	r3, [pc, #16]	@ (100028c0 <xosc_init+0x24>)
100028ae:	6019      	str	r1, [r3, #0]
100028b0:	6853      	ldr	r3, [r2, #4]
100028b2:	2b00      	cmp	r3, #0
100028b4:	dafc      	bge.n	100028b0 <xosc_init+0x14>
100028b6:	4770      	bx	lr
100028b8:	40024000 	.word	0x40024000
100028bc:	00fab000 	.word	0x00fab000
100028c0:	40026000 	.word	0x40026000

100028c4 <first_per_core_initializer>:
100028c4:	4770      	bx	lr
100028c6:	46c0      	nop			@ (mov r8, r8)

100028c8 <hard_assertion_failure>:
100028c8:	b510      	push	{r4, lr}
100028ca:	4801      	ldr	r0, [pc, #4]	@ (100028d0 <hard_assertion_failure+0x8>)
100028cc:	f7fe ff00 	bl	100016d0 <panic>
100028d0:	10004d1c 	.word	0x10004d1c

100028d4 <runtime_run_initializers>:
100028d4:	b570      	push	{r4, r5, r6, lr}
100028d6:	4d07      	ldr	r5, [pc, #28]	@ (100028f4 <runtime_run_initializers+0x20>)
100028d8:	4e07      	ldr	r6, [pc, #28]	@ (100028f8 <runtime_run_initializers+0x24>)
100028da:	42b5      	cmp	r5, r6
100028dc:	d209      	bcs.n	100028f2 <runtime_run_initializers+0x1e>
100028de:	2400      	movs	r4, #0
100028e0:	3e01      	subs	r6, #1
100028e2:	1b76      	subs	r6, r6, r5
100028e4:	08b6      	lsrs	r6, r6, #2
100028e6:	cd08      	ldmia	r5!, {r3}
100028e8:	4798      	blx	r3
100028ea:	0023      	movs	r3, r4
100028ec:	3401      	adds	r4, #1
100028ee:	42b3      	cmp	r3, r6
100028f0:	d1f9      	bne.n	100028e6 <runtime_run_initializers+0x12>
100028f2:	bd70      	pop	{r4, r5, r6, pc}
100028f4:	10004c10 	.word	0x10004c10
100028f8:	10004c4c 	.word	0x10004c4c

100028fc <runtime_init_early_resets>:
100028fc:	4b05      	ldr	r3, [pc, #20]	@ (10002914 <runtime_init_early_resets+0x18>)
100028fe:	4a06      	ldr	r2, [pc, #24]	@ (10002918 <runtime_init_early_resets+0x1c>)
10002900:	4906      	ldr	r1, [pc, #24]	@ (1000291c <runtime_init_early_resets+0x20>)
10002902:	601a      	str	r2, [r3, #0]
10002904:	4a06      	ldr	r2, [pc, #24]	@ (10002920 <runtime_init_early_resets+0x24>)
10002906:	4b07      	ldr	r3, [pc, #28]	@ (10002924 <runtime_init_early_resets+0x28>)
10002908:	601a      	str	r2, [r3, #0]
1000290a:	0010      	movs	r0, r2
1000290c:	680b      	ldr	r3, [r1, #0]
1000290e:	4398      	bics	r0, r3
10002910:	d1fb      	bne.n	1000290a <runtime_init_early_resets+0xe>
10002912:	4770      	bx	lr
10002914:	4000e000 	.word	0x4000e000
10002918:	fefbcdbf 	.word	0xfefbcdbf
1000291c:	4000c008 	.word	0x4000c008
10002920:	003c7ffe 	.word	0x003c7ffe
10002924:	4000f000 	.word	0x4000f000

10002928 <runtime_init_usb_power_down>:
10002928:	4b04      	ldr	r3, [pc, #16]	@ (1000293c <runtime_init_usb_power_down+0x14>)
1000292a:	6cdb      	ldr	r3, [r3, #76]	@ 0x4c
1000292c:	2b00      	cmp	r3, #0
1000292e:	d103      	bne.n	10002938 <runtime_init_usb_power_down+0x10>
10002930:	2280      	movs	r2, #128	@ 0x80
10002932:	4b03      	ldr	r3, [pc, #12]	@ (10002940 <runtime_init_usb_power_down+0x18>)
10002934:	02d2      	lsls	r2, r2, #11
10002936:	601a      	str	r2, [r3, #0]
10002938:	4770      	bx	lr
1000293a:	46c0      	nop			@ (mov r8, r8)
1000293c:	50110000 	.word	0x50110000
10002940:	5011204c 	.word	0x5011204c

10002944 <runtime_init_post_clock_resets>:
10002944:	4a04      	ldr	r2, [pc, #16]	@ (10002958 <runtime_init_post_clock_resets+0x14>)
10002946:	4b05      	ldr	r3, [pc, #20]	@ (1000295c <runtime_init_post_clock_resets+0x18>)
10002948:	601a      	str	r2, [r3, #0]
1000294a:	4a05      	ldr	r2, [pc, #20]	@ (10002960 <runtime_init_post_clock_resets+0x1c>)
1000294c:	6813      	ldr	r3, [r2, #0]
1000294e:	01db      	lsls	r3, r3, #7
10002950:	3380      	adds	r3, #128	@ 0x80
10002952:	d1fb      	bne.n	1000294c <runtime_init_post_clock_resets+0x8>
10002954:	4770      	bx	lr
10002956:	46c0      	nop			@ (mov r8, r8)
10002958:	01ffffff 	.word	0x01ffffff
1000295c:	4000f000 	.word	0x4000f000
10002960:	4000c008 	.word	0x4000c008

10002964 <runtime_init_rp2040_gpio_ie_disable>:
10002964:	2240      	movs	r2, #64	@ 0x40
10002966:	4b03      	ldr	r3, [pc, #12]	@ (10002974 <runtime_init_rp2040_gpio_ie_disable+0x10>)
10002968:	679a      	str	r2, [r3, #120]	@ 0x78
1000296a:	675a      	str	r2, [r3, #116]	@ 0x74
1000296c:	671a      	str	r2, [r3, #112]	@ 0x70
1000296e:	66da      	str	r2, [r3, #108]	@ 0x6c
10002970:	4770      	bx	lr
10002972:	46c0      	nop			@ (mov r8, r8)
10002974:	4001f000 	.word	0x4001f000

10002978 <runtime_init_spin_locks_reset>:
10002978:	b510      	push	{r4, lr}
1000297a:	f7fe ff4f 	bl	1000181c <spin_locks_reset>
1000297e:	bd10      	pop	{r4, pc}

10002980 <runtime_init_install_ram_vector_table>:
10002980:	b5f8      	push	{r3, r4, r5, r6, r7, lr}
10002982:	4927      	ldr	r1, [pc, #156]	@ (10002a20 <runtime_init_install_ram_vector_table+0xa0>)
10002984:	4c27      	ldr	r4, [pc, #156]	@ (10002a24 <runtime_init_install_ram_vector_table+0xa4>)
10002986:	4d28      	ldr	r5, [pc, #160]	@ (10002a28 <runtime_init_install_ram_vector_table+0xa8>)
10002988:	1a64      	subs	r4, r4, r1
1000298a:	10a6      	asrs	r6, r4, #2
1000298c:	0032      	movs	r2, r6
1000298e:	2e30      	cmp	r6, #48	@ 0x30
10002990:	d900      	bls.n	10002994 <runtime_init_install_ram_vector_table+0x14>
10002992:	2230      	movs	r2, #48	@ 0x30
10002994:	0028      	movs	r0, r5
10002996:	0092      	lsls	r2, r2, #2
10002998:	f000 fbf8 	bl	1000318c <__wrap___aeabi_memcpy>
1000299c:	2cbc      	cmp	r4, #188	@ 0xbc
1000299e:	d83b      	bhi.n	10002a18 <runtime_init_install_ram_vector_table+0x98>
100029a0:	2030      	movs	r0, #48	@ 0x30
100029a2:	232f      	movs	r3, #47	@ 0x2f
100029a4:	192c      	adds	r4, r5, r4
100029a6:	0764      	lsls	r4, r4, #29
100029a8:	4a20      	ldr	r2, [pc, #128]	@ (10002a2c <runtime_init_install_ram_vector_table+0xac>)
100029aa:	1b80      	subs	r0, r0, r6
100029ac:	0fe4      	lsrs	r4, r4, #31
100029ae:	1b9b      	subs	r3, r3, r6
100029b0:	2b05      	cmp	r3, #5
100029b2:	d916      	bls.n	100029e2 <runtime_init_install_ram_vector_table+0x62>
100029b4:	0037      	movs	r7, r6
100029b6:	2c00      	cmp	r4, #0
100029b8:	d002      	beq.n	100029c0 <runtime_init_install_ram_vector_table+0x40>
100029ba:	00b3      	lsls	r3, r6, #2
100029bc:	1c77      	adds	r7, r6, #1
100029be:	50ea      	str	r2, [r5, r3]
100029c0:	1b00      	subs	r0, r0, r4
100029c2:	1933      	adds	r3, r6, r4
100029c4:	009b      	lsls	r3, r3, #2
100029c6:	0841      	lsrs	r1, r0, #1
100029c8:	18eb      	adds	r3, r5, r3
100029ca:	00c9      	lsls	r1, r1, #3
100029cc:	18c9      	adds	r1, r1, r3
100029ce:	601a      	str	r2, [r3, #0]
100029d0:	605a      	str	r2, [r3, #4]
100029d2:	3308      	adds	r3, #8
100029d4:	4299      	cmp	r1, r3
100029d6:	d1fa      	bne.n	100029ce <runtime_init_install_ram_vector_table+0x4e>
100029d8:	2301      	movs	r3, #1
100029da:	4203      	tst	r3, r0
100029dc:	d01c      	beq.n	10002a18 <runtime_init_install_ram_vector_table+0x98>
100029de:	4398      	bics	r0, r3
100029e0:	19c6      	adds	r6, r0, r7
100029e2:	00b3      	lsls	r3, r6, #2
100029e4:	50ea      	str	r2, [r5, r3]
100029e6:	1c73      	adds	r3, r6, #1
100029e8:	2e2f      	cmp	r6, #47	@ 0x2f
100029ea:	d015      	beq.n	10002a18 <runtime_init_install_ram_vector_table+0x98>
100029ec:	009b      	lsls	r3, r3, #2
100029ee:	50ea      	str	r2, [r5, r3]
100029f0:	1cb3      	adds	r3, r6, #2
100029f2:	2e2e      	cmp	r6, #46	@ 0x2e
100029f4:	d010      	beq.n	10002a18 <runtime_init_install_ram_vector_table+0x98>
100029f6:	009b      	lsls	r3, r3, #2
100029f8:	50ea      	str	r2, [r5, r3]
100029fa:	1cf3      	adds	r3, r6, #3
100029fc:	2e2d      	cmp	r6, #45	@ 0x2d
100029fe:	d00b      	beq.n	10002a18 <runtime_init_install_ram_vector_table+0x98>
10002a00:	009b      	lsls	r3, r3, #2
10002a02:	50ea      	str	r2, [r5, r3]
10002a04:	1d33      	adds	r3, r6, #4
10002a06:	2e2c      	cmp	r6, #44	@ 0x2c
10002a08:	d006      	beq.n	10002a18 <runtime_init_install_ram_vector_table+0x98>
10002a0a:	009b      	lsls	r3, r3, #2
10002a0c:	50ea      	str	r2, [r5, r3]
10002a0e:	1d73      	adds	r3, r6, #5
10002a10:	2e2b      	cmp	r6, #43	@ 0x2b
10002a12:	d001      	beq.n	10002a18 <runtime_init_install_ram_vector_table+0x98>
10002a14:	009b      	lsls	r3, r3, #2
10002a16:	50ea      	str	r2, [r5, r3]
10002a18:	4b05      	ldr	r3, [pc, #20]	@ (10002a30 <runtime_init_install_ram_vector_table+0xb0>)
10002a1a:	609d      	str	r5, [r3, #8]
10002a1c:	bdf8      	pop	{r3, r4, r5, r6, r7, pc}
10002a1e:	46c0      	nop			@ (mov r8, r8)
10002a20:	10000100 	.word	0x10000100
10002a24:	100001c0 	.word	0x100001c0
10002a28:	20000000 	.word	0x20000000
10002a2c:	100001c1 	.word	0x100001c1
10002a30:	e000ed00 	.word	0xe000ed00

10002a34 <runtime_init_clocks>:
10002a34:	2300      	movs	r3, #0
10002a36:	b510      	push	{r4, lr}
10002a38:	4c29      	ldr	r4, [pc, #164]	@ (10002ae0 <runtime_init_clocks+0xac>)
10002a3a:	b082      	sub	sp, #8
10002a3c:	67a3      	str	r3, [r4, #120]	@ 0x78
10002a3e:	f7ff ff2d 	bl	1000289c <xosc_init>
10002a42:	2201      	movs	r2, #1
10002a44:	4b27      	ldr	r3, [pc, #156]	@ (10002ae4 <runtime_init_clocks+0xb0>)
10002a46:	601a      	str	r2, [r3, #0]
10002a48:	6c63      	ldr	r3, [r4, #68]	@ 0x44
10002a4a:	2b01      	cmp	r3, #1
10002a4c:	d1fc      	bne.n	10002a48 <runtime_init_clocks+0x14>
10002a4e:	2203      	movs	r2, #3
10002a50:	4b25      	ldr	r3, [pc, #148]	@ (10002ae8 <runtime_init_clocks+0xb4>)
10002a52:	601a      	str	r2, [r3, #0]
10002a54:	4a22      	ldr	r2, [pc, #136]	@ (10002ae0 <runtime_init_clocks+0xac>)
10002a56:	6b93      	ldr	r3, [r2, #56]	@ 0x38
10002a58:	2b01      	cmp	r3, #1
10002a5a:	d1fc      	bne.n	10002a56 <runtime_init_clocks+0x22>
10002a5c:	3301      	adds	r3, #1
10002a5e:	9300      	str	r3, [sp, #0]
10002a60:	2101      	movs	r1, #1
10002a62:	4a22      	ldr	r2, [pc, #136]	@ (10002aec <runtime_init_clocks+0xb8>)
10002a64:	4822      	ldr	r0, [pc, #136]	@ (10002af0 <runtime_init_clocks+0xbc>)
10002a66:	3304      	adds	r3, #4
10002a68:	f7ff fe8c 	bl	10002784 <pll_init>
10002a6c:	2305      	movs	r3, #5
10002a6e:	2101      	movs	r1, #1
10002a70:	9300      	str	r3, [sp, #0]
10002a72:	4a20      	ldr	r2, [pc, #128]	@ (10002af4 <runtime_init_clocks+0xc0>)
10002a74:	4820      	ldr	r0, [pc, #128]	@ (10002af8 <runtime_init_clocks+0xc4>)
10002a76:	f7ff fe85 	bl	10002784 <pll_init>
10002a7a:	2200      	movs	r2, #0
10002a7c:	2102      	movs	r1, #2
10002a7e:	2004      	movs	r0, #4
10002a80:	4b1e      	ldr	r3, [pc, #120]	@ (10002afc <runtime_init_clocks+0xc8>)
10002a82:	f7ff fe05 	bl	10002690 <clock_configure_undivided>
10002a86:	2200      	movs	r2, #0
10002a88:	2101      	movs	r1, #1
10002a8a:	2005      	movs	r0, #5
10002a8c:	4b1c      	ldr	r3, [pc, #112]	@ (10002b00 <runtime_init_clocks+0xcc>)
10002a8e:	f7ff fdff 	bl	10002690 <clock_configure_undivided>
10002a92:	2200      	movs	r2, #0
10002a94:	2100      	movs	r1, #0
10002a96:	2007      	movs	r0, #7
10002a98:	4b1a      	ldr	r3, [pc, #104]	@ (10002b04 <runtime_init_clocks+0xd0>)
10002a9a:	f7ff fdf9 	bl	10002690 <clock_configure_undivided>
10002a9e:	2200      	movs	r2, #0
10002aa0:	2100      	movs	r1, #0
10002aa2:	2008      	movs	r0, #8
10002aa4:	4b17      	ldr	r3, [pc, #92]	@ (10002b04 <runtime_init_clocks+0xd0>)
10002aa6:	f7ff fdf3 	bl	10002690 <clock_configure_undivided>
10002aaa:	2380      	movs	r3, #128	@ 0x80
10002aac:	00db      	lsls	r3, r3, #3
10002aae:	9300      	str	r3, [sp, #0]
10002ab0:	2200      	movs	r2, #0
10002ab2:	2100      	movs	r1, #0
10002ab4:	2009      	movs	r0, #9
10002ab6:	4b13      	ldr	r3, [pc, #76]	@ (10002b04 <runtime_init_clocks+0xd0>)
10002ab8:	f7ff fd70 	bl	1000259c <clock_configure_int_divider>
10002abc:	2200      	movs	r2, #0
10002abe:	4b10      	ldr	r3, [pc, #64]	@ (10002b00 <runtime_init_clocks+0xcc>)
10002ac0:	2100      	movs	r1, #0
10002ac2:	2006      	movs	r0, #6
10002ac4:	f7ff fde4 	bl	10002690 <clock_configure_undivided>
10002ac8:	2004      	movs	r0, #4
10002aca:	f7ff fe55 	bl	10002778 <clock_get_hz>
10002ace:	490e      	ldr	r1, [pc, #56]	@ (10002b08 <runtime_init_clocks+0xd4>)
10002ad0:	f000 f84c 	bl	10002b6c <__wrap___aeabi_uidiv>
10002ad4:	0001      	movs	r1, r0
10002ad6:	2000      	movs	r0, #0
10002ad8:	f7ff fea6 	bl	10002828 <tick_start>
10002adc:	b002      	add	sp, #8
10002ade:	bd10      	pop	{r4, pc}
10002ae0:	40008000 	.word	0x40008000
10002ae4:	4000b03c 	.word	0x4000b03c
10002ae8:	4000b030 	.word	0x4000b030
10002aec:	59682f00 	.word	0x59682f00
10002af0:	40028000 	.word	0x40028000
10002af4:	47868c00 	.word	0x47868c00
10002af8:	4002c000 	.word	0x4002c000
10002afc:	00b71b00 	.word	0x00b71b00
10002b00:	07735940 	.word	0x07735940
10002b04:	02dc6c00 	.word	0x02dc6c00
10002b08:	000f4240 	.word	0x000f4240

10002b0c <__aeabi_bits_init>:
10002b0c:	4801      	ldr	r0, [pc, #4]	@ (10002b14 <__aeabi_bits_init+0x8>)
10002b0e:	2104      	movs	r1, #4
10002b10:	4b01      	ldr	r3, [pc, #4]	@ (10002b18 <__aeabi_bits_init+0xc>)
10002b12:	4718      	bx	r3
10002b14:	20000ea0 	.word	0x20000ea0
10002b18:	10002859 	.word	0x10002859

10002b1c <__wrap___aeabi_idiv>:
10002b1c:	4a12      	ldr	r2, [pc, #72]	@ (10002b68 <divmod_s32s32_savestate+0x18>)
10002b1e:	6f93      	ldr	r3, [r2, #120]	@ 0x78
10002b20:	089b      	lsrs	r3, r3, #2
10002b22:	d215      	bcs.n	10002b50 <divmod_s32s32_savestate>

10002b24 <divmod_s32s32_unsafe>:
10002b24:	6690      	str	r0, [r2, #104]	@ 0x68
10002b26:	66d1      	str	r1, [r2, #108]	@ 0x6c
10002b28:	2900      	cmp	r1, #0
10002b2a:	d005      	beq.n	10002b38 <divmod_s32s32_unsafe+0x14>
10002b2c:	e7ff      	b.n	10002b2e <divmod_s32s32_unsafe+0xa>
10002b2e:	e7ff      	b.n	10002b30 <divmod_s32s32_unsafe+0xc>
10002b30:	e7ff      	b.n	10002b32 <divmod_s32s32_unsafe+0xe>
10002b32:	6f51      	ldr	r1, [r2, #116]	@ 0x74
10002b34:	6f10      	ldr	r0, [r2, #112]	@ 0x70
10002b36:	4770      	bx	lr
10002b38:	b504      	push	{r2, lr}
10002b3a:	2180      	movs	r1, #128	@ 0x80
10002b3c:	0609      	lsls	r1, r1, #24
10002b3e:	17c2      	asrs	r2, r0, #31
10002b40:	4051      	eors	r1, r2
10002b42:	2800      	cmp	r0, #0
10002b44:	d000      	beq.n	10002b48 <divmod_s32s32_unsafe+0x24>
10002b46:	43c8      	mvns	r0, r1
10002b48:	f002 f82a 	bl	10004ba0 <____aeabi_idiv0_veneer>
10002b4c:	2100      	movs	r1, #0
10002b4e:	bd04      	pop	{r2, pc}

10002b50 <divmod_s32s32_savestate>:
10002b50:	b5f0      	push	{r4, r5, r6, r7, lr}
10002b52:	6e14      	ldr	r4, [r2, #96]	@ 0x60
10002b54:	6e55      	ldr	r5, [r2, #100]	@ 0x64
10002b56:	6f57      	ldr	r7, [r2, #116]	@ 0x74
10002b58:	6f16      	ldr	r6, [r2, #112]	@ 0x70
10002b5a:	f7ff ffe3 	bl	10002b24 <divmod_s32s32_unsafe>
10002b5e:	6614      	str	r4, [r2, #96]	@ 0x60
10002b60:	6655      	str	r5, [r2, #100]	@ 0x64
10002b62:	6757      	str	r7, [r2, #116]	@ 0x74
10002b64:	6716      	str	r6, [r2, #112]	@ 0x70
10002b66:	bdf0      	pop	{r4, r5, r6, r7, pc}
10002b68:	d0000000 	.word	0xd0000000

10002b6c <__wrap___aeabi_uidiv>:
10002b6c:	4a11      	ldr	r2, [pc, #68]	@ (10002bb4 <divmod_u32u32_savestate+0x18>)
10002b6e:	6f93      	ldr	r3, [r2, #120]	@ 0x78
10002b70:	089b      	lsrs	r3, r3, #2
10002b72:	d213      	bcs.n	10002b9c <divmod_u32u32_savestate>

10002b74 <divmod_u32u32_unsafe>:
10002b74:	6610      	str	r0, [r2, #96]	@ 0x60
10002b76:	6651      	str	r1, [r2, #100]	@ 0x64
10002b78:	2900      	cmp	r1, #0
10002b7a:	d005      	beq.n	10002b88 <divmod_u32u32_unsafe+0x14>
10002b7c:	e7ff      	b.n	10002b7e <divmod_u32u32_unsafe+0xa>
10002b7e:	e7ff      	b.n	10002b80 <divmod_u32u32_unsafe+0xc>
10002b80:	e7ff      	b.n	10002b82 <divmod_u32u32_unsafe+0xe>
10002b82:	6f51      	ldr	r1, [r2, #116]	@ 0x74
10002b84:	6f10      	ldr	r0, [r2, #112]	@ 0x70
10002b86:	4770      	bx	lr
10002b88:	b504      	push	{r2, lr}
10002b8a:	2800      	cmp	r0, #0
10002b8c:	d001      	beq.n	10002b92 <divmod_u32u32_unsafe+0x1e>
10002b8e:	2000      	movs	r0, #0
10002b90:	43c0      	mvns	r0, r0
10002b92:	f002 f805 	bl	10004ba0 <____aeabi_idiv0_veneer>
10002b96:	2100      	movs	r1, #0
10002b98:	bd04      	pop	{r2, pc}
10002b9a:	46c0      	nop			@ (mov r8, r8)

10002b9c <divmod_u32u32_savestate>:
10002b9c:	b5f0      	push	{r4, r5, r6, r7, lr}
10002b9e:	6e14      	ldr	r4, [r2, #96]	@ 0x60
10002ba0:	6e55      	ldr	r5, [r2, #100]	@ 0x64
10002ba2:	6f57      	ldr	r7, [r2, #116]	@ 0x74
10002ba4:	6f16      	ldr	r6, [r2, #112]	@ 0x70
10002ba6:	f7ff ffe5 	bl	10002b74 <divmod_u32u32_unsafe>
10002baa:	6614      	str	r4, [r2, #96]	@ 0x60
10002bac:	6655      	str	r5, [r2, #100]	@ 0x64
10002bae:	6757      	str	r7, [r2, #116]	@ 0x74
10002bb0:	6716      	str	r6, [r2, #112]	@ 0x70
10002bb2:	bdf0      	pop	{r4, r5, r6, r7, pc}
10002bb4:	d0000000 	.word	0xd0000000

10002bb8 <__wrap___aeabi_ldivmod>:
10002bb8:	4694      	mov	ip, r2
10002bba:	4a4a      	ldr	r2, [pc, #296]	@ (10002ce4 <udiv0+0x1a>)
10002bbc:	6f92      	ldr	r2, [r2, #120]	@ 0x78
10002bbe:	0892      	lsrs	r2, r2, #2
10002bc0:	4662      	mov	r2, ip
10002bc2:	d201      	bcs.n	10002bc8 <divmod_s64s64_savestate>
10002bc4:	e028      	b.n	10002c18 <divmod_s64s64_unsafe>
10002bc6:	46c0      	nop			@ (mov r8, r8)

10002bc8 <divmod_s64s64_savestate>:
10002bc8:	b5f0      	push	{r4, r5, r6, r7, lr}
10002bca:	4e46      	ldr	r6, [pc, #280]	@ (10002ce4 <udiv0+0x1a>)
10002bcc:	6e34      	ldr	r4, [r6, #96]	@ 0x60
10002bce:	6e75      	ldr	r5, [r6, #100]	@ 0x64
10002bd0:	6f77      	ldr	r7, [r6, #116]	@ 0x74
10002bd2:	6f36      	ldr	r6, [r6, #112]	@ 0x70
10002bd4:	f000 f820 	bl	10002c18 <divmod_s64s64_unsafe>
10002bd8:	4694      	mov	ip, r2
10002bda:	4a42      	ldr	r2, [pc, #264]	@ (10002ce4 <udiv0+0x1a>)
10002bdc:	6614      	str	r4, [r2, #96]	@ 0x60
10002bde:	6655      	str	r5, [r2, #100]	@ 0x64
10002be0:	6757      	str	r7, [r2, #116]	@ 0x74
10002be2:	6716      	str	r6, [r2, #112]	@ 0x70
10002be4:	4662      	mov	r2, ip
10002be6:	bdf0      	pop	{r4, r5, r6, r7, pc}

10002be8 <__wrap___aeabi_uldivmod>:
10002be8:	4694      	mov	ip, r2
10002bea:	4a3e      	ldr	r2, [pc, #248]	@ (10002ce4 <udiv0+0x1a>)
10002bec:	6f92      	ldr	r2, [r2, #120]	@ 0x78
10002bee:	0892      	lsrs	r2, r2, #2
10002bf0:	4662      	mov	r2, ip
10002bf2:	d201      	bcs.n	10002bf8 <divmod_u64u64_savestate>
10002bf4:	e054      	b.n	10002ca0 <divmod_u64u64_unsafe>
10002bf6:	46c0      	nop			@ (mov r8, r8)

10002bf8 <divmod_u64u64_savestate>:
10002bf8:	b5f0      	push	{r4, r5, r6, r7, lr}
10002bfa:	4e3a      	ldr	r6, [pc, #232]	@ (10002ce4 <udiv0+0x1a>)
10002bfc:	6e34      	ldr	r4, [r6, #96]	@ 0x60
10002bfe:	6e75      	ldr	r5, [r6, #100]	@ 0x64
10002c00:	6f77      	ldr	r7, [r6, #116]	@ 0x74
10002c02:	6f36      	ldr	r6, [r6, #112]	@ 0x70
10002c04:	f000 f84c 	bl	10002ca0 <divmod_u64u64_unsafe>
10002c08:	4694      	mov	ip, r2
10002c0a:	4a36      	ldr	r2, [pc, #216]	@ (10002ce4 <udiv0+0x1a>)
10002c0c:	6614      	str	r4, [r2, #96]	@ 0x60
10002c0e:	6655      	str	r5, [r2, #100]	@ 0x64
10002c10:	6757      	str	r7, [r2, #116]	@ 0x74
10002c12:	6716      	str	r6, [r2, #112]	@ 0x70
10002c14:	4662      	mov	r2, ip
10002c16:	bdf0      	pop	{r4, r5, r6, r7, pc}

10002c18 <divmod_s64s64_unsafe>:
10002c18:	2b00      	cmp	r3, #0
10002c1a:	db24      	blt.n	10002c66 <l42_1+0x26>
10002c1c:	d011      	beq.n	10002c42 <l42_1+0x2>
10002c1e:	2900      	cmp	r1, #0
10002c20:	da3e      	bge.n	10002ca0 <divmod_u64u64_unsafe>
10002c22:	b500      	push	{lr}
10002c24:	43c9      	mvns	r1, r1
10002c26:	4240      	negs	r0, r0
10002c28:	d100      	bne.n	10002c2c <l40_1>
10002c2a:	3101      	adds	r1, #1

10002c2c <l40_1>:
10002c2c:	f000 f838 	bl	10002ca0 <divmod_u64u64_unsafe>
10002c30:	43c9      	mvns	r1, r1
10002c32:	4240      	negs	r0, r0
10002c34:	d100      	bne.n	10002c38 <l41_1>
10002c36:	3101      	adds	r1, #1

10002c38 <l41_1>:
10002c38:	43db      	mvns	r3, r3
10002c3a:	4252      	negs	r2, r2
10002c3c:	d100      	bne.n	10002c40 <l42_1>
10002c3e:	3301      	adds	r3, #1

10002c40 <l42_1>:
10002c40:	bd00      	pop	{pc}
10002c42:	2a00      	cmp	r2, #0
10002c44:	d1eb      	bne.n	10002c1e <divmod_s64s64_unsafe+0x6>
10002c46:	2800      	cmp	r0, #0
10002c48:	d101      	bne.n	10002c4e <l42_1+0xe>
10002c4a:	2900      	cmp	r1, #0
10002c4c:	d005      	beq.n	10002c5a <l42_1+0x1a>
10002c4e:	2000      	movs	r0, #0
10002c50:	0fc9      	lsrs	r1, r1, #31
10002c52:	07c9      	lsls	r1, r1, #31
10002c54:	d101      	bne.n	10002c5a <l42_1+0x1a>
10002c56:	43c0      	mvns	r0, r0
10002c58:	0841      	lsrs	r1, r0, #1
10002c5a:	b500      	push	{lr}
10002c5c:	f001 ff90 	bl	10004b80 <____aeabi_ldiv0_veneer>
10002c60:	2200      	movs	r2, #0
10002c62:	2300      	movs	r3, #0
10002c64:	bd00      	pop	{pc}
10002c66:	b500      	push	{lr}
10002c68:	2900      	cmp	r1, #0
10002c6a:	db0a      	blt.n	10002c82 <l44_1+0x2>
10002c6c:	43db      	mvns	r3, r3
10002c6e:	4252      	negs	r2, r2
10002c70:	d100      	bne.n	10002c74 <l43_1>
10002c72:	3301      	adds	r3, #1

10002c74 <l43_1>:
10002c74:	f000 f814 	bl	10002ca0 <divmod_u64u64_unsafe>
10002c78:	43c9      	mvns	r1, r1
10002c7a:	4240      	negs	r0, r0
10002c7c:	d100      	bne.n	10002c80 <l44_1>
10002c7e:	3101      	adds	r1, #1

10002c80 <l44_1>:
10002c80:	bd00      	pop	{pc}
10002c82:	43c9      	mvns	r1, r1
10002c84:	4240      	negs	r0, r0
10002c86:	d100      	bne.n	10002c8a <l45_1>
10002c88:	3101      	adds	r1, #1

10002c8a <l45_1>:
10002c8a:	43db      	mvns	r3, r3
10002c8c:	4252      	negs	r2, r2
10002c8e:	d100      	bne.n	10002c92 <l46_1>
10002c90:	3301      	adds	r3, #1

10002c92 <l46_1>:
10002c92:	f000 f805 	bl	10002ca0 <divmod_u64u64_unsafe>
10002c96:	43db      	mvns	r3, r3
10002c98:	4252      	negs	r2, r2
10002c9a:	d100      	bne.n	10002c9e <l47_1>
10002c9c:	3301      	adds	r3, #1

10002c9e <l47_1>:
10002c9e:	bd00      	pop	{pc}

10002ca0 <divmod_u64u64_unsafe>:
10002ca0:	2900      	cmp	r1, #0
10002ca2:	d123      	bne.n	10002cec <y64>
10002ca4:	2b00      	cmp	r3, #0
10002ca6:	d118      	bne.n	10002cda <udiv0+0x10>
10002ca8:	2a00      	cmp	r2, #0
10002caa:	d00c      	beq.n	10002cc6 <divmod_u64u64_unsafe+0x26>
10002cac:	46bc      	mov	ip, r7
10002cae:	4f0d      	ldr	r7, [pc, #52]	@ (10002ce4 <udiv0+0x1a>)
10002cb0:	6638      	str	r0, [r7, #96]	@ 0x60
10002cb2:	667a      	str	r2, [r7, #100]	@ 0x64
10002cb4:	2100      	movs	r1, #0
10002cb6:	2300      	movs	r3, #0
10002cb8:	e7ff      	b.n	10002cba <divmod_u64u64_unsafe+0x1a>
10002cba:	e7ff      	b.n	10002cbc <divmod_u64u64_unsafe+0x1c>
10002cbc:	e7ff      	b.n	10002cbe <divmod_u64u64_unsafe+0x1e>
10002cbe:	6f7a      	ldr	r2, [r7, #116]	@ 0x74
10002cc0:	6f38      	ldr	r0, [r7, #112]	@ 0x70
10002cc2:	4667      	mov	r7, ip
10002cc4:	4770      	bx	lr
10002cc6:	2800      	cmp	r0, #0
10002cc8:	d001      	beq.n	10002cce <udiv0+0x4>

10002cca <udiv0>:
10002cca:	4807      	ldr	r0, [pc, #28]	@ (10002ce8 <udiv0+0x1e>)
10002ccc:	0001      	movs	r1, r0
10002cce:	b500      	push	{lr}
10002cd0:	f001 ff56 	bl	10004b80 <____aeabi_ldiv0_veneer>
10002cd4:	2200      	movs	r2, #0
10002cd6:	2300      	movs	r3, #0
10002cd8:	bd00      	pop	{pc}
10002cda:	0002      	movs	r2, r0
10002cdc:	000b      	movs	r3, r1
10002cde:	2000      	movs	r0, #0
10002ce0:	2100      	movs	r1, #0
10002ce2:	4770      	bx	lr
10002ce4:	d0000000 	.word	0xd0000000
10002ce8:	ffffffff 	.word	0xffffffff

10002cec <y64>:
10002cec:	2b00      	cmp	r3, #0
10002cee:	d000      	beq.n	10002cf2 <y64+0x6>
10002cf0:	e0bf      	b.n	10002e72 <y64_x48>
10002cf2:	0c13      	lsrs	r3, r2, #16
10002cf4:	d128      	bne.n	10002d48 <y64_x32>
10002cf6:	2a00      	cmp	r2, #0
10002cf8:	d0e7      	beq.n	10002cca <udiv0>
10002cfa:	b480      	push	{r7}
10002cfc:	4f11      	ldr	r7, [pc, #68]	@ (10002d44 <y64+0x58>)
10002cfe:	6639      	str	r1, [r7, #96]	@ 0x60
10002d00:	667a      	str	r2, [r7, #100]	@ 0x64
10002d02:	e7ff      	b.n	10002d04 <y64+0x18>
10002d04:	e7ff      	b.n	10002d06 <y64+0x1a>
10002d06:	b430      	push	{r4, r5}
10002d08:	0c04      	lsrs	r4, r0, #16
10002d0a:	6f7b      	ldr	r3, [r7, #116]	@ 0x74
10002d0c:	6f39      	ldr	r1, [r7, #112]	@ 0x70
10002d0e:	041b      	lsls	r3, r3, #16
10002d10:	4323      	orrs	r3, r4
10002d12:	663b      	str	r3, [r7, #96]	@ 0x60
10002d14:	667a      	str	r2, [r7, #100]	@ 0x64
10002d16:	e7ff      	b.n	10002d18 <y64+0x2c>
10002d18:	e7ff      	b.n	10002d1a <y64+0x2e>
10002d1a:	e7ff      	b.n	10002d1c <y64+0x30>
10002d1c:	46c0      	nop			@ (mov r8, r8)
10002d1e:	b284      	uxth	r4, r0
10002d20:	6f7b      	ldr	r3, [r7, #116]	@ 0x74
10002d22:	6f3d      	ldr	r5, [r7, #112]	@ 0x70
10002d24:	041b      	lsls	r3, r3, #16
10002d26:	4323      	orrs	r3, r4
10002d28:	663b      	str	r3, [r7, #96]	@ 0x60
10002d2a:	667a      	str	r2, [r7, #100]	@ 0x64
10002d2c:	e7ff      	b.n	10002d2e <y64+0x42>
10002d2e:	e7ff      	b.n	10002d30 <y64+0x44>
10002d30:	46c0      	nop			@ (mov r8, r8)
10002d32:	2300      	movs	r3, #0
10002d34:	042c      	lsls	r4, r5, #16
10002d36:	0c2d      	lsrs	r5, r5, #16
10002d38:	6f7a      	ldr	r2, [r7, #116]	@ 0x74
10002d3a:	6f38      	ldr	r0, [r7, #112]	@ 0x70
10002d3c:	1900      	adds	r0, r0, r4
10002d3e:	4169      	adcs	r1, r5
10002d40:	bcb0      	pop	{r4, r5, r7}
10002d42:	4770      	bx	lr
10002d44:	d0000000 	.word	0xd0000000

10002d48 <y64_x32>:
10002d48:	b5f0      	push	{r4, r5, r6, r7, lr}
10002d4a:	4694      	mov	ip, r2
10002d4c:	2500      	movs	r5, #0
10002d4e:	0e14      	lsrs	r4, r2, #24
10002d50:	d101      	bne.n	10002d56 <y64_x32+0xe>
10002d52:	0212      	lsls	r2, r2, #8
10002d54:	3508      	adds	r5, #8
10002d56:	0f14      	lsrs	r4, r2, #28
10002d58:	d101      	bne.n	10002d5e <y64_x32+0x16>
10002d5a:	0112      	lsls	r2, r2, #4
10002d5c:	3504      	adds	r5, #4
10002d5e:	0f94      	lsrs	r4, r2, #30
10002d60:	d101      	bne.n	10002d66 <y64_x32+0x1e>
10002d62:	0092      	lsls	r2, r2, #2
10002d64:	3502      	adds	r5, #2
10002d66:	0fd4      	lsrs	r4, r2, #31
10002d68:	d101      	bne.n	10002d6e <y64_x32+0x26>
10002d6a:	0052      	lsls	r2, r2, #1
10002d6c:	3501      	adds	r5, #1
10002d6e:	0bd4      	lsrs	r4, r2, #15
10002d70:	3401      	adds	r4, #1
10002d72:	4f25      	ldr	r7, [pc, #148]	@ (10002e08 <y64_x32+0xc0>)
10002d74:	667c      	str	r4, [r7, #100]	@ 0x64
10002d76:	4c25      	ldr	r4, [pc, #148]	@ (10002e0c <y64_x32+0xc4>)
10002d78:	663c      	str	r4, [r7, #96]	@ 0x60
10002d7a:	0c0e      	lsrs	r6, r1, #16
10002d7c:	b293      	uxth	r3, r2
10002d7e:	e7ff      	b.n	10002d80 <y64_x32+0x38>
10002d80:	e7ff      	b.n	10002d82 <y64_x32+0x3a>
10002d82:	e7ff      	b.n	10002d84 <y64_x32+0x3c>
10002d84:	6f3c      	ldr	r4, [r7, #112]	@ 0x70
10002d86:	4366      	muls	r6, r4
10002d88:	0c36      	lsrs	r6, r6, #16
10002d8a:	0377      	lsls	r7, r6, #13
10002d8c:	46be      	mov	lr, r7
10002d8e:	4373      	muls	r3, r6
10002d90:	0bdf      	lsrs	r7, r3, #15
10002d92:	045b      	lsls	r3, r3, #17
10002d94:	1ac0      	subs	r0, r0, r3
10002d96:	41b9      	sbcs	r1, r7
10002d98:	0c13      	lsrs	r3, r2, #16
10002d9a:	4373      	muls	r3, r6
10002d9c:	18db      	adds	r3, r3, r3
10002d9e:	1ac9      	subs	r1, r1, r3
10002da0:	08ce      	lsrs	r6, r1, #3
10002da2:	4366      	muls	r6, r4
10002da4:	0c36      	lsrs	r6, r6, #16
10002da6:	44b6      	add	lr, r6
10002da8:	b293      	uxth	r3, r2
10002daa:	4373      	muls	r3, r6
10002dac:	0f1f      	lsrs	r7, r3, #28
10002dae:	011b      	lsls	r3, r3, #4
10002db0:	1ac0      	subs	r0, r0, r3
10002db2:	41b9      	sbcs	r1, r7
10002db4:	0c13      	lsrs	r3, r2, #16
10002db6:	4373      	muls	r3, r6
10002db8:	0b1f      	lsrs	r7, r3, #12
10002dba:	051b      	lsls	r3, r3, #20
10002dbc:	1ac0      	subs	r0, r0, r3
10002dbe:	41b9      	sbcs	r1, r7
10002dc0:	0d86      	lsrs	r6, r0, #22
10002dc2:	028f      	lsls	r7, r1, #10
10002dc4:	433e      	orrs	r6, r7
10002dc6:	4366      	muls	r6, r4
10002dc8:	0c36      	lsrs	r6, r6, #16
10002dca:	2d09      	cmp	r5, #9
10002dcc:	db24      	blt.n	10002e18 <last0>
10002dce:	0a52      	lsrs	r2, r2, #9
10002dd0:	4372      	muls	r2, r6
10002dd2:	1a80      	subs	r0, r0, r2
10002dd4:	0377      	lsls	r7, r6, #13
10002dd6:	0a46      	lsrs	r6, r0, #9
10002dd8:	4366      	muls	r6, r4
10002dda:	0c36      	lsrs	r6, r6, #16
10002ddc:	2316      	movs	r3, #22
10002dde:	1b5b      	subs	r3, r3, r5
10002de0:	40de      	lsrs	r6, r3
10002de2:	40df      	lsrs	r7, r3
10002de4:	19bf      	adds	r7, r7, r6
10002de6:	4664      	mov	r4, ip
10002de8:	4366      	muls	r6, r4
10002dea:	1b82      	subs	r2, r0, r6
10002dec:	4670      	mov	r0, lr
10002dee:	3504      	adds	r5, #4
10002df0:	3306      	adds	r3, #6
10002df2:	0001      	movs	r1, r0
10002df4:	40d9      	lsrs	r1, r3
10002df6:	40a8      	lsls	r0, r5
10002df8:	19c0      	adds	r0, r0, r7
10002dfa:	d300      	bcc.n	10002dfe <y64_x32+0xb6>
10002dfc:	3101      	adds	r1, #1
10002dfe:	42a2      	cmp	r2, r4
10002e00:	d206      	bcs.n	10002e10 <y64_x32+0xc8>
10002e02:	2300      	movs	r3, #0
10002e04:	bdf0      	pop	{r4, r5, r6, r7, pc}
10002e06:	0000      	.short	0x0000
10002e08:	d0000000 	.word	0xd0000000
10002e0c:	ffffffff 	.word	0xffffffff
10002e10:	1b12      	subs	r2, r2, r4
10002e12:	3001      	adds	r0, #1
10002e14:	d3f3      	bcc.n	10002dfe <y64_x32+0xb6>
10002e16:	e7f1      	b.n	10002dfc <y64_x32+0xb4>

10002e18 <last0>:
10002e18:	2709      	movs	r7, #9
10002e1a:	1b7f      	subs	r7, r7, r5
10002e1c:	40fe      	lsrs	r6, r7
10002e1e:	4664      	mov	r4, ip
10002e20:	b2a2      	uxth	r2, r4
10002e22:	4372      	muls	r2, r6
10002e24:	1a80      	subs	r0, r0, r2
10002e26:	d200      	bcs.n	10002e2a <last0+0x12>
10002e28:	3901      	subs	r1, #1
10002e2a:	0c22      	lsrs	r2, r4, #16
10002e2c:	4372      	muls	r2, r6
10002e2e:	0c13      	lsrs	r3, r2, #16
10002e30:	0412      	lsls	r2, r2, #16
10002e32:	1a82      	subs	r2, r0, r2
10002e34:	4199      	sbcs	r1, r3
10002e36:	000b      	movs	r3, r1
10002e38:	4670      	mov	r0, lr
10002e3a:	3504      	adds	r5, #4
10002e3c:	3713      	adds	r7, #19
10002e3e:	0001      	movs	r1, r0
10002e40:	40f9      	lsrs	r1, r7
10002e42:	40a8      	lsls	r0, r5
10002e44:	1980      	adds	r0, r0, r6
10002e46:	d300      	bcc.n	10002e4a <last0+0x32>
10002e48:	3101      	adds	r1, #1
10002e4a:	2b00      	cmp	r3, #0
10002e4c:	d102      	bne.n	10002e54 <last0+0x3c>
10002e4e:	42a2      	cmp	r2, r4
10002e50:	d20a      	bcs.n	10002e68 <last0+0x50>
10002e52:	bdf0      	pop	{r4, r5, r6, r7, pc}
10002e54:	3001      	adds	r0, #1
10002e56:	d300      	bcc.n	10002e5a <last0+0x42>
10002e58:	3101      	adds	r1, #1
10002e5a:	1b12      	subs	r2, r2, r4
10002e5c:	d2fa      	bcs.n	10002e54 <last0+0x3c>
10002e5e:	3b01      	subs	r3, #1
10002e60:	d1f8      	bne.n	10002e54 <last0+0x3c>
10002e62:	42a2      	cmp	r2, r4
10002e64:	d200      	bcs.n	10002e68 <last0+0x50>
10002e66:	bdf0      	pop	{r4, r5, r6, r7, pc}
10002e68:	3001      	adds	r0, #1
10002e6a:	d300      	bcc.n	10002e6e <last0+0x56>
10002e6c:	3101      	adds	r1, #1
10002e6e:	1b12      	subs	r2, r2, r4
10002e70:	e7f7      	b.n	10002e62 <last0+0x4a>

10002e72 <y64_x48>:
10002e72:	b5f0      	push	{r4, r5, r6, r7, lr}
10002e74:	0c1c      	lsrs	r4, r3, #16
10002e76:	d000      	beq.n	10002e7a <y64_x48+0x8>
10002e78:	e080      	b.n	10002f7c <y64_x64>
10002e7a:	b40c      	push	{r2, r3}
10002e7c:	2500      	movs	r5, #0
10002e7e:	0a1c      	lsrs	r4, r3, #8
10002e80:	d104      	bne.n	10002e8c <y64_x48+0x1a>
10002e82:	021b      	lsls	r3, r3, #8
10002e84:	0e16      	lsrs	r6, r2, #24
10002e86:	4333      	orrs	r3, r6
10002e88:	0212      	lsls	r2, r2, #8
10002e8a:	3508      	adds	r5, #8
10002e8c:	0b1c      	lsrs	r4, r3, #12
10002e8e:	d104      	bne.n	10002e9a <y64_x48+0x28>
10002e90:	011b      	lsls	r3, r3, #4
10002e92:	0f16      	lsrs	r6, r2, #28
10002e94:	4333      	orrs	r3, r6
10002e96:	0112      	lsls	r2, r2, #4
10002e98:	3504      	adds	r5, #4
10002e9a:	0b9c      	lsrs	r4, r3, #14
10002e9c:	d104      	bne.n	10002ea8 <y64_x48+0x36>
10002e9e:	009b      	lsls	r3, r3, #2
10002ea0:	0f96      	lsrs	r6, r2, #30
10002ea2:	4333      	orrs	r3, r6
10002ea4:	0092      	lsls	r2, r2, #2
10002ea6:	3502      	adds	r5, #2
10002ea8:	0bdc      	lsrs	r4, r3, #15
10002eaa:	d102      	bne.n	10002eb2 <y64_x48+0x40>
10002eac:	1892      	adds	r2, r2, r2
10002eae:	415b      	adcs	r3, r3
10002eb0:	3501      	adds	r5, #1
10002eb2:	001c      	movs	r4, r3
10002eb4:	1897      	adds	r7, r2, r2
10002eb6:	4164      	adcs	r4, r4
10002eb8:	3401      	adds	r4, #1
10002eba:	4f46      	ldr	r7, [pc, #280]	@ (10002fd4 <y64_x64+0x58>)
10002ebc:	667c      	str	r4, [r7, #100]	@ 0x64
10002ebe:	4c46      	ldr	r4, [pc, #280]	@ (10002fd8 <y64_x64+0x5c>)
10002ec0:	663c      	str	r4, [r7, #96]	@ 0x60
10002ec2:	0c0e      	lsrs	r6, r1, #16
10002ec4:	e7ff      	b.n	10002ec6 <y64_x48+0x54>
10002ec6:	e7ff      	b.n	10002ec8 <y64_x48+0x56>
10002ec8:	e7ff      	b.n	10002eca <y64_x48+0x58>
10002eca:	46c0      	nop			@ (mov r8, r8)
10002ecc:	6f3c      	ldr	r4, [r7, #112]	@ 0x70
10002ece:	4366      	muls	r6, r4
10002ed0:	0c36      	lsrs	r6, r6, #16
10002ed2:	0377      	lsls	r7, r6, #13
10002ed4:	46be      	mov	lr, r7
10002ed6:	b297      	uxth	r7, r2
10002ed8:	4377      	muls	r7, r6
10002eda:	1bc0      	subs	r0, r0, r7
10002edc:	d200      	bcs.n	10002ee0 <y64_x48+0x6e>
10002ede:	3901      	subs	r1, #1
10002ee0:	1bc0      	subs	r0, r0, r7
10002ee2:	d200      	bcs.n	10002ee6 <y64_x48+0x74>
10002ee4:	3901      	subs	r1, #1
10002ee6:	b29f      	uxth	r7, r3
10002ee8:	4377      	muls	r7, r6
10002eea:	1bc9      	subs	r1, r1, r7
10002eec:	1bc9      	subs	r1, r1, r7
10002eee:	0c17      	lsrs	r7, r2, #16
10002ef0:	4377      	muls	r7, r6
10002ef2:	047e      	lsls	r6, r7, #17
10002ef4:	0bff      	lsrs	r7, r7, #15
10002ef6:	1b80      	subs	r0, r0, r6
10002ef8:	41b9      	sbcs	r1, r7
10002efa:	08ce      	lsrs	r6, r1, #3
10002efc:	4366      	muls	r6, r4
10002efe:	0c36      	lsrs	r6, r6, #16
10002f00:	2d0c      	cmp	r5, #12
10002f02:	db33      	blt.n	10002f6c <last1>
10002f04:	44b6      	add	lr, r6
10002f06:	0b12      	lsrs	r2, r2, #12
10002f08:	051f      	lsls	r7, r3, #20
10002f0a:	433a      	orrs	r2, r7
10002f0c:	0b1b      	lsrs	r3, r3, #12
10002f0e:	b297      	uxth	r7, r2
10002f10:	4377      	muls	r7, r6
10002f12:	1bc0      	subs	r0, r0, r7
10002f14:	d200      	bcs.n	10002f18 <y64_x48+0xa6>
10002f16:	3901      	subs	r1, #1
10002f18:	b29f      	uxth	r7, r3
10002f1a:	4377      	muls	r7, r6
10002f1c:	1bc9      	subs	r1, r1, r7
10002f1e:	0c17      	lsrs	r7, r2, #16
10002f20:	4377      	muls	r7, r6
10002f22:	043e      	lsls	r6, r7, #16
10002f24:	0c3f      	lsrs	r7, r7, #16
10002f26:	1b80      	subs	r0, r0, r6
10002f28:	41b9      	sbcs	r1, r7
10002f2a:	0d86      	lsrs	r6, r0, #22
10002f2c:	028f      	lsls	r7, r1, #10
10002f2e:	433e      	orrs	r6, r7
10002f30:	4366      	muls	r6, r4
10002f32:	2729      	movs	r7, #41	@ 0x29
10002f34:	1b7f      	subs	r7, r7, r5
10002f36:	40fe      	lsrs	r6, r7
10002f38:	3d0c      	subs	r5, #12
10002f3a:	4677      	mov	r7, lr
10002f3c:	40af      	lsls	r7, r5
10002f3e:	19bf      	adds	r7, r7, r6
10002f40:	bc30      	pop	{r4, r5}
10002f42:	b2a2      	uxth	r2, r4
10002f44:	b2ab      	uxth	r3, r5
10002f46:	4372      	muls	r2, r6
10002f48:	4373      	muls	r3, r6
10002f4a:	1a80      	subs	r0, r0, r2
10002f4c:	4199      	sbcs	r1, r3
10002f4e:	0c22      	lsrs	r2, r4, #16
10002f50:	4372      	muls	r2, r6
10002f52:	0c13      	lsrs	r3, r2, #16
10002f54:	0412      	lsls	r2, r2, #16
10002f56:	1a80      	subs	r0, r0, r2
10002f58:	4199      	sbcs	r1, r3
10002f5a:	0002      	movs	r2, r0
10002f5c:	000b      	movs	r3, r1
10002f5e:	3701      	adds	r7, #1
10002f60:	1b00      	subs	r0, r0, r4
10002f62:	41a9      	sbcs	r1, r5
10002f64:	d2f9      	bcs.n	10002f5a <y64_x48+0xe8>
10002f66:	1e78      	subs	r0, r7, #1
10002f68:	2100      	movs	r1, #0
10002f6a:	bdf0      	pop	{r4, r5, r6, r7, pc}

10002f6c <last1>:
10002f6c:	270c      	movs	r7, #12
10002f6e:	1b7f      	subs	r7, r7, r5
10002f70:	40fe      	lsrs	r6, r7
10002f72:	4677      	mov	r7, lr
10002f74:	0b7f      	lsrs	r7, r7, #13
10002f76:	40af      	lsls	r7, r5
10002f78:	19ff      	adds	r7, r7, r7
10002f7a:	e7e0      	b.n	10002f3e <y64_x48+0xcc>

10002f7c <y64_x64>:
10002f7c:	2400      	movs	r4, #0
10002f7e:	1c5d      	adds	r5, r3, #1
10002f80:	d007      	beq.n	10002f92 <y64_x64+0x16>
10002f82:	4f14      	ldr	r7, [pc, #80]	@ (10002fd4 <y64_x64+0x58>)
10002f84:	667d      	str	r5, [r7, #100]	@ 0x64
10002f86:	6639      	str	r1, [r7, #96]	@ 0x60
10002f88:	e7ff      	b.n	10002f8a <y64_x64+0xe>
10002f8a:	e7ff      	b.n	10002f8c <y64_x64+0x10>
10002f8c:	e7ff      	b.n	10002f8e <y64_x64+0x12>
10002f8e:	e7ff      	b.n	10002f90 <y64_x64+0x14>
10002f90:	6f3c      	ldr	r4, [r7, #112]	@ 0x70
10002f92:	b295      	uxth	r5, r2
10002f94:	b29e      	uxth	r6, r3
10002f96:	4365      	muls	r5, r4
10002f98:	4366      	muls	r6, r4
10002f9a:	1b40      	subs	r0, r0, r5
10002f9c:	41b1      	sbcs	r1, r6
10002f9e:	0c15      	lsrs	r5, r2, #16
10002fa0:	0c1e      	lsrs	r6, r3, #16
10002fa2:	4365      	muls	r5, r4
10002fa4:	4366      	muls	r6, r4
10002fa6:	0436      	lsls	r6, r6, #16
10002fa8:	0c2f      	lsrs	r7, r5, #16
10002faa:	433e      	orrs	r6, r7
10002fac:	042d      	lsls	r5, r5, #16
10002fae:	1b40      	subs	r0, r0, r5
10002fb0:	41b1      	sbcs	r1, r6
10002fb2:	4299      	cmp	r1, r3
10002fb4:	d204      	bcs.n	10002fc0 <y64_x64+0x44>
10002fb6:	0002      	movs	r2, r0
10002fb8:	000b      	movs	r3, r1
10002fba:	0020      	movs	r0, r4
10002fbc:	2100      	movs	r1, #0
10002fbe:	bdf0      	pop	{r4, r5, r6, r7, pc}
10002fc0:	d101      	bne.n	10002fc6 <y64_x64+0x4a>
10002fc2:	4290      	cmp	r0, r2
10002fc4:	d3f7      	bcc.n	10002fb6 <y64_x64+0x3a>
10002fc6:	1a80      	subs	r0, r0, r2
10002fc8:	4199      	sbcs	r1, r3
10002fca:	3401      	adds	r4, #1
10002fcc:	4299      	cmp	r1, r3
10002fce:	d3f2      	bcc.n	10002fb6 <y64_x64+0x3a>
10002fd0:	e7f6      	b.n	10002fc0 <y64_x64+0x44>
10002fd2:	0000      	.short	0x0000
10002fd4:	d0000000 	.word	0xd0000000
10002fd8:	ffffffff 	.word	0xffffffff

10002fdc <__aeabi_double_init>:
10002fdc:	2313      	movs	r3, #19
10002fde:	b570      	push	{r4, r5, r6, lr}
10002fe0:	781d      	ldrb	r5, [r3, #0]
10002fe2:	2d01      	cmp	r5, #1
10002fe4:	d019      	beq.n	1000301a <__aeabi_double_init+0x3e>
10002fe6:	dd14      	ble.n	10003012 <__aeabi_double_init+0x36>
10002fe8:	481f      	ldr	r0, [pc, #124]	@ (10003068 <__aeabi_double_init+0x8c>)
10002fea:	f7ff fc2d 	bl	10002848 <rom_data_lookup>
10002fee:	0006      	movs	r6, r0
10002ff0:	481e      	ldr	r0, [pc, #120]	@ (1000306c <__aeabi_double_init+0x90>)
10002ff2:	f7ff fc29 	bl	10002848 <rom_data_lookup>
10002ff6:	4c1e      	ldr	r4, [pc, #120]	@ (10003070 <__aeabi_double_init+0x94>)
10002ff8:	2280      	movs	r2, #128	@ 0x80
10002ffa:	0031      	movs	r1, r6
10002ffc:	0020      	movs	r0, r4
10002ffe:	f000 f8c5 	bl	1000318c <__wrap___aeabi_memcpy>
10003002:	2d02      	cmp	r5, #2
10003004:	d02d      	beq.n	10003062 <__aeabi_double_init+0x86>
10003006:	481b      	ldr	r0, [pc, #108]	@ (10003074 <__aeabi_double_init+0x98>)
10003008:	f7ff fc16 	bl	10002838 <rom_func_lookup>
1000300c:	4b1a      	ldr	r3, [pc, #104]	@ (10003078 <__aeabi_double_init+0x9c>)
1000300e:	6018      	str	r0, [r3, #0]
10003010:	bd70      	pop	{r4, r5, r6, pc}
10003012:	4b1a      	ldr	r3, [pc, #104]	@ (1000307c <__aeabi_double_init+0xa0>)
10003014:	4c16      	ldr	r4, [pc, #88]	@ (10003070 <__aeabi_double_init+0x94>)
10003016:	64a3      	str	r3, [r4, #72]	@ 0x48
10003018:	e7f5      	b.n	10003006 <__aeabi_double_init+0x2a>
1000301a:	4b18      	ldr	r3, [pc, #96]	@ (1000307c <__aeabi_double_init+0xa0>)
1000301c:	4c14      	ldr	r4, [pc, #80]	@ (10003070 <__aeabi_double_init+0x94>)
1000301e:	6023      	str	r3, [r4, #0]
10003020:	6063      	str	r3, [r4, #4]
10003022:	60a3      	str	r3, [r4, #8]
10003024:	60e3      	str	r3, [r4, #12]
10003026:	6123      	str	r3, [r4, #16]
10003028:	6163      	str	r3, [r4, #20]
1000302a:	61a3      	str	r3, [r4, #24]
1000302c:	61e3      	str	r3, [r4, #28]
1000302e:	6223      	str	r3, [r4, #32]
10003030:	6263      	str	r3, [r4, #36]	@ 0x24
10003032:	62a3      	str	r3, [r4, #40]	@ 0x28
10003034:	62e3      	str	r3, [r4, #44]	@ 0x2c
10003036:	6323      	str	r3, [r4, #48]	@ 0x30
10003038:	6363      	str	r3, [r4, #52]	@ 0x34
1000303a:	63a3      	str	r3, [r4, #56]	@ 0x38
1000303c:	63e3      	str	r3, [r4, #60]	@ 0x3c
1000303e:	6423      	str	r3, [r4, #64]	@ 0x40
10003040:	6463      	str	r3, [r4, #68]	@ 0x44
10003042:	64a3      	str	r3, [r4, #72]	@ 0x48
10003044:	64e3      	str	r3, [r4, #76]	@ 0x4c
10003046:	6523      	str	r3, [r4, #80]	@ 0x50
10003048:	6563      	str	r3, [r4, #84]	@ 0x54
1000304a:	65a3      	str	r3, [r4, #88]	@ 0x58
1000304c:	65e3      	str	r3, [r4, #92]	@ 0x5c
1000304e:	6623      	str	r3, [r4, #96]	@ 0x60
10003050:	6663      	str	r3, [r4, #100]	@ 0x64
10003052:	66a3      	str	r3, [r4, #104]	@ 0x68
10003054:	66e3      	str	r3, [r4, #108]	@ 0x6c
10003056:	6723      	str	r3, [r4, #112]	@ 0x70
10003058:	6763      	str	r3, [r4, #116]	@ 0x74
1000305a:	67a3      	str	r3, [r4, #120]	@ 0x78
1000305c:	67e3      	str	r3, [r4, #124]	@ 0x7c
1000305e:	64a3      	str	r3, [r4, #72]	@ 0x48
10003060:	e7d1      	b.n	10003006 <__aeabi_double_init+0x2a>
10003062:	4b06      	ldr	r3, [pc, #24]	@ (1000307c <__aeabi_double_init+0xa0>)
10003064:	64a3      	str	r3, [r4, #72]	@ 0x48
10003066:	e7ce      	b.n	10003006 <__aeabi_double_init+0x2a>
10003068:	00004453 	.word	0x00004453
1000306c:	00004653 	.word	0x00004653
10003070:	20001068 	.word	0x20001068
10003074:	0000334c 	.word	0x0000334c
10003078:	20001b40 	.word	0x20001b40
1000307c:	10003081 	.word	0x10003081

10003080 <double_table_shim_on_use_helper>:
10003080:	b507      	push	{r0, r1, r2, lr}
10003082:	4660      	mov	r0, ip
10003084:	8801      	ldrh	r1, [r0, #0]
10003086:	0a0a      	lsrs	r2, r1, #8
10003088:	3002      	adds	r0, #2
1000308a:	2adf      	cmp	r2, #223	@ 0xdf
1000308c:	d1fa      	bne.n	10003084 <double_table_shim_on_use_helper+0x4>
1000308e:	b2c9      	uxtb	r1, r1
10003090:	0882      	lsrs	r2, r0, #2
10003092:	d304      	bcc.n	1000309e <double_table_shim_on_use_helper+0x1e>
10003094:	8802      	ldrh	r2, [r0, #0]
10003096:	8840      	ldrh	r0, [r0, #2]
10003098:	0400      	lsls	r0, r0, #16
1000309a:	4310      	orrs	r0, r2
1000309c:	e000      	b.n	100030a0 <double_table_shim_on_use_helper+0x20>
1000309e:	6800      	ldr	r0, [r0, #0]
100030a0:	4a01      	ldr	r2, [pc, #4]	@ (100030a8 <double_table_shim_on_use_helper+0x28>)
100030a2:	5050      	str	r0, [r2, r1]
100030a4:	9003      	str	r0, [sp, #12]
100030a6:	bd07      	pop	{r0, r1, r2, pc}
100030a8:	20001068 	.word	0x20001068

100030ac <__wrap___aeabi_lmul>:
100030ac:	4351      	muls	r1, r2
100030ae:	4343      	muls	r3, r0
100030b0:	18c9      	adds	r1, r1, r3
100030b2:	468c      	mov	ip, r1
100030b4:	0c11      	lsrs	r1, r2, #16
100030b6:	b283      	uxth	r3, r0
100030b8:	434b      	muls	r3, r1
100030ba:	b410      	push	{r4}
100030bc:	0c04      	lsrs	r4, r0, #16
100030be:	4361      	muls	r1, r4
100030c0:	b292      	uxth	r2, r2
100030c2:	b280      	uxth	r0, r0
100030c4:	4350      	muls	r0, r2
100030c6:	4362      	muls	r2, r4
100030c8:	041c      	lsls	r4, r3, #16
100030ca:	0c1b      	lsrs	r3, r3, #16
100030cc:	1900      	adds	r0, r0, r4
100030ce:	bc10      	pop	{r4}
100030d0:	4159      	adcs	r1, r3
100030d2:	0413      	lsls	r3, r2, #16
100030d4:	0c12      	lsrs	r2, r2, #16
100030d6:	18c0      	adds	r0, r0, r3
100030d8:	4151      	adcs	r1, r2
100030da:	4461      	add	r1, ip
100030dc:	4770      	bx	lr
	...

100030e0 <__aeabi_float_init>:
100030e0:	2313      	movs	r3, #19
100030e2:	b510      	push	{r4, lr}
100030e4:	4812      	ldr	r0, [pc, #72]	@ (10003130 <__aeabi_float_init+0x50>)
100030e6:	781c      	ldrb	r4, [r3, #0]
100030e8:	f7ff fbae 	bl	10002848 <rom_data_lookup>
100030ec:	0001      	movs	r1, r0
100030ee:	2c01      	cmp	r4, #1
100030f0:	d00a      	beq.n	10003108 <__aeabi_float_init+0x28>
100030f2:	dd03      	ble.n	100030fc <__aeabi_float_init+0x1c>
100030f4:	2280      	movs	r2, #128	@ 0x80
100030f6:	480f      	ldr	r0, [pc, #60]	@ (10003134 <__aeabi_float_init+0x54>)
100030f8:	f000 f848 	bl	1000318c <__wrap___aeabi_memcpy>
100030fc:	480e      	ldr	r0, [pc, #56]	@ (10003138 <__aeabi_float_init+0x58>)
100030fe:	f7ff fb9b 	bl	10002838 <rom_func_lookup>
10003102:	4b0e      	ldr	r3, [pc, #56]	@ (1000313c <__aeabi_float_init+0x5c>)
10003104:	6018      	str	r0, [r3, #0]
10003106:	bd10      	pop	{r4, pc}
10003108:	4c0a      	ldr	r4, [pc, #40]	@ (10003134 <__aeabi_float_init+0x54>)
1000310a:	2254      	movs	r2, #84	@ 0x54
1000310c:	0020      	movs	r0, r4
1000310e:	f000 f83d 	bl	1000318c <__wrap___aeabi_memcpy>
10003112:	4b0b      	ldr	r3, [pc, #44]	@ (10003140 <__aeabi_float_init+0x60>)
10003114:	6563      	str	r3, [r4, #84]	@ 0x54
10003116:	65a3      	str	r3, [r4, #88]	@ 0x58
10003118:	65e3      	str	r3, [r4, #92]	@ 0x5c
1000311a:	6623      	str	r3, [r4, #96]	@ 0x60
1000311c:	6663      	str	r3, [r4, #100]	@ 0x64
1000311e:	66a3      	str	r3, [r4, #104]	@ 0x68
10003120:	66e3      	str	r3, [r4, #108]	@ 0x6c
10003122:	6723      	str	r3, [r4, #112]	@ 0x70
10003124:	6763      	str	r3, [r4, #116]	@ 0x74
10003126:	67a3      	str	r3, [r4, #120]	@ 0x78
10003128:	67e3      	str	r3, [r4, #124]	@ 0x7c
1000312a:	6223      	str	r3, [r4, #32]
1000312c:	61e3      	str	r3, [r4, #28]
1000312e:	e7e5      	b.n	100030fc <__aeabi_float_init+0x1c>
10003130:	00004653 	.word	0x00004653
10003134:	20001168 	.word	0x20001168
10003138:	0000334c 	.word	0x0000334c
1000313c:	20001b40 	.word	0x20001b40
10003140:	10003145 	.word	0x10003145

10003144 <float_table_shim_on_use_helper>:
10003144:	b507      	push	{r0, r1, r2, lr}
10003146:	4660      	mov	r0, ip
10003148:	8801      	ldrh	r1, [r0, #0]
1000314a:	0a0a      	lsrs	r2, r1, #8
1000314c:	3002      	adds	r0, #2
1000314e:	2adf      	cmp	r2, #223	@ 0xdf
10003150:	d1fa      	bne.n	10003148 <float_table_shim_on_use_helper+0x4>
10003152:	b2c9      	uxtb	r1, r1
10003154:	0882      	lsrs	r2, r0, #2
10003156:	d304      	bcc.n	10003162 <float_table_shim_on_use_helper+0x1e>
10003158:	8802      	ldrh	r2, [r0, #0]
1000315a:	8840      	ldrh	r0, [r0, #2]
1000315c:	0400      	lsls	r0, r0, #16
1000315e:	4310      	orrs	r0, r2
10003160:	e000      	b.n	10003164 <float_table_shim_on_use_helper+0x20>
10003162:	6800      	ldr	r0, [r0, #0]
10003164:	4a01      	ldr	r2, [pc, #4]	@ (1000316c <float_table_shim_on_use_helper+0x28>)
10003166:	5050      	str	r0, [r2, r1]
10003168:	9003      	str	r0, [sp, #12]
1000316a:	bd07      	pop	{r0, r1, r2, pc}
1000316c:	20001168 	.word	0x20001168

10003170 <__aeabi_mem_init>:
10003170:	4801      	ldr	r0, [pc, #4]	@ (10003178 <__aeabi_mem_init+0x8>)
10003172:	2104      	movs	r1, #4
10003174:	4b01      	ldr	r3, [pc, #4]	@ (1000317c <__aeabi_mem_init+0xc>)
10003176:	4718      	bx	r3
10003178:	20000eb0 	.word	0x20000eb0
1000317c:	10002859 	.word	0x10002859

10003180 <__wrap_memset>:
10003180:	4b01      	ldr	r3, [pc, #4]	@ (10003188 <__wrap_memset+0x8>)
10003182:	681b      	ldr	r3, [r3, #0]
10003184:	4718      	bx	r3
10003186:	0000      	.short	0x0000
10003188:	20000eb0 	.word	0x20000eb0

1000318c <__wrap___aeabi_memcpy>:
1000318c:	4b01      	ldr	r3, [pc, #4]	@ (10003194 <__wrap___aeabi_memcpy+0x8>)
1000318e:	685b      	ldr	r3, [r3, #4]
10003190:	4718      	bx	r3
10003192:	0000      	.short	0x0000
10003194:	20000eb0 	.word	0x20000eb0

10003198 <_out_char>:
10003198:	b510      	push	{r4, lr}
1000319a:	2800      	cmp	r0, #0
1000319c:	d100      	bne.n	100031a0 <_out_char+0x8>
1000319e:	bd10      	pop	{r4, pc}
100031a0:	f000 f90a 	bl	100033b8 <__wrap_putchar>
100031a4:	e7fb      	b.n	1000319e <_out_char+0x6>
100031a6:	46c0      	nop			@ (mov r8, r8)

100031a8 <weak_raw_vprintf>:
100031a8:	b510      	push	{r4, lr}
100031aa:	4a09      	ldr	r2, [pc, #36]	@ (100031d0 <weak_raw_vprintf+0x28>)
100031ac:	0003      	movs	r3, r0
100031ae:	6814      	ldr	r4, [r2, #0]
100031b0:	b084      	sub	sp, #16
100031b2:	2c00      	cmp	r4, #0
100031b4:	d008      	beq.n	100031c8 <weak_raw_vprintf+0x20>
100031b6:	2201      	movs	r2, #1
100031b8:	9100      	str	r1, [sp, #0]
100031ba:	4806      	ldr	r0, [pc, #24]	@ (100031d4 <weak_raw_vprintf+0x2c>)
100031bc:	4252      	negs	r2, r2
100031be:	a903      	add	r1, sp, #12
100031c0:	47a0      	blx	r4
100031c2:	2001      	movs	r0, #1
100031c4:	b004      	add	sp, #16
100031c6:	bd10      	pop	{r4, pc}
100031c8:	f000 f942 	bl	10003450 <__wrap_puts>
100031cc:	2000      	movs	r0, #0
100031ce:	e7f9      	b.n	100031c4 <weak_raw_vprintf+0x1c>
100031d0:	20001b08 	.word	0x20001b08
100031d4:	10003199 	.word	0x10003199

100031d8 <_exit>:
100031d8:	be00      	bkpt	0x0000
100031da:	e7fd      	b.n	100031d8 <_exit>

100031dc <exit>:
100031dc:	b510      	push	{r4, lr}
100031de:	f7ff fffb 	bl	100031d8 <_exit>
100031e2:	46c0      	nop			@ (mov r8, r8)

100031e4 <runtime_init>:
100031e4:	b570      	push	{r4, r5, r6, lr}
100031e6:	f7ff fb75 	bl	100028d4 <runtime_run_initializers>
100031ea:	4d07      	ldr	r5, [pc, #28]	@ (10003208 <runtime_init+0x24>)
100031ec:	4e07      	ldr	r6, [pc, #28]	@ (1000320c <runtime_init+0x28>)
100031ee:	42b5      	cmp	r5, r6
100031f0:	d209      	bcs.n	10003206 <runtime_init+0x22>
100031f2:	2400      	movs	r4, #0
100031f4:	3e01      	subs	r6, #1
100031f6:	1b76      	subs	r6, r6, r5
100031f8:	08b6      	lsrs	r6, r6, #2
100031fa:	cd08      	ldmia	r5!, {r3}
100031fc:	4798      	blx	r3
100031fe:	0023      	movs	r3, r4
10003200:	3401      	adds	r4, #1
10003202:	42b3      	cmp	r3, r6
10003204:	d1f9      	bne.n	100031fa <runtime_init+0x16>
10003206:	bd70      	pop	{r4, r5, r6, pc}
10003208:	10004c4c 	.word	0x10004c4c
1000320c:	10004c50 	.word	0x10004c50

10003210 <stdio_out_chars_no_crlf>:
10003210:	0003      	movs	r3, r0
10003212:	b510      	push	{r4, lr}
10003214:	0008      	movs	r0, r1
10003216:	0011      	movs	r1, r2
10003218:	681b      	ldr	r3, [r3, #0]
1000321a:	4798      	blx	r3
1000321c:	bd10      	pop	{r4, pc}
1000321e:	46c0      	nop			@ (mov r8, r8)

10003220 <stdio_out_chars_crlf>:
10003220:	b5f0      	push	{r4, r5, r6, r7, lr}
10003222:	46c6      	mov	lr, r8
10003224:	b500      	push	{lr}
10003226:	7d43      	ldrb	r3, [r0, #21]
10003228:	0007      	movs	r7, r0
1000322a:	000d      	movs	r5, r1
1000322c:	0016      	movs	r6, r2
1000322e:	2b00      	cmp	r3, #0
10003230:	d038      	beq.n	100032a4 <stdio_out_chars_crlf+0x84>
10003232:	2a00      	cmp	r2, #0
10003234:	dd2e      	ble.n	10003294 <stdio_out_chars_crlf+0x74>
10003236:	2100      	movs	r1, #0
10003238:	1e6a      	subs	r2, r5, #1
1000323a:	4690      	mov	r8, r2
1000323c:	5c6a      	ldrb	r2, [r5, r1]
1000323e:	7d03      	ldrb	r3, [r0, #20]
10003240:	1c4c      	adds	r4, r1, #1
10003242:	2000      	movs	r0, #0
10003244:	2a0a      	cmp	r2, #10
10003246:	d00c      	beq.n	10003262 <stdio_out_chars_crlf+0x42>
10003248:	42a6      	cmp	r6, r4
1000324a:	d016      	beq.n	1000327a <stdio_out_chars_crlf+0x5a>
1000324c:	4643      	mov	r3, r8
1000324e:	5d1b      	ldrb	r3, [r3, r4]
10003250:	0021      	movs	r1, r4
10003252:	3b0d      	subs	r3, #13
10003254:	425a      	negs	r2, r3
10003256:	4153      	adcs	r3, r2
10003258:	5c6a      	ldrb	r2, [r5, r1]
1000325a:	b2db      	uxtb	r3, r3
1000325c:	1c4c      	adds	r4, r1, #1
1000325e:	2a0a      	cmp	r2, #10
10003260:	d1f2      	bne.n	10003248 <stdio_out_chars_crlf+0x28>
10003262:	2b00      	cmp	r3, #0
10003264:	d1f0      	bne.n	10003248 <stdio_out_chars_crlf+0x28>
10003266:	4288      	cmp	r0, r1
10003268:	db17      	blt.n	1000329a <stdio_out_chars_crlf+0x7a>
1000326a:	2102      	movs	r1, #2
1000326c:	4810      	ldr	r0, [pc, #64]	@ (100032b0 <stdio_out_chars_crlf+0x90>)
1000326e:	683b      	ldr	r3, [r7, #0]
10003270:	4798      	blx	r3
10003272:	42a6      	cmp	r6, r4
10003274:	d007      	beq.n	10003286 <stdio_out_chars_crlf+0x66>
10003276:	0020      	movs	r0, r4
10003278:	e7e8      	b.n	1000324c <stdio_out_chars_crlf+0x2c>
1000327a:	4286      	cmp	r6, r0
1000327c:	dd03      	ble.n	10003286 <stdio_out_chars_crlf+0x66>
1000327e:	1a31      	subs	r1, r6, r0
10003280:	683b      	ldr	r3, [r7, #0]
10003282:	1828      	adds	r0, r5, r0
10003284:	4798      	blx	r3
10003286:	19ad      	adds	r5, r5, r6
10003288:	3d01      	subs	r5, #1
1000328a:	782b      	ldrb	r3, [r5, #0]
1000328c:	3b0d      	subs	r3, #13
1000328e:	425a      	negs	r2, r3
10003290:	4153      	adcs	r3, r2
10003292:	753b      	strb	r3, [r7, #20]
10003294:	bc80      	pop	{r7}
10003296:	46b8      	mov	r8, r7
10003298:	bdf0      	pop	{r4, r5, r6, r7, pc}
1000329a:	1a09      	subs	r1, r1, r0
1000329c:	683b      	ldr	r3, [r7, #0]
1000329e:	1828      	adds	r0, r5, r0
100032a0:	4798      	blx	r3
100032a2:	e7e2      	b.n	1000326a <stdio_out_chars_crlf+0x4a>
100032a4:	6803      	ldr	r3, [r0, #0]
100032a6:	0011      	movs	r1, r2
100032a8:	0028      	movs	r0, r5
100032aa:	4798      	blx	r3
100032ac:	e7f2      	b.n	10003294 <stdio_out_chars_crlf+0x74>
100032ae:	46c0      	nop			@ (mov r8, r8)
100032b0:	1000503c 	.word	0x1000503c

100032b4 <stdio_put_string>:
100032b4:	b5f0      	push	{r4, r5, r6, r7, lr}
100032b6:	46de      	mov	lr, fp
100032b8:	4657      	mov	r7, sl
100032ba:	464e      	mov	r6, r9
100032bc:	4645      	mov	r5, r8
100032be:	b5e0      	push	{r5, r6, r7, lr}
100032c0:	b085      	sub	sp, #20
100032c2:	0017      	movs	r7, r2
100032c4:	001c      	movs	r4, r3
100032c6:	0006      	movs	r6, r0
100032c8:	000d      	movs	r5, r1
100032ca:	f7ff f94d 	bl	10002568 <time_us_64>
100032ce:	2300      	movs	r3, #0
100032d0:	4a31      	ldr	r2, [pc, #196]	@ (10003398 <stdio_put_string+0xe4>)
100032d2:	1812      	adds	r2, r2, r0
100032d4:	414b      	adcs	r3, r1
100032d6:	2180      	movs	r1, #128	@ 0x80
100032d8:	0609      	lsls	r1, r1, #24
100032da:	428b      	cmp	r3, r1
100032dc:	d302      	bcc.n	100032e4 <stdio_put_string+0x30>
100032de:	2201      	movs	r2, #1
100032e0:	4b2e      	ldr	r3, [pc, #184]	@ (1000339c <stdio_put_string+0xe8>)
100032e2:	4252      	negs	r2, r2
100032e4:	492e      	ldr	r1, [pc, #184]	@ (100033a0 <stdio_put_string+0xec>)
100032e6:	0008      	movs	r0, r1
100032e8:	468a      	mov	sl, r1
100032ea:	f001 fc79 	bl	10004be0 <__mutex_try_enter_block_until_veneer>
100032ee:	9001      	str	r0, [sp, #4]
100032f0:	1c6b      	adds	r3, r5, #1
100032f2:	d103      	bne.n	100032fc <stdio_put_string+0x48>
100032f4:	0030      	movs	r0, r6
100032f6:	f001 fc0b 	bl	10004b10 <strlen>
100032fa:	0005      	movs	r5, r0
100032fc:	2c00      	cmp	r4, #0
100032fe:	d026      	beq.n	1000334e <stdio_put_string+0x9a>
10003300:	4b28      	ldr	r3, [pc, #160]	@ (100033a4 <stdio_put_string+0xf0>)
10003302:	4698      	mov	r8, r3
10003304:	4b28      	ldr	r3, [pc, #160]	@ (100033a8 <stdio_put_string+0xf4>)
10003306:	681c      	ldr	r4, [r3, #0]
10003308:	2c00      	cmp	r4, #0
1000330a:	d015      	beq.n	10003338 <stdio_put_string+0x84>
1000330c:	2f00      	cmp	r7, #0
1000330e:	d121      	bne.n	10003354 <stdio_put_string+0xa0>
10003310:	4f26      	ldr	r7, [pc, #152]	@ (100033ac <stdio_put_string+0xf8>)
10003312:	e002      	b.n	1000331a <stdio_put_string+0x66>
10003314:	6924      	ldr	r4, [r4, #16]
10003316:	2c00      	cmp	r4, #0
10003318:	d00e      	beq.n	10003338 <stdio_put_string+0x84>
1000331a:	6823      	ldr	r3, [r4, #0]
1000331c:	2b00      	cmp	r3, #0
1000331e:	d0f9      	beq.n	10003314 <stdio_put_string+0x60>
10003320:	683b      	ldr	r3, [r7, #0]
10003322:	2b00      	cmp	r3, #0
10003324:	d001      	beq.n	1000332a <stdio_put_string+0x76>
10003326:	429c      	cmp	r4, r3
10003328:	d1f4      	bne.n	10003314 <stdio_put_string+0x60>
1000332a:	0020      	movs	r0, r4
1000332c:	002a      	movs	r2, r5
1000332e:	0031      	movs	r1, r6
10003330:	47c0      	blx	r8
10003332:	6924      	ldr	r4, [r4, #16]
10003334:	2c00      	cmp	r4, #0
10003336:	d1f0      	bne.n	1000331a <stdio_put_string+0x66>
10003338:	9b01      	ldr	r3, [sp, #4]
1000333a:	2b00      	cmp	r3, #0
1000333c:	d128      	bne.n	10003390 <stdio_put_string+0xdc>
1000333e:	0028      	movs	r0, r5
10003340:	b005      	add	sp, #20
10003342:	bcf0      	pop	{r4, r5, r6, r7}
10003344:	46bb      	mov	fp, r7
10003346:	46b2      	mov	sl, r6
10003348:	46a9      	mov	r9, r5
1000334a:	46a0      	mov	r8, r4
1000334c:	bdf0      	pop	{r4, r5, r6, r7, pc}
1000334e:	4b18      	ldr	r3, [pc, #96]	@ (100033b0 <stdio_put_string+0xfc>)
10003350:	4698      	mov	r8, r3
10003352:	e7d7      	b.n	10003304 <stdio_put_string+0x50>
10003354:	4b15      	ldr	r3, [pc, #84]	@ (100033ac <stdio_put_string+0xf8>)
10003356:	4699      	mov	r9, r3
10003358:	ab02      	add	r3, sp, #8
1000335a:	1ddf      	adds	r7, r3, #7
1000335c:	230a      	movs	r3, #10
1000335e:	469b      	mov	fp, r3
10003360:	e002      	b.n	10003368 <stdio_put_string+0xb4>
10003362:	6924      	ldr	r4, [r4, #16]
10003364:	2c00      	cmp	r4, #0
10003366:	d0e7      	beq.n	10003338 <stdio_put_string+0x84>
10003368:	6823      	ldr	r3, [r4, #0]
1000336a:	2b00      	cmp	r3, #0
1000336c:	d0f9      	beq.n	10003362 <stdio_put_string+0xae>
1000336e:	464b      	mov	r3, r9
10003370:	681b      	ldr	r3, [r3, #0]
10003372:	2b00      	cmp	r3, #0
10003374:	d001      	beq.n	1000337a <stdio_put_string+0xc6>
10003376:	42a3      	cmp	r3, r4
10003378:	d1f3      	bne.n	10003362 <stdio_put_string+0xae>
1000337a:	002a      	movs	r2, r5
1000337c:	0031      	movs	r1, r6
1000337e:	0020      	movs	r0, r4
10003380:	47c0      	blx	r8
10003382:	465b      	mov	r3, fp
10003384:	2201      	movs	r2, #1
10003386:	0039      	movs	r1, r7
10003388:	0020      	movs	r0, r4
1000338a:	703b      	strb	r3, [r7, #0]
1000338c:	47c0      	blx	r8
1000338e:	e7e8      	b.n	10003362 <stdio_put_string+0xae>
10003390:	4650      	mov	r0, sl
10003392:	f001 fbed 	bl	10004b70 <__mutex_exit_veneer>
10003396:	e7d2      	b.n	1000333e <stdio_put_string+0x8a>
10003398:	000f4240 	.word	0x000f4240
1000339c:	7fffffff 	.word	0x7fffffff
100033a0:	20000ee0 	.word	0x20000ee0
100033a4:	10003221 	.word	0x10003221
100033a8:	200016fc 	.word	0x200016fc
100033ac:	20001704 	.word	0x20001704
100033b0:	10003211 	.word	0x10003211

100033b4 <stdio_init_all>:
100033b4:	2000      	movs	r0, #0
100033b6:	4770      	bx	lr

100033b8 <__wrap_putchar>:
100033b8:	b5f0      	push	{r4, r5, r6, r7, lr}
100033ba:	46ce      	mov	lr, r9
100033bc:	4647      	mov	r7, r8
100033be:	b580      	push	{r7, lr}
100033c0:	b083      	sub	sp, #12
100033c2:	466b      	mov	r3, sp
100033c4:	0006      	movs	r6, r0
100033c6:	1ddd      	adds	r5, r3, #7
100033c8:	7028      	strb	r0, [r5, #0]
100033ca:	f7ff f8cd 	bl	10002568 <time_us_64>
100033ce:	2300      	movs	r3, #0
100033d0:	4a1a      	ldr	r2, [pc, #104]	@ (1000343c <__wrap_putchar+0x84>)
100033d2:	1812      	adds	r2, r2, r0
100033d4:	414b      	adcs	r3, r1
100033d6:	2180      	movs	r1, #128	@ 0x80
100033d8:	0609      	lsls	r1, r1, #24
100033da:	428b      	cmp	r3, r1
100033dc:	d302      	bcc.n	100033e4 <__wrap_putchar+0x2c>
100033de:	2201      	movs	r2, #1
100033e0:	4b17      	ldr	r3, [pc, #92]	@ (10003440 <__wrap_putchar+0x88>)
100033e2:	4252      	negs	r2, r2
100033e4:	4917      	ldr	r1, [pc, #92]	@ (10003444 <__wrap_putchar+0x8c>)
100033e6:	0008      	movs	r0, r1
100033e8:	4688      	mov	r8, r1
100033ea:	f001 fbf9 	bl	10004be0 <__mutex_try_enter_block_until_veneer>
100033ee:	4b16      	ldr	r3, [pc, #88]	@ (10003448 <__wrap_putchar+0x90>)
100033f0:	4681      	mov	r9, r0
100033f2:	681c      	ldr	r4, [r3, #0]
100033f4:	2c00      	cmp	r4, #0
100033f6:	d014      	beq.n	10003422 <__wrap_putchar+0x6a>
100033f8:	4f14      	ldr	r7, [pc, #80]	@ (1000344c <__wrap_putchar+0x94>)
100033fa:	e002      	b.n	10003402 <__wrap_putchar+0x4a>
100033fc:	6924      	ldr	r4, [r4, #16]
100033fe:	2c00      	cmp	r4, #0
10003400:	d00f      	beq.n	10003422 <__wrap_putchar+0x6a>
10003402:	6823      	ldr	r3, [r4, #0]
10003404:	2b00      	cmp	r3, #0
10003406:	d0f9      	beq.n	100033fc <__wrap_putchar+0x44>
10003408:	683b      	ldr	r3, [r7, #0]
1000340a:	2b00      	cmp	r3, #0
1000340c:	d001      	beq.n	10003412 <__wrap_putchar+0x5a>
1000340e:	429c      	cmp	r4, r3
10003410:	d1f4      	bne.n	100033fc <__wrap_putchar+0x44>
10003412:	0020      	movs	r0, r4
10003414:	2201      	movs	r2, #1
10003416:	0029      	movs	r1, r5
10003418:	f7ff ff02 	bl	10003220 <stdio_out_chars_crlf>
1000341c:	6924      	ldr	r4, [r4, #16]
1000341e:	2c00      	cmp	r4, #0
10003420:	d1ef      	bne.n	10003402 <__wrap_putchar+0x4a>
10003422:	464b      	mov	r3, r9
10003424:	2b00      	cmp	r3, #0
10003426:	d105      	bne.n	10003434 <__wrap_putchar+0x7c>
10003428:	0030      	movs	r0, r6
1000342a:	b003      	add	sp, #12
1000342c:	bcc0      	pop	{r6, r7}
1000342e:	46b9      	mov	r9, r7
10003430:	46b0      	mov	r8, r6
10003432:	bdf0      	pop	{r4, r5, r6, r7, pc}
10003434:	4640      	mov	r0, r8
10003436:	f001 fb9b 	bl	10004b70 <__mutex_exit_veneer>
1000343a:	e7f5      	b.n	10003428 <__wrap_putchar+0x70>
1000343c:	000f4240 	.word	0x000f4240
10003440:	7fffffff 	.word	0x7fffffff
10003444:	20000ee0 	.word	0x20000ee0
10003448:	200016fc 	.word	0x200016fc
1000344c:	20001704 	.word	0x20001704

10003450 <__wrap_puts>:
10003450:	b570      	push	{r4, r5, r6, lr}
10003452:	0004      	movs	r4, r0
10003454:	f001 fb5c 	bl	10004b10 <strlen>
10003458:	2301      	movs	r3, #1
1000345a:	0001      	movs	r1, r0
1000345c:	0005      	movs	r5, r0
1000345e:	2201      	movs	r2, #1
10003460:	0020      	movs	r0, r4
10003462:	f7ff ff27 	bl	100032b4 <stdio_put_string>
10003466:	4b08      	ldr	r3, [pc, #32]	@ (10003488 <__wrap_puts+0x38>)
10003468:	681c      	ldr	r4, [r3, #0]
1000346a:	2c00      	cmp	r4, #0
1000346c:	d006      	beq.n	1000347c <__wrap_puts+0x2c>
1000346e:	6863      	ldr	r3, [r4, #4]
10003470:	2b00      	cmp	r3, #0
10003472:	d005      	beq.n	10003480 <__wrap_puts+0x30>
10003474:	4798      	blx	r3
10003476:	6924      	ldr	r4, [r4, #16]
10003478:	2c00      	cmp	r4, #0
1000347a:	d1f8      	bne.n	1000346e <__wrap_puts+0x1e>
1000347c:	0028      	movs	r0, r5
1000347e:	bd70      	pop	{r4, r5, r6, pc}
10003480:	6924      	ldr	r4, [r4, #16]
10003482:	2c00      	cmp	r4, #0
10003484:	d1f3      	bne.n	1000346e <__wrap_puts+0x1e>
10003486:	e7f9      	b.n	1000347c <__wrap_puts+0x2c>
10003488:	200016fc 	.word	0x200016fc

1000348c <dcd_init>:
1000348c:	b5f8      	push	{r3, r4, r5, r6, r7, lr}
1000348e:	f000 f943 	bl	10003718 <rp2040_usb_init>
10003492:	230c      	movs	r3, #12
10003494:	4d19      	ldr	r5, [pc, #100]	@ (100034fc <dcd_init+0x70>)
10003496:	22ff      	movs	r2, #255	@ 0xff
10003498:	67ab      	str	r3, [r5, #120]	@ 0x78
1000349a:	2005      	movs	r0, #5
1000349c:	4918      	ldr	r1, [pc, #96]	@ (10003500 <dcd_init+0x74>)
1000349e:	f7fe fa19 	bl	100018d4 <irq_add_shared_handler>
100034a2:	4c18      	ldr	r4, [pc, #96]	@ (10003504 <dcd_init+0x78>)
100034a4:	2240      	movs	r2, #64	@ 0x40
100034a6:	2100      	movs	r1, #0
100034a8:	0020      	movs	r0, r4
100034aa:	f7ff fe69 	bl	10003180 <__wrap_memset>
100034ae:	2740      	movs	r7, #64	@ 0x40
100034b0:	2300      	movs	r3, #0
100034b2:	2601      	movs	r6, #1
100034b4:	2121      	movs	r1, #33	@ 0x21
100034b6:	4a14      	ldr	r2, [pc, #80]	@ (10003508 <dcd_init+0x7c>)
100034b8:	7066      	strb	r6, [r4, #1]
100034ba:	8327      	strh	r7, [r4, #24]
100034bc:	60a2      	str	r2, [r4, #8]
100034be:	6013      	str	r3, [r2, #0]
100034c0:	5463      	strb	r3, [r4, r1]
100034c2:	315f      	adds	r1, #95	@ 0x5f
100034c4:	8461      	strh	r1, [r4, #34]	@ 0x22
100034c6:	3945      	subs	r1, #69	@ 0x45
100034c8:	5463      	strb	r3, [r4, r1]
100034ca:	4a10      	ldr	r2, [pc, #64]	@ (1000350c <dcd_init+0x80>)
100034cc:	4910      	ldr	r1, [pc, #64]	@ (10003510 <dcd_init+0x84>)
100034ce:	6063      	str	r3, [r4, #4]
100034d0:	60e2      	str	r2, [r4, #12]
100034d2:	8727      	strh	r7, [r4, #56]	@ 0x38
100034d4:	62a1      	str	r1, [r4, #40]	@ 0x28
100034d6:	600b      	str	r3, [r1, #0]
100034d8:	6263      	str	r3, [r4, #36]	@ 0x24
100034da:	62e2      	str	r2, [r4, #44]	@ 0x2c
100034dc:	f001 fb58 	bl	10004b90 <__reset_non_control_endpoints_veneer>
100034e0:	2380      	movs	r3, #128	@ 0x80
100034e2:	059b      	lsls	r3, r3, #22
100034e4:	642e      	str	r6, [r5, #64]	@ 0x40
100034e6:	64eb      	str	r3, [r5, #76]	@ 0x4c
100034e8:	2390      	movs	r3, #144	@ 0x90
100034ea:	4a0a      	ldr	r2, [pc, #40]	@ (10003514 <dcd_init+0x88>)
100034ec:	2001      	movs	r0, #1
100034ee:	50ea      	str	r2, [r5, r3]
100034f0:	2280      	movs	r2, #128	@ 0x80
100034f2:	4b09      	ldr	r3, [pc, #36]	@ (10003518 <dcd_init+0x8c>)
100034f4:	0252      	lsls	r2, r2, #9
100034f6:	64da      	str	r2, [r3, #76]	@ 0x4c
100034f8:	bdf8      	pop	{r3, r4, r5, r6, r7, pc}
100034fa:	46c0      	nop			@ (mov r8, r8)
100034fc:	50110000 	.word	0x50110000
10003500:	2000031d 	.word	0x2000031d
10003504:	20001708 	.word	0x20001708
10003508:	50100084 	.word	0x50100084
1000350c:	50100100 	.word	0x50100100
10003510:	50100080 	.word	0x50100080
10003514:	0001d010 	.word	0x0001d010
10003518:	50112000 	.word	0x50112000

1000351c <dcd_int_enable>:
1000351c:	b510      	push	{r4, lr}
1000351e:	2101      	movs	r1, #1
10003520:	2005      	movs	r0, #5
10003522:	f7fe f99b 	bl	1000185c <irq_set_enabled>
10003526:	bd10      	pop	{r4, pc}

10003528 <dcd_set_address>:
10003528:	b510      	push	{r4, lr}
1000352a:	2200      	movs	r2, #0
1000352c:	2100      	movs	r1, #0
1000352e:	4802      	ldr	r0, [pc, #8]	@ (10003538 <dcd_set_address+0x10>)
10003530:	f000 f912 	bl	10003758 <hw_endpoint_xfer_start>
10003534:	bd10      	pop	{r4, pc}
10003536:	46c0      	nop			@ (mov r8, r8)
10003538:	20001728 	.word	0x20001728

1000353c <dcd_sof_enable>:
1000353c:	4b04      	ldr	r3, [pc, #16]	@ (10003550 <dcd_sof_enable+0x14>)
1000353e:	7019      	strb	r1, [r3, #0]
10003540:	2900      	cmp	r1, #0
10003542:	d004      	beq.n	1000354e <dcd_sof_enable+0x12>
10003544:	2180      	movs	r1, #128	@ 0x80
10003546:	2390      	movs	r3, #144	@ 0x90
10003548:	4a02      	ldr	r2, [pc, #8]	@ (10003554 <dcd_sof_enable+0x18>)
1000354a:	0289      	lsls	r1, r1, #10
1000354c:	50d1      	str	r1, [r2, r3]
1000354e:	4770      	bx	lr
10003550:	20001b4d 	.word	0x20001b4d
10003554:	50112000 	.word	0x50112000

10003558 <dcd_edpt0_status_complete>:
10003558:	780b      	ldrb	r3, [r1, #0]
1000355a:	065b      	lsls	r3, r3, #25
1000355c:	d102      	bne.n	10003564 <dcd_edpt0_status_complete+0xc>
1000355e:	784b      	ldrb	r3, [r1, #1]
10003560:	2b05      	cmp	r3, #5
10003562:	d000      	beq.n	10003566 <dcd_edpt0_status_complete+0xe>
10003564:	4770      	bx	lr
10003566:	788a      	ldrb	r2, [r1, #2]
10003568:	4b01      	ldr	r3, [pc, #4]	@ (10003570 <dcd_edpt0_status_complete+0x18>)
1000356a:	601a      	str	r2, [r3, #0]
1000356c:	e7fa      	b.n	10003564 <dcd_edpt0_status_complete+0xc>
1000356e:	46c0      	nop			@ (mov r8, r8)
10003570:	50110000 	.word	0x50110000

10003574 <dcd_edpt_open>:
10003574:	b5f0      	push	{r4, r5, r6, r7, lr}
10003576:	46c6      	mov	lr, r8
10003578:	78c8      	ldrb	r0, [r1, #3]
1000357a:	b500      	push	{lr}
1000357c:	0780      	lsls	r0, r0, #30
1000357e:	0f83      	lsrs	r3, r0, #30
10003580:	0018      	movs	r0, r3
10003582:	2b01      	cmp	r3, #1
10003584:	d060      	beq.n	10003648 <dcd_edpt_open+0xd4>
10003586:	788f      	ldrb	r7, [r1, #2]
10003588:	790a      	ldrb	r2, [r1, #4]
1000358a:	794b      	ldrb	r3, [r1, #5]
1000358c:	217f      	movs	r1, #127	@ 0x7f
1000358e:	4039      	ands	r1, r7
10003590:	09fc      	lsrs	r4, r7, #7
10003592:	021b      	lsls	r3, r3, #8
10003594:	004e      	lsls	r6, r1, #1
10003596:	4313      	orrs	r3, r2
10003598:	4d33      	ldr	r5, [pc, #204]	@ (10003668 <dcd_edpt_open+0xf4>)
1000359a:	1932      	adds	r2, r6, r4
1000359c:	0152      	lsls	r2, r2, #5
1000359e:	18aa      	adds	r2, r5, r2
100035a0:	7097      	strb	r7, [r2, #2]
100035a2:	2701      	movs	r7, #1
100035a4:	4067      	eors	r7, r4
100035a6:	7057      	strb	r7, [r2, #1]
100035a8:	2700      	movs	r7, #0
100035aa:	055b      	lsls	r3, r3, #21
100035ac:	0d5b      	lsrs	r3, r3, #21
100035ae:	70d7      	strb	r7, [r2, #3]
100035b0:	8313      	strh	r3, [r2, #24]
100035b2:	76d0      	strb	r0, [r2, #27]
100035b4:	46b8      	mov	r8, r7
100035b6:	00ca      	lsls	r2, r1, #3
100035b8:	2c01      	cmp	r4, #1
100035ba:	d032      	beq.n	10003622 <dcd_edpt_open+0xae>
100035bc:	4f2b      	ldr	r7, [pc, #172]	@ (1000366c <dcd_edpt_open+0xf8>)
100035be:	46bc      	mov	ip, r7
100035c0:	018f      	lsls	r7, r1, #6
100035c2:	4462      	add	r2, ip
100035c4:	46bc      	mov	ip, r7
100035c6:	44ac      	add	ip, r5
100035c8:	4667      	mov	r7, ip
100035ca:	60ba      	str	r2, [r7, #8]
100035cc:	4647      	mov	r7, r8
100035ce:	6017      	str	r7, [r2, #0]
100035d0:	2900      	cmp	r1, #0
100035d2:	d032      	beq.n	1000363a <dcd_edpt_open+0xc6>
100035d4:	4a26      	ldr	r2, [pc, #152]	@ (10003670 <dcd_edpt_open+0xfc>)
100035d6:	00c9      	lsls	r1, r1, #3
100035d8:	4690      	mov	r8, r2
100035da:	4662      	mov	r2, ip
100035dc:	4441      	add	r1, r8
100035de:	6051      	str	r1, [r2, #4]
100035e0:	223f      	movs	r2, #63	@ 0x3f
100035e2:	333f      	adds	r3, #63	@ 0x3f
100035e4:	4393      	bics	r3, r2
100035e6:	2802      	cmp	r0, #2
100035e8:	d037      	beq.n	1000365a <dcd_edpt_open+0xe6>
100035ea:	4922      	ldr	r1, [pc, #136]	@ (10003674 <dcd_edpt_open+0x100>)
100035ec:	1937      	adds	r7, r6, r4
100035ee:	680a      	ldr	r2, [r1, #0]
100035f0:	017f      	lsls	r7, r7, #5
100035f2:	18d3      	adds	r3, r2, r3
100035f4:	600b      	str	r3, [r1, #0]
100035f6:	4920      	ldr	r1, [pc, #128]	@ (10003678 <dcd_edpt_open+0x104>)
100035f8:	19ef      	adds	r7, r5, r7
100035fa:	60fa      	str	r2, [r7, #12]
100035fc:	428b      	cmp	r3, r1
100035fe:	d82e      	bhi.n	1000365e <dcd_edpt_open+0xea>
10003600:	1936      	adds	r6, r6, r4
10003602:	0176      	lsls	r6, r6, #5
10003604:	19ad      	adds	r5, r5, r6
10003606:	7eeb      	ldrb	r3, [r5, #27]
10003608:	491c      	ldr	r1, [pc, #112]	@ (1000367c <dcd_edpt_open+0x108>)
1000360a:	069b      	lsls	r3, r3, #26
1000360c:	404a      	eors	r2, r1
1000360e:	4313      	orrs	r3, r2
10003610:	2280      	movs	r2, #128	@ 0x80
10003612:	0612      	lsls	r2, r2, #24
10003614:	4313      	orrs	r3, r2
10003616:	686a      	ldr	r2, [r5, #4]
10003618:	6013      	str	r3, [r2, #0]
1000361a:	2001      	movs	r0, #1
1000361c:	bc80      	pop	{r7}
1000361e:	46b8      	mov	r8, r7
10003620:	bdf0      	pop	{r4, r5, r6, r7, pc}
10003622:	4f17      	ldr	r7, [pc, #92]	@ (10003680 <dcd_edpt_open+0x10c>)
10003624:	46bc      	mov	ip, r7
10003626:	018f      	lsls	r7, r1, #6
10003628:	4462      	add	r2, ip
1000362a:	46bc      	mov	ip, r7
1000362c:	44ac      	add	ip, r5
1000362e:	4667      	mov	r7, ip
10003630:	62ba      	str	r2, [r7, #40]	@ 0x28
10003632:	4647      	mov	r7, r8
10003634:	6017      	str	r7, [r2, #0]
10003636:	2900      	cmp	r1, #0
10003638:	d108      	bne.n	1000364c <dcd_edpt_open+0xd8>
1000363a:	2300      	movs	r3, #0
1000363c:	0164      	lsls	r4, r4, #5
1000363e:	192c      	adds	r4, r5, r4
10003640:	6063      	str	r3, [r4, #4]
10003642:	4b10      	ldr	r3, [pc, #64]	@ (10003684 <dcd_edpt_open+0x110>)
10003644:	60e3      	str	r3, [r4, #12]
10003646:	e7e8      	b.n	1000361a <dcd_edpt_open+0xa6>
10003648:	2000      	movs	r0, #0
1000364a:	e7e7      	b.n	1000361c <dcd_edpt_open+0xa8>
1000364c:	4a0b      	ldr	r2, [pc, #44]	@ (1000367c <dcd_edpt_open+0x108>)
1000364e:	00c9      	lsls	r1, r1, #3
10003650:	4690      	mov	r8, r2
10003652:	4662      	mov	r2, ip
10003654:	4441      	add	r1, r8
10003656:	6251      	str	r1, [r2, #36]	@ 0x24
10003658:	e7c2      	b.n	100035e0 <dcd_edpt_open+0x6c>
1000365a:	005b      	lsls	r3, r3, #1
1000365c:	e7c5      	b.n	100035ea <dcd_edpt_open+0x76>
1000365e:	f7ff f933 	bl	100028c8 <hard_assertion_failure>
10003662:	68fa      	ldr	r2, [r7, #12]
10003664:	e7cc      	b.n	10003600 <dcd_edpt_open+0x8c>
10003666:	46c0      	nop			@ (mov r8, r8)
10003668:	20001708 	.word	0x20001708
1000366c:	50100084 	.word	0x50100084
10003670:	50100004 	.word	0x50100004
10003674:	20001b0c 	.word	0x20001b0c
10003678:	50100fff 	.word	0x50100fff
1000367c:	50100000 	.word	0x50100000
10003680:	50100080 	.word	0x50100080
10003684:	50100100 	.word	0x50100100

10003688 <dcd_edpt_close_all>:
10003688:	b510      	push	{r4, lr}
1000368a:	f001 fa81 	bl	10004b90 <__reset_non_control_endpoints_veneer>
1000368e:	bd10      	pop	{r4, pc}

10003690 <dcd_edpt_xfer>:
10003690:	b510      	push	{r4, lr}
10003692:	207f      	movs	r0, #127	@ 0x7f
10003694:	000c      	movs	r4, r1
10003696:	4020      	ands	r0, r4
10003698:	0040      	lsls	r0, r0, #1
1000369a:	09e4      	lsrs	r4, r4, #7
1000369c:	0011      	movs	r1, r2
1000369e:	1900      	adds	r0, r0, r4
100036a0:	001a      	movs	r2, r3
100036a2:	4b03      	ldr	r3, [pc, #12]	@ (100036b0 <dcd_edpt_xfer+0x20>)
100036a4:	0140      	lsls	r0, r0, #5
100036a6:	18c0      	adds	r0, r0, r3
100036a8:	f000 f856 	bl	10003758 <hw_endpoint_xfer_start>
100036ac:	2001      	movs	r0, #1
100036ae:	bd10      	pop	{r4, pc}
100036b0:	20001708 	.word	0x20001708

100036b4 <dcd_edpt_stall>:
100036b4:	237f      	movs	r3, #127	@ 0x7f
100036b6:	0018      	movs	r0, r3
100036b8:	b510      	push	{r4, lr}
100036ba:	4008      	ands	r0, r1
100036bc:	09ca      	lsrs	r2, r1, #7
100036be:	420b      	tst	r3, r1
100036c0:	d103      	bne.n	100036ca <dcd_edpt_stall+0x16>
100036c2:	4907      	ldr	r1, [pc, #28]	@ (100036e0 <dcd_edpt_stall+0x2c>)
100036c4:	3b7d      	subs	r3, #125	@ 0x7d
100036c6:	1a9b      	subs	r3, r3, r2
100036c8:	668b      	str	r3, [r1, #104]	@ 0x68
100036ca:	0040      	lsls	r0, r0, #1
100036cc:	1880      	adds	r0, r0, r2
100036ce:	2280      	movs	r2, #128	@ 0x80
100036d0:	4b04      	ldr	r3, [pc, #16]	@ (100036e4 <dcd_edpt_stall+0x30>)
100036d2:	0140      	lsls	r0, r0, #5
100036d4:	2100      	movs	r1, #0
100036d6:	18c0      	adds	r0, r0, r3
100036d8:	0112      	lsls	r2, r2, #4
100036da:	f001 fa91 	bl	10004c00 <___hw_endpoint_buffer_control_update32_veneer>
100036de:	bd10      	pop	{r4, pc}
100036e0:	50112000 	.word	0x50112000
100036e4:	20001708 	.word	0x20001708

100036e8 <dcd_edpt_clear_stall>:
100036e8:	227f      	movs	r2, #127	@ 0x7f
100036ea:	0013      	movs	r3, r2
100036ec:	b510      	push	{r4, lr}
100036ee:	400b      	ands	r3, r1
100036f0:	420a      	tst	r2, r1
100036f2:	d100      	bne.n	100036f6 <dcd_edpt_clear_stall+0xe>
100036f4:	bd10      	pop	{r4, pc}
100036f6:	09c9      	lsrs	r1, r1, #7
100036f8:	005b      	lsls	r3, r3, #1
100036fa:	185b      	adds	r3, r3, r1
100036fc:	4804      	ldr	r0, [pc, #16]	@ (10003710 <dcd_edpt_clear_stall+0x28>)
100036fe:	015b      	lsls	r3, r3, #5
10003700:	18c0      	adds	r0, r0, r3
10003702:	2300      	movs	r3, #0
10003704:	2200      	movs	r2, #0
10003706:	4903      	ldr	r1, [pc, #12]	@ (10003714 <dcd_edpt_clear_stall+0x2c>)
10003708:	70c3      	strb	r3, [r0, #3]
1000370a:	f001 fa79 	bl	10004c00 <___hw_endpoint_buffer_control_update32_veneer>
1000370e:	e7f1      	b.n	100036f4 <dcd_edpt_clear_stall+0xc>
10003710:	20001708 	.word	0x20001708
10003714:	fffff7ff 	.word	0xfffff7ff

10003718 <rp2040_usb_init>:
10003718:	2280      	movs	r2, #128	@ 0x80
1000371a:	4b0a      	ldr	r3, [pc, #40]	@ (10003744 <rp2040_usb_init+0x2c>)
1000371c:	0452      	lsls	r2, r2, #17
1000371e:	b510      	push	{r4, lr}
10003720:	601a      	str	r2, [r3, #0]
10003722:	4b09      	ldr	r3, [pc, #36]	@ (10003748 <rp2040_usb_init+0x30>)
10003724:	4909      	ldr	r1, [pc, #36]	@ (1000374c <rp2040_usb_init+0x34>)
10003726:	601a      	str	r2, [r3, #0]
10003728:	0010      	movs	r0, r2
1000372a:	680b      	ldr	r3, [r1, #0]
1000372c:	4398      	bics	r0, r3
1000372e:	d1fb      	bne.n	10003728 <rp2040_usb_init+0x10>
10003730:	2280      	movs	r2, #128	@ 0x80
10003732:	2100      	movs	r1, #0
10003734:	0152      	lsls	r2, r2, #5
10003736:	4806      	ldr	r0, [pc, #24]	@ (10003750 <rp2040_usb_init+0x38>)
10003738:	f7ff fd22 	bl	10003180 <__wrap_memset>
1000373c:	2209      	movs	r2, #9
1000373e:	4b05      	ldr	r3, [pc, #20]	@ (10003754 <rp2040_usb_init+0x3c>)
10003740:	675a      	str	r2, [r3, #116]	@ 0x74
10003742:	bd10      	pop	{r4, pc}
10003744:	4000e000 	.word	0x4000e000
10003748:	4000f000 	.word	0x4000f000
1000374c:	4000c008 	.word	0x4000c008
10003750:	50100000 	.word	0x50100000
10003754:	50110000 	.word	0x50110000

10003758 <hw_endpoint_xfer_start>:
10003758:	2300      	movs	r3, #0
1000375a:	b510      	push	{r4, lr}
1000375c:	82c3      	strh	r3, [r0, #22]
1000375e:	3301      	adds	r3, #1
10003760:	8282      	strh	r2, [r0, #20]
10003762:	7683      	strb	r3, [r0, #26]
10003764:	6101      	str	r1, [r0, #16]
10003766:	0004      	movs	r4, r0
10003768:	f001 fa22 	bl	10004bb0 <__e15_is_bulkin_ep_veneer>
1000376c:	2800      	cmp	r0, #0
1000376e:	d004      	beq.n	1000377a <hw_endpoint_xfer_start+0x22>
10003770:	2180      	movs	r1, #128	@ 0x80
10003772:	2390      	movs	r3, #144	@ 0x90
10003774:	4a07      	ldr	r2, [pc, #28]	@ (10003794 <hw_endpoint_xfer_start+0x3c>)
10003776:	0289      	lsls	r1, r1, #10
10003778:	50d1      	str	r1, [r2, r3]
1000377a:	0020      	movs	r0, r4
1000377c:	f001 fa28 	bl	10004bd0 <__e15_is_critical_frame_period_veneer>
10003780:	2800      	cmp	r0, #0
10003782:	d002      	beq.n	1000378a <hw_endpoint_xfer_start+0x32>
10003784:	2301      	movs	r3, #1
10003786:	7723      	strb	r3, [r4, #28]
10003788:	bd10      	pop	{r4, pc}
1000378a:	0020      	movs	r0, r4
1000378c:	f001 fa30 	bl	10004bf0 <__hw_endpoint_start_next_buffer_veneer>
10003790:	e7fa      	b.n	10003788 <hw_endpoint_xfer_start+0x30>
10003792:	46c0      	nop			@ (mov r8, r8)
10003794:	50112000 	.word	0x50112000

10003798 <tud_vendor_control_xfer_cb>:
10003798:	2000      	movs	r0, #0
1000379a:	4770      	bx	lr

1000379c <tud_event_hook_cb>:
1000379c:	4770      	bx	lr
1000379e:	46c0      	nop			@ (mov r8, r8)

100037a0 <tud_sof_cb>:
100037a0:	4770      	bx	lr
100037a2:	46c0      	nop			@ (mov r8, r8)

100037a4 <tud_descriptor_bos_cb>:
100037a4:	2000      	movs	r0, #0
100037a6:	4770      	bx	lr

100037a8 <tud_descriptor_device_qualifier_cb>:
100037a8:	2000      	movs	r0, #0
100037aa:	4770      	bx	lr

100037ac <tud_descriptor_other_speed_configuration_cb>:
100037ac:	2000      	movs	r0, #0
100037ae:	4770      	bx	lr

100037b0 <tud_mount_cb>:
100037b0:	4770      	bx	lr
100037b2:	46c0      	nop			@ (mov r8, r8)

100037b4 <tud_umount_cb>:
100037b4:	4770      	bx	lr
100037b6:	46c0      	nop			@ (mov r8, r8)

100037b8 <tud_suspend_cb>:
100037b8:	4770      	bx	lr
100037ba:	46c0      	nop			@ (mov r8, r8)

100037bc <tud_resume_cb>:
100037bc:	4770      	bx	lr
100037be:	46c0      	nop			@ (mov r8, r8)

100037c0 <tud_mounted>:
100037c0:	4b02      	ldr	r3, [pc, #8]	@ (100037cc <tud_mounted+0xc>)
100037c2:	7858      	ldrb	r0, [r3, #1]
100037c4:	1e43      	subs	r3, r0, #1
100037c6:	4198      	sbcs	r0, r3
100037c8:	b2c0      	uxtb	r0, r0
100037ca:	4770      	bx	lr
100037cc:	20001384 	.word	0x20001384

100037d0 <tud_suspended>:
100037d0:	4b02      	ldr	r3, [pc, #8]	@ (100037dc <tud_suspended+0xc>)
100037d2:	7818      	ldrb	r0, [r3, #0]
100037d4:	0740      	lsls	r0, r0, #29
100037d6:	0fc0      	lsrs	r0, r0, #31
100037d8:	4770      	bx	lr
100037da:	46c0      	nop			@ (mov r8, r8)
100037dc:	20001384 	.word	0x20001384

100037e0 <tud_rhport_init>:
100037e0:	b5f0      	push	{r4, r5, r6, r7, lr}
100037e2:	46d6      	mov	lr, sl
100037e4:	464f      	mov	r7, r9
100037e6:	4646      	mov	r6, r8
100037e8:	b5c0      	push	{r6, r7, lr}
100037ea:	4b2f      	ldr	r3, [pc, #188]	@ (100038a8 <tud_rhport_init+0xc8>)
100037ec:	0007      	movs	r7, r0
100037ee:	469a      	mov	sl, r3
100037f0:	781b      	ldrb	r3, [r3, #0]
100037f2:	000e      	movs	r6, r1
100037f4:	2bff      	cmp	r3, #255	@ 0xff
100037f6:	d001      	beq.n	100037fc <tud_rhport_init+0x1c>
100037f8:	2001      	movs	r0, #1
100037fa:	e041      	b.n	10003880 <tud_rhport_init+0xa0>
100037fc:	2900      	cmp	r1, #0
100037fe:	d03e      	beq.n	1000387e <tud_rhport_init+0x9e>
10003800:	2100      	movs	r1, #0
10003802:	2254      	movs	r2, #84	@ 0x54
10003804:	4829      	ldr	r0, [pc, #164]	@ (100038ac <tud_rhport_init+0xcc>)
10003806:	f7ff fcbb 	bl	10003180 <__wrap_memset>
1000380a:	2200      	movs	r2, #0
1000380c:	4c28      	ldr	r4, [pc, #160]	@ (100038b0 <tud_rhport_init+0xd0>)
1000380e:	4b29      	ldr	r3, [pc, #164]	@ (100038b4 <tud_rhport_init+0xd4>)
10003810:	0020      	movs	r0, r4
10003812:	701a      	strb	r2, [r3, #0]
10003814:	f7fe facc 	bl	10001db0 <mutex_init>
10003818:	4b27      	ldr	r3, [pc, #156]	@ (100038b8 <tud_rhport_init+0xd8>)
1000381a:	601c      	str	r4, [r3, #0]
1000381c:	4c27      	ldr	r4, [pc, #156]	@ (100038bc <tud_rhport_init+0xdc>)
1000381e:	0020      	movs	r0, r4
10003820:	3c14      	subs	r4, #20
10003822:	f7fe fad3 	bl	10001dcc <critical_section_init>
10003826:	0020      	movs	r0, r4
10003828:	f001 f952 	bl	10004ad0 <tu_fifo_clear>
1000382c:	4b24      	ldr	r3, [pc, #144]	@ (100038c0 <tud_rhport_init+0xe0>)
1000382e:	4d25      	ldr	r5, [pc, #148]	@ (100038c4 <tud_rhport_init+0xe4>)
10003830:	601c      	str	r4, [r3, #0]
10003832:	4b25      	ldr	r3, [pc, #148]	@ (100038c8 <tud_rhport_init+0xe8>)
10003834:	2b00      	cmp	r3, #0
10003836:	d028      	beq.n	1000388a <tud_rhport_init+0xaa>
10003838:	0028      	movs	r0, r5
1000383a:	e000      	b.n	1000383e <tud_rhport_init+0x5e>
1000383c:	bf00      	nop
1000383e:	4b23      	ldr	r3, [pc, #140]	@ (100038cc <tud_rhport_init+0xec>)
10003840:	6018      	str	r0, [r3, #0]
10003842:	782b      	ldrb	r3, [r5, #0]
10003844:	4a22      	ldr	r2, [pc, #136]	@ (100038d0 <tud_rhport_init+0xf0>)
10003846:	2400      	movs	r4, #0
10003848:	4691      	mov	r9, r2
1000384a:	4a20      	ldr	r2, [pc, #128]	@ (100038cc <tud_rhport_init+0xec>)
1000384c:	4690      	mov	r8, r2
1000384e:	e00e      	b.n	1000386e <tud_rhport_init+0x8e>
10003850:	4643      	mov	r3, r8
10003852:	681b      	ldr	r3, [r3, #0]
10003854:	0162      	lsls	r2, r4, #5
10003856:	189b      	adds	r3, r3, r2
10003858:	2b00      	cmp	r3, #0
1000385a:	d010      	beq.n	1000387e <tud_rhport_init+0x9e>
1000385c:	685b      	ldr	r3, [r3, #4]
1000385e:	2b00      	cmp	r3, #0
10003860:	d00d      	beq.n	1000387e <tud_rhport_init+0x9e>
10003862:	4798      	blx	r3
10003864:	3401      	adds	r4, #1
10003866:	782b      	ldrb	r3, [r5, #0]
10003868:	b2e4      	uxtb	r4, r4
1000386a:	42a3      	cmp	r3, r4
1000386c:	d30f      	bcc.n	1000388e <tud_rhport_init+0xae>
1000386e:	42a3      	cmp	r3, r4
10003870:	d8ee      	bhi.n	10003850 <tud_rhport_init+0x70>
10003872:	1ae3      	subs	r3, r4, r3
10003874:	015b      	lsls	r3, r3, #5
10003876:	444b      	add	r3, r9
10003878:	685b      	ldr	r3, [r3, #4]
1000387a:	2b00      	cmp	r3, #0
1000387c:	d1f1      	bne.n	10003862 <tud_rhport_init+0x82>
1000387e:	2000      	movs	r0, #0
10003880:	bce0      	pop	{r5, r6, r7}
10003882:	46ba      	mov	sl, r7
10003884:	46b1      	mov	r9, r6
10003886:	46a8      	mov	r8, r5
10003888:	bdf0      	pop	{r4, r5, r6, r7, pc}
1000388a:	782b      	ldrb	r3, [r5, #0]
1000388c:	e7da      	b.n	10003844 <tud_rhport_init+0x64>
1000388e:	4653      	mov	r3, sl
10003890:	0031      	movs	r1, r6
10003892:	0038      	movs	r0, r7
10003894:	701f      	strb	r7, [r3, #0]
10003896:	f7ff fdf9 	bl	1000348c <dcd_init>
1000389a:	2800      	cmp	r0, #0
1000389c:	d0ef      	beq.n	1000387e <tud_rhport_init+0x9e>
1000389e:	0038      	movs	r0, r7
100038a0:	f7ff fe3c 	bl	1000351c <dcd_int_enable>
100038a4:	2001      	movs	r0, #1
100038a6:	e7eb      	b.n	10003880 <tud_rhport_init+0xa0>
100038a8:	20000edc 	.word	0x20000edc
100038ac:	20001384 	.word	0x20001384
100038b0:	2000137c 	.word	0x2000137c
100038b4:	20001b4e 	.word	0x20001b4e
100038b8:	200013d8 	.word	0x200013d8
100038bc:	20000ed4 	.word	0x20000ed4
100038c0:	200013dc 	.word	0x200013dc
100038c4:	20001b4c 	.word	0x20001b4c
100038c8:	00000000 	.word	0x00000000
100038cc:	20001268 	.word	0x20001268
100038d0:	100050e8 	.word	0x100050e8

100038d4 <tud_task_ext>:
100038d4:	b5f0      	push	{r4, r5, r6, r7, lr}
100038d6:	46de      	mov	lr, fp
100038d8:	4657      	mov	r7, sl
100038da:	464e      	mov	r6, r9
100038dc:	4645      	mov	r5, r8
100038de:	b5e0      	push	{r5, r6, r7, lr}
100038e0:	4bca      	ldr	r3, [pc, #808]	@ (10003c0c <tud_task_ext+0x338>)
100038e2:	b08f      	sub	sp, #60	@ 0x3c
100038e4:	9303      	str	r3, [sp, #12]
100038e6:	781b      	ldrb	r3, [r3, #0]
100038e8:	2bff      	cmp	r3, #255	@ 0xff
100038ea:	d100      	bne.n	100038ee <tud_task_ext+0x1a>
100038ec:	e146      	b.n	10003b7c <tud_task_ext+0x2a8>
100038ee:	4bc8      	ldr	r3, [pc, #800]	@ (10003c10 <tud_task_ext+0x33c>)
100038f0:	4ec8      	ldr	r6, [pc, #800]	@ (10003c14 <tud_task_ext+0x340>)
100038f2:	469b      	mov	fp, r3
100038f4:	465f      	mov	r7, fp
100038f6:	4bc8      	ldr	r3, [pc, #800]	@ (10003c18 <tud_task_ext+0x344>)
100038f8:	ac0b      	add	r4, sp, #44	@ 0x2c
100038fa:	9302      	str	r3, [sp, #8]
100038fc:	4bc7      	ldr	r3, [pc, #796]	@ (10003c1c <tud_task_ext+0x348>)
100038fe:	9301      	str	r3, [sp, #4]
10003900:	6835      	ldr	r5, [r6, #0]
10003902:	696a      	ldr	r2, [r5, #20]
10003904:	f3ef 8110 	mrs	r1, PRIMASK
10003908:	b672      	cpsid	i
1000390a:	6813      	ldr	r3, [r2, #0]
1000390c:	2b00      	cmp	r3, #0
1000390e:	d0fc      	beq.n	1000390a <tud_task_ext+0x36>
10003910:	f3bf 8f5f 	dmb	sy
10003914:	61a9      	str	r1, [r5, #24]
10003916:	0028      	movs	r0, r5
10003918:	0021      	movs	r1, r4
1000391a:	f001 f837 	bl	1000498c <tu_fifo_read>
1000391e:	696a      	ldr	r2, [r5, #20]
10003920:	69ab      	ldr	r3, [r5, #24]
10003922:	f3bf 8f5f 	dmb	sy
10003926:	2100      	movs	r1, #0
10003928:	6011      	str	r1, [r2, #0]
1000392a:	f383 8810 	msr	PRIMASK, r3
1000392e:	2800      	cmp	r0, #0
10003930:	d100      	bne.n	10003934 <tud_task_ext+0x60>
10003932:	e123      	b.n	10003b7c <tud_task_ext+0x2a8>
10003934:	7863      	ldrb	r3, [r4, #1]
10003936:	2b08      	cmp	r3, #8
10003938:	d8e2      	bhi.n	10003900 <tud_task_ext+0x2c>
1000393a:	009b      	lsls	r3, r3, #2
1000393c:	58fb      	ldr	r3, [r7, r3]
1000393e:	469f      	mov	pc, r3
10003940:	6863      	ldr	r3, [r4, #4]
10003942:	2b00      	cmp	r3, #0
10003944:	d0dc      	beq.n	10003900 <tud_task_ext+0x2c>
10003946:	68a0      	ldr	r0, [r4, #8]
10003948:	4798      	blx	r3
1000394a:	e7d9      	b.n	10003900 <tud_task_ext+0x2c>
1000394c:	227f      	movs	r2, #127	@ 0x7f
1000394e:	7921      	ldrb	r1, [r4, #4]
10003950:	4db1      	ldr	r5, [pc, #708]	@ (10003c18 <tud_task_ext+0x344>)
10003952:	400a      	ands	r2, r1
10003954:	0053      	lsls	r3, r2, #1
10003956:	18eb      	adds	r3, r5, r3
10003958:	4698      	mov	r8, r3
1000395a:	09c8      	lsrs	r0, r1, #7
1000395c:	4480      	add	r8, r0
1000395e:	4640      	mov	r0, r8
10003960:	2301      	movs	r3, #1
10003962:	3030      	adds	r0, #48	@ 0x30
10003964:	7905      	ldrb	r5, [r0, #4]
10003966:	439d      	bics	r5, r3
10003968:	7105      	strb	r5, [r0, #4]
1000396a:	7905      	ldrb	r5, [r0, #4]
1000396c:	3303      	adds	r3, #3
1000396e:	439d      	bics	r5, r3
10003970:	7105      	strb	r5, [r0, #4]
10003972:	2a00      	cmp	r2, #0
10003974:	d100      	bne.n	10003978 <tud_task_ext+0xa4>
10003976:	e108      	b.n	10003b8a <tud_task_ext+0x2b6>
10003978:	4643      	mov	r3, r8
1000397a:	4aa9      	ldr	r2, [pc, #676]	@ (10003c20 <tud_task_ext+0x34c>)
1000397c:	7d1b      	ldrb	r3, [r3, #20]
1000397e:	7812      	ldrb	r2, [r2, #0]
10003980:	4293      	cmp	r3, r2
10003982:	d300      	bcc.n	10003986 <tud_task_ext+0xb2>
10003984:	e0f8      	b.n	10003b78 <tud_task_ext+0x2a4>
10003986:	4aa7      	ldr	r2, [pc, #668]	@ (10003c24 <tud_task_ext+0x350>)
10003988:	015b      	lsls	r3, r3, #5
1000398a:	6815      	ldr	r5, [r2, #0]
1000398c:	18ed      	adds	r5, r5, r3
1000398e:	2d00      	cmp	r5, #0
10003990:	d100      	bne.n	10003994 <tud_task_ext+0xc0>
10003992:	e0f3      	b.n	10003b7c <tud_task_ext+0x2a8>
10003994:	68a3      	ldr	r3, [r4, #8]
10003996:	7962      	ldrb	r2, [r4, #5]
10003998:	7820      	ldrb	r0, [r4, #0]
1000399a:	69ad      	ldr	r5, [r5, #24]
1000399c:	47a8      	blx	r5
1000399e:	e7af      	b.n	10003900 <tud_task_ext+0x2c>
100039a0:	4aa1      	ldr	r2, [pc, #644]	@ (10003c28 <tud_task_ext+0x354>)
100039a2:	7813      	ldrb	r3, [r2, #0]
100039a4:	2b00      	cmp	r3, #0
100039a6:	d100      	bne.n	100039aa <tud_task_ext+0xd6>
100039a8:	e0e8      	b.n	10003b7c <tud_task_ext+0x2a8>
100039aa:	7813      	ldrb	r3, [r2, #0]
100039ac:	3b01      	subs	r3, #1
100039ae:	b2db      	uxtb	r3, r3
100039b0:	7013      	strb	r3, [r2, #0]
100039b2:	7813      	ldrb	r3, [r2, #0]
100039b4:	2b00      	cmp	r3, #0
100039b6:	d1a3      	bne.n	10003900 <tud_task_ext+0x2c>
100039b8:	2201      	movs	r2, #1
100039ba:	4d97      	ldr	r5, [pc, #604]	@ (10003c18 <tud_task_ext+0x344>)
100039bc:	2101      	movs	r1, #1
100039be:	782b      	ldrb	r3, [r5, #0]
100039c0:	2004      	movs	r0, #4
100039c2:	4313      	orrs	r3, r2
100039c4:	702b      	strb	r3, [r5, #0]
100039c6:	2334      	movs	r3, #52	@ 0x34
100039c8:	5cea      	ldrb	r2, [r5, r3]
100039ca:	438a      	bics	r2, r1
100039cc:	54ea      	strb	r2, [r5, r3]
100039ce:	5cea      	ldrb	r2, [r5, r3]
100039d0:	4382      	bics	r2, r0
100039d2:	54ea      	strb	r2, [r5, r3]
100039d4:	3301      	adds	r3, #1
100039d6:	5cea      	ldrb	r2, [r5, r3]
100039d8:	438a      	bics	r2, r1
100039da:	54ea      	strb	r2, [r5, r3]
100039dc:	5cea      	ldrb	r2, [r5, r3]
100039de:	4382      	bics	r2, r0
100039e0:	54ea      	strb	r2, [r5, r3]
100039e2:	7823      	ldrb	r3, [r4, #0]
100039e4:	2000      	movs	r0, #0
100039e6:	4698      	mov	r8, r3
100039e8:	f000 fc60 	bl	100042ac <usbd_control_set_complete_callback>
100039ec:	2260      	movs	r2, #96	@ 0x60
100039ee:	7923      	ldrb	r3, [r4, #4]
100039f0:	401a      	ands	r2, r3
100039f2:	2a60      	cmp	r2, #96	@ 0x60
100039f4:	d100      	bne.n	100039f8 <tud_task_ext+0x124>
100039f6:	e0f3      	b.n	10003be0 <tud_task_ext+0x30c>
100039f8:	2a40      	cmp	r2, #64	@ 0x40
100039fa:	d100      	bne.n	100039fe <tud_task_ext+0x12a>
100039fc:	e0f9      	b.n	10003bf2 <tud_task_ext+0x31e>
100039fe:	06db      	lsls	r3, r3, #27
10003a00:	0edb      	lsrs	r3, r3, #27
10003a02:	2b01      	cmp	r3, #1
10003a04:	d100      	bne.n	10003a08 <tud_task_ext+0x134>
10003a06:	e117      	b.n	10003c38 <tud_task_ext+0x364>
10003a08:	2b02      	cmp	r3, #2
10003a0a:	d100      	bne.n	10003a0e <tud_task_ext+0x13a>
10003a0c:	e0cc      	b.n	10003ba8 <tud_task_ext+0x2d4>
10003a0e:	2b00      	cmp	r3, #0
10003a10:	d000      	beq.n	10003a14 <tud_task_ext+0x140>
10003a12:	e0e5      	b.n	10003be0 <tud_task_ext+0x30c>
10003a14:	2a20      	cmp	r2, #32
10003a16:	d100      	bne.n	10003a1a <tud_task_ext+0x146>
10003a18:	e20f      	b.n	10003e3a <tud_task_ext+0x566>
10003a1a:	2a00      	cmp	r2, #0
10003a1c:	d000      	beq.n	10003a20 <tud_task_ext+0x14c>
10003a1e:	e0df      	b.n	10003be0 <tud_task_ext+0x30c>
10003a20:	7963      	ldrb	r3, [r4, #5]
10003a22:	2b09      	cmp	r3, #9
10003a24:	d900      	bls.n	10003a28 <tud_task_ext+0x154>
10003a26:	e0db      	b.n	10003be0 <tud_task_ext+0x30c>
10003a28:	4a80      	ldr	r2, [pc, #512]	@ (10003c2c <tud_task_ext+0x358>)
10003a2a:	009b      	lsls	r3, r3, #2
10003a2c:	58d3      	ldr	r3, [r2, r3]
10003a2e:	469f      	mov	pc, r3
10003a30:	4d79      	ldr	r5, [pc, #484]	@ (10003c18 <tud_task_ext+0x344>)
10003a32:	782b      	ldrb	r3, [r5, #0]
10003a34:	07db      	lsls	r3, r3, #31
10003a36:	d400      	bmi.n	10003a3a <tud_task_ext+0x166>
10003a38:	e762      	b.n	10003900 <tud_task_ext+0x2c>
10003a3a:	f7ff febf 	bl	100037bc <tud_resume_cb>
10003a3e:	e75f      	b.n	10003900 <tud_task_ext+0x2c>
10003a40:	9b02      	ldr	r3, [sp, #8]
10003a42:	78db      	ldrb	r3, [r3, #3]
10003a44:	07db      	lsls	r3, r3, #31
10003a46:	d400      	bmi.n	10003a4a <tud_task_ext+0x176>
10003a48:	e75a      	b.n	10003900 <tud_task_ext+0x2c>
10003a4a:	6860      	ldr	r0, [r4, #4]
10003a4c:	f7ff fea8 	bl	100037a0 <tud_sof_cb>
10003a50:	e756      	b.n	10003900 <tud_task_ext+0x2c>
10003a52:	4d71      	ldr	r5, [pc, #452]	@ (10003c18 <tud_task_ext+0x344>)
10003a54:	782b      	ldrb	r3, [r5, #0]
10003a56:	07db      	lsls	r3, r3, #31
10003a58:	d400      	bmi.n	10003a5c <tud_task_ext+0x188>
10003a5a:	e751      	b.n	10003900 <tud_task_ext+0x2c>
10003a5c:	7828      	ldrb	r0, [r5, #0]
10003a5e:	0700      	lsls	r0, r0, #28
10003a60:	0fc0      	lsrs	r0, r0, #31
10003a62:	f7ff fea9 	bl	100037b8 <tud_suspend_cb>
10003a66:	e74b      	b.n	10003900 <tud_task_ext+0x2c>
10003a68:	7823      	ldrb	r3, [r4, #0]
10003a6a:	4a6c      	ldr	r2, [pc, #432]	@ (10003c1c <tud_task_ext+0x348>)
10003a6c:	4698      	mov	r8, r3
10003a6e:	4693      	mov	fp, r2
10003a70:	4b6b      	ldr	r3, [pc, #428]	@ (10003c20 <tud_task_ext+0x34c>)
10003a72:	4a6c      	ldr	r2, [pc, #432]	@ (10003c24 <tud_task_ext+0x350>)
10003a74:	4699      	mov	r9, r3
10003a76:	0031      	movs	r1, r6
10003a78:	4692      	mov	sl, r2
10003a7a:	003a      	movs	r2, r7
10003a7c:	4646      	mov	r6, r8
10003a7e:	464f      	mov	r7, r9
10003a80:	2500      	movs	r5, #0
10003a82:	4691      	mov	r9, r2
10003a84:	4688      	mov	r8, r1
10003a86:	781b      	ldrb	r3, [r3, #0]
10003a88:	e00e      	b.n	10003aa8 <tud_task_ext+0x1d4>
10003a8a:	4653      	mov	r3, sl
10003a8c:	681b      	ldr	r3, [r3, #0]
10003a8e:	016a      	lsls	r2, r5, #5
10003a90:	189b      	adds	r3, r3, r2
10003a92:	2b00      	cmp	r3, #0
10003a94:	d100      	bne.n	10003a98 <tud_task_ext+0x1c4>
10003a96:	e07e      	b.n	10003b96 <tud_task_ext+0x2c2>
10003a98:	68db      	ldr	r3, [r3, #12]
10003a9a:	0030      	movs	r0, r6
10003a9c:	4798      	blx	r3
10003a9e:	3501      	adds	r5, #1
10003aa0:	783b      	ldrb	r3, [r7, #0]
10003aa2:	b2ed      	uxtb	r5, r5
10003aa4:	42ab      	cmp	r3, r5
10003aa6:	d30c      	bcc.n	10003ac2 <tud_task_ext+0x1ee>
10003aa8:	429d      	cmp	r5, r3
10003aaa:	d3ee      	bcc.n	10003a8a <tud_task_ext+0x1b6>
10003aac:	1aeb      	subs	r3, r5, r3
10003aae:	015b      	lsls	r3, r3, #5
10003ab0:	445b      	add	r3, fp
10003ab2:	68db      	ldr	r3, [r3, #12]
10003ab4:	0030      	movs	r0, r6
10003ab6:	4798      	blx	r3
10003ab8:	3501      	adds	r5, #1
10003aba:	783b      	ldrb	r3, [r7, #0]
10003abc:	b2ed      	uxtb	r5, r5
10003abe:	42ab      	cmp	r3, r5
10003ac0:	d2f2      	bcs.n	10003aa8 <tud_task_ext+0x1d4>
10003ac2:	4d55      	ldr	r5, [pc, #340]	@ (10003c18 <tud_task_ext+0x344>)
10003ac4:	2254      	movs	r2, #84	@ 0x54
10003ac6:	2100      	movs	r1, #0
10003ac8:	0028      	movs	r0, r5
10003aca:	f7ff fb59 	bl	10003180 <__wrap_memset>
10003ace:	2210      	movs	r2, #16
10003ad0:	21ff      	movs	r1, #255	@ 0xff
10003ad2:	1d28      	adds	r0, r5, #4
10003ad4:	f7ff fb54 	bl	10003180 <__wrap_memset>
10003ad8:	0028      	movs	r0, r5
10003ada:	2220      	movs	r2, #32
10003adc:	21ff      	movs	r1, #255	@ 0xff
10003ade:	3014      	adds	r0, #20
10003ae0:	4646      	mov	r6, r8
10003ae2:	464f      	mov	r7, r9
10003ae4:	f7ff fb4c 	bl	10003180 <__wrap_memset>
10003ae8:	f000 fbd6 	bl	10004298 <usbd_control_reset>
10003aec:	7923      	ldrb	r3, [r4, #4]
10003aee:	70ab      	strb	r3, [r5, #2]
10003af0:	e706      	b.n	10003900 <tud_task_ext+0x2c>
10003af2:	7823      	ldrb	r3, [r4, #0]
10003af4:	4a4b      	ldr	r2, [pc, #300]	@ (10003c24 <tud_task_ext+0x350>)
10003af6:	4698      	mov	r8, r3
10003af8:	4b49      	ldr	r3, [pc, #292]	@ (10003c20 <tud_task_ext+0x34c>)
10003afa:	4692      	mov	sl, r2
10003afc:	4699      	mov	r9, r3
10003afe:	0032      	movs	r2, r6
10003b00:	46bb      	mov	fp, r7
10003b02:	4646      	mov	r6, r8
10003b04:	2500      	movs	r5, #0
10003b06:	464f      	mov	r7, r9
10003b08:	4690      	mov	r8, r2
10003b0a:	781b      	ldrb	r3, [r3, #0]
10003b0c:	e00d      	b.n	10003b2a <tud_task_ext+0x256>
10003b0e:	4653      	mov	r3, sl
10003b10:	681b      	ldr	r3, [r3, #0]
10003b12:	016a      	lsls	r2, r5, #5
10003b14:	189b      	adds	r3, r3, r2
10003b16:	2b00      	cmp	r3, #0
10003b18:	d041      	beq.n	10003b9e <tud_task_ext+0x2ca>
10003b1a:	68db      	ldr	r3, [r3, #12]
10003b1c:	0030      	movs	r0, r6
10003b1e:	4798      	blx	r3
10003b20:	3501      	adds	r5, #1
10003b22:	783b      	ldrb	r3, [r7, #0]
10003b24:	b2ed      	uxtb	r5, r5
10003b26:	42ab      	cmp	r3, r5
10003b28:	d30e      	bcc.n	10003b48 <tud_task_ext+0x274>
10003b2a:	42ab      	cmp	r3, r5
10003b2c:	d8ef      	bhi.n	10003b0e <tud_task_ext+0x23a>
10003b2e:	9a01      	ldr	r2, [sp, #4]
10003b30:	1aeb      	subs	r3, r5, r3
10003b32:	4694      	mov	ip, r2
10003b34:	015b      	lsls	r3, r3, #5
10003b36:	4463      	add	r3, ip
10003b38:	68db      	ldr	r3, [r3, #12]
10003b3a:	0030      	movs	r0, r6
10003b3c:	4798      	blx	r3
10003b3e:	3501      	adds	r5, #1
10003b40:	783b      	ldrb	r3, [r7, #0]
10003b42:	b2ed      	uxtb	r5, r5
10003b44:	42ab      	cmp	r3, r5
10003b46:	d2f0      	bcs.n	10003b2a <tud_task_ext+0x256>
10003b48:	9d02      	ldr	r5, [sp, #8]
10003b4a:	2254      	movs	r2, #84	@ 0x54
10003b4c:	2100      	movs	r1, #0
10003b4e:	0028      	movs	r0, r5
10003b50:	f7ff fb16 	bl	10003180 <__wrap_memset>
10003b54:	2210      	movs	r2, #16
10003b56:	21ff      	movs	r1, #255	@ 0xff
10003b58:	4835      	ldr	r0, [pc, #212]	@ (10003c30 <tud_task_ext+0x35c>)
10003b5a:	f7ff fb11 	bl	10003180 <__wrap_memset>
10003b5e:	0028      	movs	r0, r5
10003b60:	2220      	movs	r2, #32
10003b62:	21ff      	movs	r1, #255	@ 0xff
10003b64:	3014      	adds	r0, #20
10003b66:	4646      	mov	r6, r8
10003b68:	465f      	mov	r7, fp
10003b6a:	f7ff fb09 	bl	10003180 <__wrap_memset>
10003b6e:	f000 fb93 	bl	10004298 <usbd_control_reset>
10003b72:	f7ff fe1f 	bl	100037b4 <tud_umount_cb>
10003b76:	e6c3      	b.n	10003900 <tud_task_ext+0x2c>
10003b78:	4293      	cmp	r3, r2
10003b7a:	d013      	beq.n	10003ba4 <tud_task_ext+0x2d0>
10003b7c:	b00f      	add	sp, #60	@ 0x3c
10003b7e:	bcf0      	pop	{r4, r5, r6, r7}
10003b80:	46bb      	mov	fp, r7
10003b82:	46b2      	mov	sl, r6
10003b84:	46a9      	mov	r9, r5
10003b86:	46a0      	mov	r8, r4
10003b88:	bdf0      	pop	{r4, r5, r6, r7, pc}
10003b8a:	68a3      	ldr	r3, [r4, #8]
10003b8c:	7962      	ldrb	r2, [r4, #5]
10003b8e:	7820      	ldrb	r0, [r4, #0]
10003b90:	f000 fba0 	bl	100042d4 <usbd_control_xfer_cb>
10003b94:	e6b4      	b.n	10003900 <tud_task_ext+0x2c>
10003b96:	4646      	mov	r6, r8
10003b98:	464f      	mov	r7, r9
10003b9a:	4d1f      	ldr	r5, [pc, #124]	@ (10003c18 <tud_task_ext+0x344>)
10003b9c:	e7a4      	b.n	10003ae8 <tud_task_ext+0x214>
10003b9e:	4646      	mov	r6, r8
10003ba0:	465f      	mov	r7, fp
10003ba2:	e7e4      	b.n	10003b6e <tud_task_ext+0x29a>
10003ba4:	4d1d      	ldr	r5, [pc, #116]	@ (10003c1c <tud_task_ext+0x348>)
10003ba6:	e6f5      	b.n	10003994 <tud_task_ext+0xc0>
10003ba8:	2370      	movs	r3, #112	@ 0x70
10003baa:	7a21      	ldrb	r1, [r4, #8]
10003bac:	420b      	tst	r3, r1
10003bae:	d117      	bne.n	10003be0 <tud_task_ext+0x30c>
10003bb0:	09c8      	lsrs	r0, r1, #7
10003bb2:	4683      	mov	fp, r0
10003bb4:	330f      	adds	r3, #15
10003bb6:	400b      	ands	r3, r1
10003bb8:	005b      	lsls	r3, r3, #1
10003bba:	4699      	mov	r9, r3
10003bbc:	4818      	ldr	r0, [pc, #96]	@ (10003c20 <tud_task_ext+0x34c>)
10003bbe:	18eb      	adds	r3, r5, r3
10003bc0:	445b      	add	r3, fp
10003bc2:	7d1b      	ldrb	r3, [r3, #20]
10003bc4:	7800      	ldrb	r0, [r0, #0]
10003bc6:	4283      	cmp	r3, r0
10003bc8:	d261      	bcs.n	10003c8e <tud_task_ext+0x3ba>
10003bca:	4816      	ldr	r0, [pc, #88]	@ (10003c24 <tud_task_ext+0x350>)
10003bcc:	015b      	lsls	r3, r3, #5
10003bce:	6800      	ldr	r0, [r0, #0]
10003bd0:	4682      	mov	sl, r0
10003bd2:	449a      	add	sl, r3
10003bd4:	2a00      	cmp	r2, #0
10003bd6:	d100      	bne.n	10003bda <tud_task_ext+0x306>
10003bd8:	e14e      	b.n	10003e78 <tud_task_ext+0x5a4>
10003bda:	4653      	mov	r3, sl
10003bdc:	2b00      	cmp	r3, #0
10003bde:	d15e      	bne.n	10003c9e <tud_task_ext+0x3ca>
10003be0:	7820      	ldrb	r0, [r4, #0]
10003be2:	2100      	movs	r1, #0
10003be4:	f7ff fd66 	bl	100036b4 <dcd_edpt_stall>
10003be8:	2180      	movs	r1, #128	@ 0x80
10003bea:	7820      	ldrb	r0, [r4, #0]
10003bec:	f7ff fd62 	bl	100036b4 <dcd_edpt_stall>
10003bf0:	e686      	b.n	10003900 <tud_task_ext+0x2c>
10003bf2:	4810      	ldr	r0, [pc, #64]	@ (10003c34 <tud_task_ext+0x360>)
10003bf4:	f000 fb5a 	bl	100042ac <usbd_control_set_complete_callback>
10003bf8:	2101      	movs	r1, #1
10003bfa:	4640      	mov	r0, r8
10003bfc:	aa0c      	add	r2, sp, #48	@ 0x30
10003bfe:	f7ff fdcb 	bl	10003798 <tud_vendor_control_xfer_cb>
10003c02:	2800      	cmp	r0, #0
10003c04:	d000      	beq.n	10003c08 <tud_task_ext+0x334>
10003c06:	e67b      	b.n	10003900 <tud_task_ext+0x2c>
10003c08:	e7ea      	b.n	10003be0 <tud_task_ext+0x30c>
10003c0a:	46c0      	nop			@ (mov r8, r8)
10003c0c:	20000edc 	.word	0x20000edc
10003c10:	10005040 	.word	0x10005040
10003c14:	200013dc 	.word	0x200013dc
10003c18:	20001384 	.word	0x20001384
10003c1c:	100050e8 	.word	0x100050e8
10003c20:	20001b4c 	.word	0x20001b4c
10003c24:	20001268 	.word	0x20001268
10003c28:	20001b4e 	.word	0x20001b4e
10003c2c:	10005064 	.word	0x10005064
10003c30:	20001388 	.word	0x20001388
10003c34:	10003799 	.word	0x10003799
10003c38:	7a23      	ldrb	r3, [r4, #8]
10003c3a:	2b0f      	cmp	r3, #15
10003c3c:	d8d0      	bhi.n	10003be0 <tud_task_ext+0x30c>
10003c3e:	4ad5      	ldr	r2, [pc, #852]	@ (10003f94 <tud_task_ext+0x6c0>)
10003c40:	18eb      	adds	r3, r5, r3
10003c42:	791b      	ldrb	r3, [r3, #4]
10003c44:	7812      	ldrb	r2, [r2, #0]
10003c46:	4293      	cmp	r3, r2
10003c48:	d334      	bcc.n	10003cb4 <tud_task_ext+0x3e0>
10003c4a:	d1c9      	bne.n	10003be0 <tud_task_ext+0x30c>
10003c4c:	4dd2      	ldr	r5, [pc, #840]	@ (10003f98 <tud_task_ext+0x6c4>)
10003c4e:	6968      	ldr	r0, [r5, #20]
10003c50:	f000 fb2c 	bl	100042ac <usbd_control_set_complete_callback>
10003c54:	2101      	movs	r1, #1
10003c56:	4640      	mov	r0, r8
10003c58:	696b      	ldr	r3, [r5, #20]
10003c5a:	aa0c      	add	r2, sp, #48	@ 0x30
10003c5c:	4798      	blx	r3
10003c5e:	2800      	cmp	r0, #0
10003c60:	d000      	beq.n	10003c64 <tud_task_ext+0x390>
10003c62:	e64d      	b.n	10003900 <tud_task_ext+0x2c>
10003c64:	2260      	movs	r2, #96	@ 0x60
10003c66:	0015      	movs	r5, r2
10003c68:	7923      	ldrb	r3, [r4, #4]
10003c6a:	401d      	ands	r5, r3
10003c6c:	421a      	tst	r2, r3
10003c6e:	d1b7      	bne.n	10003be0 <tud_task_ext+0x30c>
10003c70:	7963      	ldrb	r3, [r4, #5]
10003c72:	3b0a      	subs	r3, #10
10003c74:	2b01      	cmp	r3, #1
10003c76:	d8b3      	bhi.n	10003be0 <tud_task_ext+0x30c>
10003c78:	f000 fb18 	bl	100042ac <usbd_control_set_complete_callback>
10003c7c:	7963      	ldrb	r3, [r4, #5]
10003c7e:	2b0a      	cmp	r3, #10
10003c80:	d100      	bne.n	10003c84 <tud_task_ext+0x3b0>
10003c82:	e17d      	b.n	10003f80 <tud_task_ext+0x6ac>
10003c84:	4640      	mov	r0, r8
10003c86:	a90c      	add	r1, sp, #48	@ 0x30
10003c88:	f000 fa9a 	bl	100041c0 <tud_control_status>
10003c8c:	e638      	b.n	10003900 <tud_task_ext+0x2c>
10003c8e:	4283      	cmp	r3, r0
10003c90:	d000      	beq.n	10003c94 <tud_task_ext+0x3c0>
10003c92:	e0ec      	b.n	10003e6e <tud_task_ext+0x59a>
10003c94:	4bc0      	ldr	r3, [pc, #768]	@ (10003f98 <tud_task_ext+0x6c4>)
10003c96:	469a      	mov	sl, r3
10003c98:	2a00      	cmp	r2, #0
10003c9a:	d100      	bne.n	10003c9e <tud_task_ext+0x3ca>
10003c9c:	e0ec      	b.n	10003e78 <tud_task_ext+0x5a4>
10003c9e:	4653      	mov	r3, sl
10003ca0:	6958      	ldr	r0, [r3, #20]
10003ca2:	f000 fb03 	bl	100042ac <usbd_control_set_complete_callback>
10003ca6:	4653      	mov	r3, sl
10003ca8:	2101      	movs	r1, #1
10003caa:	4640      	mov	r0, r8
10003cac:	695b      	ldr	r3, [r3, #20]
10003cae:	aa0c      	add	r2, sp, #48	@ 0x30
10003cb0:	4798      	blx	r3
10003cb2:	e7a6      	b.n	10003c02 <tud_task_ext+0x32e>
10003cb4:	4ab9      	ldr	r2, [pc, #740]	@ (10003f9c <tud_task_ext+0x6c8>)
10003cb6:	015b      	lsls	r3, r3, #5
10003cb8:	6815      	ldr	r5, [r2, #0]
10003cba:	18ed      	adds	r5, r5, r3
10003cbc:	2d00      	cmp	r5, #0
10003cbe:	d1c6      	bne.n	10003c4e <tud_task_ext+0x37a>
10003cc0:	e78e      	b.n	10003be0 <tud_task_ext+0x30c>
10003cc2:	79a3      	ldrb	r3, [r4, #6]
10003cc4:	469a      	mov	sl, r3
10003cc6:	786b      	ldrb	r3, [r5, #1]
10003cc8:	459a      	cmp	sl, r3
10003cca:	d0db      	beq.n	10003c84 <tud_task_ext+0x3b0>
10003ccc:	786b      	ldrb	r3, [r5, #1]
10003cce:	2b00      	cmp	r3, #0
10003cd0:	d000      	beq.n	10003cd4 <tud_task_ext+0x400>
10003cd2:	e128      	b.n	10003f26 <tud_task_ext+0x652>
10003cd4:	4653      	mov	r3, sl
10003cd6:	706b      	strb	r3, [r5, #1]
10003cd8:	2b00      	cmp	r3, #0
10003cda:	d100      	bne.n	10003cde <tud_task_ext+0x40a>
10003cdc:	e120      	b.n	10003f20 <tud_task_ext+0x64c>
10003cde:	4650      	mov	r0, sl
10003ce0:	3801      	subs	r0, #1
10003ce2:	b2c0      	uxtb	r0, r0
10003ce4:	f7fd fab0 	bl	10001248 <tud_descriptor_configuration_cb>
10003ce8:	2800      	cmp	r0, #0
10003cea:	d100      	bne.n	10003cee <tud_task_ext+0x41a>
10003cec:	e171      	b.n	10003fd2 <tud_task_ext+0x6fe>
10003cee:	7843      	ldrb	r3, [r0, #1]
10003cf0:	2b02      	cmp	r3, #2
10003cf2:	d000      	beq.n	10003cf6 <tud_task_ext+0x422>
10003cf4:	e16d      	b.n	10003fd2 <tud_task_ext+0x6fe>
10003cf6:	2201      	movs	r2, #1
10003cf8:	79c1      	ldrb	r1, [r0, #7]
10003cfa:	46a9      	mov	r9, r5
10003cfc:	118b      	asrs	r3, r1, #6
10003cfe:	1149      	asrs	r1, r1, #5
10003d00:	4013      	ands	r3, r2
10003d02:	400a      	ands	r2, r1
10003d04:	2130      	movs	r1, #48	@ 0x30
10003d06:	0112      	lsls	r2, r2, #4
10003d08:	015b      	lsls	r3, r3, #5
10003d0a:	4313      	orrs	r3, r2
10003d0c:	782a      	ldrb	r2, [r5, #0]
10003d0e:	438a      	bics	r2, r1
10003d10:	4313      	orrs	r3, r2
10003d12:	702b      	strb	r3, [r5, #0]
10003d14:	2309      	movs	r3, #9
10003d16:	469b      	mov	fp, r3
10003d18:	4483      	add	fp, r0
10003d1a:	465d      	mov	r5, fp
10003d1c:	46b3      	mov	fp, r6
10003d1e:	78c3      	ldrb	r3, [r0, #3]
10003d20:	7882      	ldrb	r2, [r0, #2]
10003d22:	021b      	lsls	r3, r3, #8
10003d24:	4313      	orrs	r3, r2
10003d26:	18c3      	adds	r3, r0, r3
10003d28:	9306      	str	r3, [sp, #24]
10003d2a:	4b9a      	ldr	r3, [pc, #616]	@ (10003f94 <tud_task_ext+0x6c0>)
10003d2c:	9704      	str	r7, [sp, #16]
10003d2e:	9305      	str	r3, [sp, #20]
10003d30:	4b99      	ldr	r3, [pc, #612]	@ (10003f98 <tud_task_ext+0x6c4>)
10003d32:	9308      	str	r3, [sp, #32]
10003d34:	4b99      	ldr	r3, [pc, #612]	@ (10003f9c <tud_task_ext+0x6c8>)
10003d36:	469a      	mov	sl, r3
10003d38:	4b99      	ldr	r3, [pc, #612]	@ (10003fa0 <tud_task_ext+0x6cc>)
10003d3a:	9309      	str	r3, [sp, #36]	@ 0x24
10003d3c:	9b06      	ldr	r3, [sp, #24]
10003d3e:	42ab      	cmp	r3, r5
10003d40:	d800      	bhi.n	10003d44 <tud_task_ext+0x470>
10003d42:	e149      	b.n	10003fd8 <tud_task_ext+0x704>
10003d44:	786b      	ldrb	r3, [r5, #1]
10003d46:	2201      	movs	r2, #1
10003d48:	2b0b      	cmp	r3, #11
10003d4a:	d103      	bne.n	10003d54 <tud_task_ext+0x480>
10003d4c:	782b      	ldrb	r3, [r5, #0]
10003d4e:	78ea      	ldrb	r2, [r5, #3]
10003d50:	18ed      	adds	r5, r5, r3
10003d52:	786b      	ldrb	r3, [r5, #1]
10003d54:	2b04      	cmp	r3, #4
10003d56:	d000      	beq.n	10003d5a <tud_task_ext+0x486>
10003d58:	e138      	b.n	10003fcc <tud_task_ext+0x6f8>
10003d5a:	9b06      	ldr	r3, [sp, #24]
10003d5c:	2600      	movs	r6, #0
10003d5e:	1b5b      	subs	r3, r3, r5
10003d60:	b29b      	uxth	r3, r3
10003d62:	9307      	str	r3, [sp, #28]
10003d64:	9b05      	ldr	r3, [sp, #20]
10003d66:	0017      	movs	r7, r2
10003d68:	781b      	ldrb	r3, [r3, #0]
10003d6a:	e018      	b.n	10003d9e <tud_task_ext+0x4ca>
10003d6c:	4653      	mov	r3, sl
10003d6e:	681b      	ldr	r3, [r3, #0]
10003d70:	0172      	lsls	r2, r6, #5
10003d72:	189b      	adds	r3, r3, r2
10003d74:	2b00      	cmp	r3, #0
10003d76:	d100      	bne.n	10003d7a <tud_task_ext+0x4a6>
10003d78:	e128      	b.n	10003fcc <tud_task_ext+0x6f8>
10003d7a:	0029      	movs	r1, r5
10003d7c:	4640      	mov	r0, r8
10003d7e:	691b      	ldr	r3, [r3, #16]
10003d80:	9a07      	ldr	r2, [sp, #28]
10003d82:	4798      	blx	r3
10003d84:	2808      	cmp	r0, #8
10003d86:	d903      	bls.n	10003d90 <tud_task_ext+0x4bc>
10003d88:	9b07      	ldr	r3, [sp, #28]
10003d8a:	4283      	cmp	r3, r0
10003d8c:	d300      	bcc.n	10003d90 <tud_task_ext+0x4bc>
10003d8e:	e10b      	b.n	10003fa8 <tud_task_ext+0x6d4>
10003d90:	9b05      	ldr	r3, [sp, #20]
10003d92:	3601      	adds	r6, #1
10003d94:	781b      	ldrb	r3, [r3, #0]
10003d96:	b2f6      	uxtb	r6, r6
10003d98:	42b3      	cmp	r3, r6
10003d9a:	d200      	bcs.n	10003d9e <tud_task_ext+0x4ca>
10003d9c:	e116      	b.n	10003fcc <tud_task_ext+0x6f8>
10003d9e:	42b3      	cmp	r3, r6
10003da0:	d8e4      	bhi.n	10003d6c <tud_task_ext+0x498>
10003da2:	9a08      	ldr	r2, [sp, #32]
10003da4:	1af3      	subs	r3, r6, r3
10003da6:	4694      	mov	ip, r2
10003da8:	015b      	lsls	r3, r3, #5
10003daa:	4463      	add	r3, ip
10003dac:	e7e5      	b.n	10003d7a <tud_task_ext+0x4a6>
10003dae:	786b      	ldrb	r3, [r5, #1]
10003db0:	aa0a      	add	r2, sp, #40	@ 0x28
10003db2:	3202      	adds	r2, #2
10003db4:	7013      	strb	r3, [r2, #0]
10003db6:	4640      	mov	r0, r8
10003db8:	2301      	movs	r3, #1
10003dba:	a90c      	add	r1, sp, #48	@ 0x30
10003dbc:	f000 fa16 	bl	100041ec <tud_control_xfer>
10003dc0:	e59e      	b.n	10003900 <tud_task_ext+0x2c>
10003dc2:	88e3      	ldrh	r3, [r4, #6]
10003dc4:	0a1a      	lsrs	r2, r3, #8
10003dc6:	b2d8      	uxtb	r0, r3
10003dc8:	2a0f      	cmp	r2, #15
10003dca:	d900      	bls.n	10003dce <tud_task_ext+0x4fa>
10003dcc:	e708      	b.n	10003be0 <tud_task_ext+0x30c>
10003dce:	4975      	ldr	r1, [pc, #468]	@ (10003fa4 <tud_task_ext+0x6d0>)
10003dd0:	0093      	lsls	r3, r2, #2
10003dd2:	58cb      	ldr	r3, [r1, r3]
10003dd4:	469f      	mov	pc, r3
10003dd6:	a80c      	add	r0, sp, #48	@ 0x30
10003dd8:	f000 fa6e 	bl	100042b8 <usbd_control_set_request>
10003ddc:	4640      	mov	r0, r8
10003dde:	79a1      	ldrb	r1, [r4, #6]
10003de0:	f7ff fba2 	bl	10003528 <dcd_set_address>
10003de4:	2202      	movs	r2, #2
10003de6:	782b      	ldrb	r3, [r5, #0]
10003de8:	4313      	orrs	r3, r2
10003dea:	702b      	strb	r3, [r5, #0]
10003dec:	e588      	b.n	10003900 <tud_task_ext+0x2c>
10003dee:	88e3      	ldrh	r3, [r4, #6]
10003df0:	2b01      	cmp	r3, #1
10003df2:	d000      	beq.n	10003df6 <tud_task_ext+0x522>
10003df4:	e6f4      	b.n	10003be0 <tud_task_ext+0x30c>
10003df6:	2208      	movs	r2, #8
10003df8:	782b      	ldrb	r3, [r5, #0]
10003dfa:	4640      	mov	r0, r8
10003dfc:	4393      	bics	r3, r2
10003dfe:	a90c      	add	r1, sp, #48	@ 0x30
10003e00:	702b      	strb	r3, [r5, #0]
10003e02:	f000 f9dd 	bl	100041c0 <tud_control_status>
10003e06:	e57b      	b.n	10003900 <tud_task_ext+0x2c>
10003e08:	2002      	movs	r0, #2
10003e0a:	7829      	ldrb	r1, [r5, #0]
10003e0c:	ab0a      	add	r3, sp, #40	@ 0x28
10003e0e:	1c9a      	adds	r2, r3, #2
10003e10:	068b      	lsls	r3, r1, #26
10003e12:	0889      	lsrs	r1, r1, #2
10003e14:	0fdb      	lsrs	r3, r3, #31
10003e16:	4001      	ands	r1, r0
10003e18:	430b      	orrs	r3, r1
10003e1a:	8013      	strh	r3, [r2, #0]
10003e1c:	4640      	mov	r0, r8
10003e1e:	2302      	movs	r3, #2
10003e20:	a90c      	add	r1, sp, #48	@ 0x30
10003e22:	f000 f9e3 	bl	100041ec <tud_control_xfer>
10003e26:	e56b      	b.n	10003900 <tud_task_ext+0x2c>
10003e28:	88e3      	ldrh	r3, [r4, #6]
10003e2a:	2b01      	cmp	r3, #1
10003e2c:	d000      	beq.n	10003e30 <tud_task_ext+0x55c>
10003e2e:	e6d7      	b.n	10003be0 <tud_task_ext+0x30c>
10003e30:	2208      	movs	r2, #8
10003e32:	782b      	ldrb	r3, [r5, #0]
10003e34:	4313      	orrs	r3, r2
10003e36:	702b      	strb	r3, [r5, #0]
10003e38:	e724      	b.n	10003c84 <tud_task_ext+0x3b0>
10003e3a:	7a23      	ldrb	r3, [r4, #8]
10003e3c:	2b0f      	cmp	r3, #15
10003e3e:	d900      	bls.n	10003e42 <tud_task_ext+0x56e>
10003e40:	e6ce      	b.n	10003be0 <tud_task_ext+0x30c>
10003e42:	4a54      	ldr	r2, [pc, #336]	@ (10003f94 <tud_task_ext+0x6c0>)
10003e44:	18eb      	adds	r3, r5, r3
10003e46:	791b      	ldrb	r3, [r3, #4]
10003e48:	7812      	ldrb	r2, [r2, #0]
10003e4a:	4293      	cmp	r3, r2
10003e4c:	d228      	bcs.n	10003ea0 <tud_task_ext+0x5cc>
10003e4e:	4a53      	ldr	r2, [pc, #332]	@ (10003f9c <tud_task_ext+0x6c8>)
10003e50:	015b      	lsls	r3, r3, #5
10003e52:	6815      	ldr	r5, [r2, #0]
10003e54:	18ed      	adds	r5, r5, r3
10003e56:	2d00      	cmp	r5, #0
10003e58:	d100      	bne.n	10003e5c <tud_task_ext+0x588>
10003e5a:	e6c1      	b.n	10003be0 <tud_task_ext+0x30c>
10003e5c:	6968      	ldr	r0, [r5, #20]
10003e5e:	f000 fa25 	bl	100042ac <usbd_control_set_complete_callback>
10003e62:	2101      	movs	r1, #1
10003e64:	4640      	mov	r0, r8
10003e66:	696b      	ldr	r3, [r5, #20]
10003e68:	aa0c      	add	r2, sp, #48	@ 0x30
10003e6a:	4798      	blx	r3
10003e6c:	e6c9      	b.n	10003c02 <tud_task_ext+0x32e>
10003e6e:	2a00      	cmp	r2, #0
10003e70:	d000      	beq.n	10003e74 <tud_task_ext+0x5a0>
10003e72:	e6b5      	b.n	10003be0 <tud_task_ext+0x30c>
10003e74:	2300      	movs	r3, #0
10003e76:	469a      	mov	sl, r3
10003e78:	7962      	ldrb	r2, [r4, #5]
10003e7a:	2002      	movs	r0, #2
10003e7c:	0013      	movs	r3, r2
10003e7e:	9204      	str	r2, [sp, #16]
10003e80:	4383      	bics	r3, r0
10003e82:	2b01      	cmp	r3, #1
10003e84:	d011      	beq.n	10003eaa <tud_task_ext+0x5d6>
10003e86:	2a00      	cmp	r2, #0
10003e88:	d000      	beq.n	10003e8c <tud_task_ext+0x5b8>
10003e8a:	e6a9      	b.n	10003be0 <tud_task_ext+0x30c>
10003e8c:	002b      	movs	r3, r5
10003e8e:	444b      	add	r3, r9
10003e90:	445b      	add	r3, fp
10003e92:	3330      	adds	r3, #48	@ 0x30
10003e94:	791b      	ldrb	r3, [r3, #4]
10003e96:	aa0a      	add	r2, sp, #40	@ 0x28
10003e98:	079b      	lsls	r3, r3, #30
10003e9a:	0fdb      	lsrs	r3, r3, #31
10003e9c:	3202      	adds	r2, #2
10003e9e:	e7bc      	b.n	10003e1a <tud_task_ext+0x546>
10003ea0:	4293      	cmp	r3, r2
10003ea2:	d000      	beq.n	10003ea6 <tud_task_ext+0x5d2>
10003ea4:	e69c      	b.n	10003be0 <tud_task_ext+0x30c>
10003ea6:	4d3c      	ldr	r5, [pc, #240]	@ (10003f98 <tud_task_ext+0x6c4>)
10003ea8:	e7d8      	b.n	10003e5c <tud_task_ext+0x588>
10003eaa:	88e3      	ldrh	r3, [r4, #6]
10003eac:	2b00      	cmp	r3, #0
10003eae:	d112      	bne.n	10003ed6 <tud_task_ext+0x602>
10003eb0:	9b03      	ldr	r3, [sp, #12]
10003eb2:	7818      	ldrb	r0, [r3, #0]
10003eb4:	9b04      	ldr	r3, [sp, #16]
10003eb6:	2b01      	cmp	r3, #1
10003eb8:	d023      	beq.n	10003f02 <tud_task_ext+0x62e>
10003eba:	f7ff fbfb 	bl	100036b4 <dcd_edpt_stall>
10003ebe:	464b      	mov	r3, r9
10003ec0:	2102      	movs	r1, #2
10003ec2:	18eb      	adds	r3, r5, r3
10003ec4:	445b      	add	r3, fp
10003ec6:	3330      	adds	r3, #48	@ 0x30
10003ec8:	791a      	ldrb	r2, [r3, #4]
10003eca:	430a      	orrs	r2, r1
10003ecc:	2101      	movs	r1, #1
10003ece:	711a      	strb	r2, [r3, #4]
10003ed0:	791a      	ldrb	r2, [r3, #4]
10003ed2:	430a      	orrs	r2, r1
10003ed4:	711a      	strb	r2, [r3, #4]
10003ed6:	4653      	mov	r3, sl
10003ed8:	2b00      	cmp	r3, #0
10003eda:	d100      	bne.n	10003ede <tud_task_ext+0x60a>
10003edc:	e510      	b.n	10003900 <tud_task_ext+0x2c>
10003ede:	6958      	ldr	r0, [r3, #20]
10003ee0:	f000 f9e4 	bl	100042ac <usbd_control_set_complete_callback>
10003ee4:	4653      	mov	r3, sl
10003ee6:	2101      	movs	r1, #1
10003ee8:	695b      	ldr	r3, [r3, #20]
10003eea:	aa0c      	add	r2, sp, #48	@ 0x30
10003eec:	4640      	mov	r0, r8
10003eee:	4798      	blx	r3
10003ef0:	2000      	movs	r0, #0
10003ef2:	f000 f9db 	bl	100042ac <usbd_control_set_complete_callback>
10003ef6:	2335      	movs	r3, #53	@ 0x35
10003ef8:	5ceb      	ldrb	r3, [r5, r3]
10003efa:	07db      	lsls	r3, r3, #31
10003efc:	d500      	bpl.n	10003f00 <tud_task_ext+0x62c>
10003efe:	e4ff      	b.n	10003900 <tud_task_ext+0x2c>
10003f00:	e6c0      	b.n	10003c84 <tud_task_ext+0x3b0>
10003f02:	f7ff fbf1 	bl	100036e8 <dcd_edpt_clear_stall>
10003f06:	464b      	mov	r3, r9
10003f08:	2102      	movs	r1, #2
10003f0a:	18eb      	adds	r3, r5, r3
10003f0c:	445b      	add	r3, fp
10003f0e:	3330      	adds	r3, #48	@ 0x30
10003f10:	791a      	ldrb	r2, [r3, #4]
10003f12:	438a      	bics	r2, r1
10003f14:	711a      	strb	r2, [r3, #4]
10003f16:	791a      	ldrb	r2, [r3, #4]
10003f18:	9904      	ldr	r1, [sp, #16]
10003f1a:	438a      	bics	r2, r1
10003f1c:	711a      	strb	r2, [r3, #4]
10003f1e:	e7da      	b.n	10003ed6 <tud_task_ext+0x602>
10003f20:	f7ff fc48 	bl	100037b4 <tud_umount_cb>
10003f24:	e6ae      	b.n	10003c84 <tud_task_ext+0x3b0>
10003f26:	2100      	movs	r1, #0
10003f28:	4640      	mov	r0, r8
10003f2a:	f7ff fb07 	bl	1000353c <dcd_sof_enable>
10003f2e:	4640      	mov	r0, r8
10003f30:	f7ff fbaa 	bl	10003688 <dcd_edpt_close_all>
10003f34:	2200      	movs	r2, #0
10003f36:	4693      	mov	fp, r2
10003f38:	4a17      	ldr	r2, [pc, #92]	@ (10003f98 <tud_task_ext+0x6c4>)
10003f3a:	78ab      	ldrb	r3, [r5, #2]
10003f3c:	9205      	str	r2, [sp, #20]
10003f3e:	4a17      	ldr	r2, [pc, #92]	@ (10003f9c <tud_task_ext+0x6c8>)
10003f40:	9304      	str	r3, [sp, #16]
10003f42:	9206      	str	r2, [sp, #24]
10003f44:	002a      	movs	r2, r5
10003f46:	4b13      	ldr	r3, [pc, #76]	@ (10003f94 <tud_task_ext+0x6c0>)
10003f48:	465d      	mov	r5, fp
10003f4a:	4699      	mov	r9, r3
10003f4c:	4693      	mov	fp, r2
10003f4e:	781b      	ldrb	r3, [r3, #0]
10003f50:	e00e      	b.n	10003f70 <tud_task_ext+0x69c>
10003f52:	9b06      	ldr	r3, [sp, #24]
10003f54:	016a      	lsls	r2, r5, #5
10003f56:	681b      	ldr	r3, [r3, #0]
10003f58:	189b      	adds	r3, r3, r2
10003f5a:	2b00      	cmp	r3, #0
10003f5c:	d055      	beq.n	1000400a <tud_task_ext+0x736>
10003f5e:	68db      	ldr	r3, [r3, #12]
10003f60:	4640      	mov	r0, r8
10003f62:	4798      	blx	r3
10003f64:	464b      	mov	r3, r9
10003f66:	3501      	adds	r5, #1
10003f68:	781b      	ldrb	r3, [r3, #0]
10003f6a:	b2ed      	uxtb	r5, r5
10003f6c:	42ab      	cmp	r3, r5
10003f6e:	d338      	bcc.n	10003fe2 <tud_task_ext+0x70e>
10003f70:	429d      	cmp	r5, r3
10003f72:	d3ee      	bcc.n	10003f52 <tud_task_ext+0x67e>
10003f74:	9a05      	ldr	r2, [sp, #20]
10003f76:	1aeb      	subs	r3, r5, r3
10003f78:	4694      	mov	ip, r2
10003f7a:	015b      	lsls	r3, r3, #5
10003f7c:	4463      	add	r3, ip
10003f7e:	e7ee      	b.n	10003f5e <tud_task_ext+0x68a>
10003f80:	ab0a      	add	r3, sp, #40	@ 0x28
10003f82:	1c9a      	adds	r2, r3, #2
10003f84:	4640      	mov	r0, r8
10003f86:	2301      	movs	r3, #1
10003f88:	a90c      	add	r1, sp, #48	@ 0x30
10003f8a:	7015      	strb	r5, [r2, #0]
10003f8c:	f000 f92e 	bl	100041ec <tud_control_xfer>
10003f90:	e4b6      	b.n	10003900 <tud_task_ext+0x2c>
10003f92:	46c0      	nop			@ (mov r8, r8)
10003f94:	20001b4c 	.word	0x20001b4c
10003f98:	100050e8 	.word	0x100050e8
10003f9c:	20001268 	.word	0x20001268
10003fa0:	20001398 	.word	0x20001398
10003fa4:	1000508c 	.word	0x1000508c
10003fa8:	003a      	movs	r2, r7
10003faa:	0007      	movs	r7, r0
10003fac:	2a00      	cmp	r2, #0
10003fae:	d03c      	beq.n	1000402a <tud_task_ext+0x756>
10003fb0:	78ab      	ldrb	r3, [r5, #2]
10003fb2:	189a      	adds	r2, r3, r2
10003fb4:	b2d2      	uxtb	r2, r2
10003fb6:	e004      	b.n	10003fc2 <tud_task_ext+0x6ee>
10003fb8:	3301      	adds	r3, #1
10003fba:	b2db      	uxtb	r3, r3
10003fbc:	710e      	strb	r6, [r1, #4]
10003fbe:	429a      	cmp	r2, r3
10003fc0:	d033      	beq.n	1000402a <tud_task_ext+0x756>
10003fc2:	4649      	mov	r1, r9
10003fc4:	18c9      	adds	r1, r1, r3
10003fc6:	7908      	ldrb	r0, [r1, #4]
10003fc8:	28ff      	cmp	r0, #255	@ 0xff
10003fca:	d0f5      	beq.n	10003fb8 <tud_task_ext+0x6e4>
10003fcc:	465e      	mov	r6, fp
10003fce:	464d      	mov	r5, r9
10003fd0:	9f04      	ldr	r7, [sp, #16]
10003fd2:	2300      	movs	r3, #0
10003fd4:	706b      	strb	r3, [r5, #1]
10003fd6:	e603      	b.n	10003be0 <tud_task_ext+0x30c>
10003fd8:	465e      	mov	r6, fp
10003fda:	9f04      	ldr	r7, [sp, #16]
10003fdc:	f7ff fbe8 	bl	100037b0 <tud_mount_cb>
10003fe0:	e650      	b.n	10003c84 <tud_task_ext+0x3b0>
10003fe2:	465d      	mov	r5, fp
10003fe4:	2254      	movs	r2, #84	@ 0x54
10003fe6:	2100      	movs	r1, #0
10003fe8:	0028      	movs	r0, r5
10003fea:	f7ff f8c9 	bl	10003180 <__wrap_memset>
10003fee:	2210      	movs	r2, #16
10003ff0:	21ff      	movs	r1, #255	@ 0xff
10003ff2:	1d28      	adds	r0, r5, #4
10003ff4:	f7ff f8c4 	bl	10003180 <__wrap_memset>
10003ff8:	0028      	movs	r0, r5
10003ffa:	2220      	movs	r2, #32
10003ffc:	21ff      	movs	r1, #255	@ 0xff
10003ffe:	3014      	adds	r0, #20
10004000:	f7ff f8be 	bl	10003180 <__wrap_memset>
10004004:	9b04      	ldr	r3, [sp, #16]
10004006:	70ab      	strb	r3, [r5, #2]
10004008:	e664      	b.n	10003cd4 <tud_task_ext+0x400>
1000400a:	465d      	mov	r5, fp
1000400c:	e7fa      	b.n	10004004 <tud_task_ext+0x730>
1000400e:	f7ff fbc9 	bl	100037a4 <tud_descriptor_bos_cb>
10004012:	1e02      	subs	r2, r0, #0
10004014:	d100      	bne.n	10004018 <tud_task_ext+0x744>
10004016:	e5e3      	b.n	10003be0 <tud_task_ext+0x30c>
10004018:	78d3      	ldrb	r3, [r2, #3]
1000401a:	7891      	ldrb	r1, [r2, #2]
1000401c:	021b      	lsls	r3, r3, #8
1000401e:	430b      	orrs	r3, r1
10004020:	4640      	mov	r0, r8
10004022:	a90c      	add	r1, sp, #48	@ 0x30
10004024:	f000 f8e2 	bl	100041ec <tud_control_xfer>
10004028:	e5eb      	b.n	10003c02 <tud_task_ext+0x32e>
1000402a:	0033      	movs	r3, r6
1000402c:	0029      	movs	r1, r5
1000402e:	003a      	movs	r2, r7
10004030:	9809      	ldr	r0, [sp, #36]	@ 0x24
10004032:	f000 fc91 	bl	10004958 <tu_edpt_bind_driver>
10004036:	9b05      	ldr	r3, [sp, #20]
10004038:	19ed      	adds	r5, r5, r7
1000403a:	781b      	ldrb	r3, [r3, #0]
1000403c:	42b3      	cmp	r3, r6
1000403e:	d300      	bcc.n	10004042 <tud_task_ext+0x76e>
10004040:	e67c      	b.n	10003d3c <tud_task_ext+0x468>
10004042:	e7c3      	b.n	10003fcc <tud_task_ext+0x6f8>
10004044:	f7ff fbb0 	bl	100037a8 <tud_descriptor_device_qualifier_cb>
10004048:	1e02      	subs	r2, r0, #0
1000404a:	d100      	bne.n	1000404e <tud_task_ext+0x77a>
1000404c:	e5c8      	b.n	10003be0 <tud_task_ext+0x30c>
1000404e:	4640      	mov	r0, r8
10004050:	7813      	ldrb	r3, [r2, #0]
10004052:	a90c      	add	r1, sp, #48	@ 0x30
10004054:	f000 f8ca 	bl	100041ec <tud_control_xfer>
10004058:	e5d3      	b.n	10003c02 <tud_task_ext+0x32e>
1000405a:	8921      	ldrh	r1, [r4, #8]
1000405c:	f7fd f8f8 	bl	10001250 <tud_descriptor_string_cb>
10004060:	1e02      	subs	r2, r0, #0
10004062:	d1f4      	bne.n	1000404e <tud_task_ext+0x77a>
10004064:	e5bc      	b.n	10003be0 <tud_task_ext+0x30c>
10004066:	2a02      	cmp	r2, #2
10004068:	d00f      	beq.n	1000408a <tud_task_ext+0x7b6>
1000406a:	f7ff fb9f 	bl	100037ac <tud_descriptor_other_speed_configuration_cb>
1000406e:	1e02      	subs	r2, r0, #0
10004070:	d1d2      	bne.n	10004018 <tud_task_ext+0x744>
10004072:	e5b5      	b.n	10003be0 <tud_task_ext+0x30c>
10004074:	f7fd f8e4 	bl	10001240 <tud_descriptor_device_cb>
10004078:	1e02      	subs	r2, r0, #0
1000407a:	d100      	bne.n	1000407e <tud_task_ext+0x7aa>
1000407c:	e5b0      	b.n	10003be0 <tud_task_ext+0x30c>
1000407e:	2312      	movs	r3, #18
10004080:	4640      	mov	r0, r8
10004082:	a90c      	add	r1, sp, #48	@ 0x30
10004084:	f000 f8b2 	bl	100041ec <tud_control_xfer>
10004088:	e5bb      	b.n	10003c02 <tud_task_ext+0x32e>
1000408a:	f7fd f8dd 	bl	10001248 <tud_descriptor_configuration_cb>
1000408e:	1e02      	subs	r2, r0, #0
10004090:	d1c2      	bne.n	10004018 <tud_task_ext+0x744>
10004092:	e5a5      	b.n	10003be0 <tud_task_ext+0x30c>

10004094 <usbd_open_edpt_pair>:
10004094:	b5f8      	push	{r3, r4, r5, r6, r7, lr}
10004096:	4657      	mov	r7, sl
10004098:	464e      	mov	r6, r9
1000409a:	46de      	mov	lr, fp
1000409c:	4645      	mov	r5, r8
1000409e:	000c      	movs	r4, r1
100040a0:	b5e0      	push	{r5, r6, r7, lr}
100040a2:	0016      	movs	r6, r2
100040a4:	001f      	movs	r7, r3
100040a6:	2a00      	cmp	r2, #0
100040a8:	d03c      	beq.n	10004124 <usbd_open_edpt_pair+0x90>
100040aa:	4b1f      	ldr	r3, [pc, #124]	@ (10004128 <usbd_open_edpt_pair+0x94>)
100040ac:	2500      	movs	r5, #0
100040ae:	469a      	mov	sl, r3
100040b0:	2370      	movs	r3, #112	@ 0x70
100040b2:	4699      	mov	r9, r3
100040b4:	4b1d      	ldr	r3, [pc, #116]	@ (1000412c <usbd_open_edpt_pair+0x98>)
100040b6:	469b      	mov	fp, r3
100040b8:	e017      	b.n	100040ea <usbd_open_edpt_pair+0x56>
100040ba:	465b      	mov	r3, fp
100040bc:	0020      	movs	r0, r4
100040be:	7899      	ldrb	r1, [r3, #2]
100040c0:	f000 fc0c 	bl	100048dc <tu_edpt_validate>
100040c4:	2800      	cmp	r0, #0
100040c6:	d01f      	beq.n	10004108 <usbd_open_edpt_pair+0x74>
100040c8:	0021      	movs	r1, r4
100040ca:	4640      	mov	r0, r8
100040cc:	f7ff fa52 	bl	10003574 <dcd_edpt_open>
100040d0:	2800      	cmp	r0, #0
100040d2:	d019      	beq.n	10004108 <usbd_open_edpt_pair+0x74>
100040d4:	78a3      	ldrb	r3, [r4, #2]
100040d6:	09da      	lsrs	r2, r3, #7
100040d8:	2a01      	cmp	r2, #1
100040da:	d01c      	beq.n	10004116 <usbd_open_edpt_pair+0x82>
100040dc:	9a0a      	ldr	r2, [sp, #40]	@ 0x28
100040de:	3501      	adds	r5, #1
100040e0:	7013      	strb	r3, [r2, #0]
100040e2:	7823      	ldrb	r3, [r4, #0]
100040e4:	18e4      	adds	r4, r4, r3
100040e6:	42b5      	cmp	r5, r6
100040e8:	da1c      	bge.n	10004124 <usbd_open_edpt_pair+0x90>
100040ea:	7863      	ldrb	r3, [r4, #1]
100040ec:	2b05      	cmp	r3, #5
100040ee:	d10b      	bne.n	10004108 <usbd_open_edpt_pair+0x74>
100040f0:	78e3      	ldrb	r3, [r4, #3]
100040f2:	079b      	lsls	r3, r3, #30
100040f4:	0f9b      	lsrs	r3, r3, #30
100040f6:	42bb      	cmp	r3, r7
100040f8:	d106      	bne.n	10004108 <usbd_open_edpt_pair+0x74>
100040fa:	4653      	mov	r3, sl
100040fc:	464a      	mov	r2, r9
100040fe:	781b      	ldrb	r3, [r3, #0]
10004100:	4698      	mov	r8, r3
10004102:	78a3      	ldrb	r3, [r4, #2]
10004104:	421a      	tst	r2, r3
10004106:	d0d8      	beq.n	100040ba <usbd_open_edpt_pair+0x26>
10004108:	2000      	movs	r0, #0
1000410a:	bcf0      	pop	{r4, r5, r6, r7}
1000410c:	46bb      	mov	fp, r7
1000410e:	46b2      	mov	sl, r6
10004110:	46a9      	mov	r9, r5
10004112:	46a0      	mov	r8, r4
10004114:	bdf8      	pop	{r3, r4, r5, r6, r7, pc}
10004116:	9a0b      	ldr	r2, [sp, #44]	@ 0x2c
10004118:	3501      	adds	r5, #1
1000411a:	7013      	strb	r3, [r2, #0]
1000411c:	7823      	ldrb	r3, [r4, #0]
1000411e:	18e4      	adds	r4, r4, r3
10004120:	42b5      	cmp	r5, r6
10004122:	dbe2      	blt.n	100040ea <usbd_open_edpt_pair+0x56>
10004124:	2001      	movs	r0, #1
10004126:	e7f0      	b.n	1000410a <usbd_open_edpt_pair+0x76>
10004128:	20000edc 	.word	0x20000edc
1000412c:	20001384 	.word	0x20001384

10004130 <usbd_edpt_claim>:
10004130:	000b      	movs	r3, r1
10004132:	207f      	movs	r0, #127	@ 0x7f
10004134:	b510      	push	{r4, lr}
10004136:	4018      	ands	r0, r3
10004138:	09db      	lsrs	r3, r3, #7
1000413a:	3334      	adds	r3, #52	@ 0x34
1000413c:	0040      	lsls	r0, r0, #1
1000413e:	4a04      	ldr	r2, [pc, #16]	@ (10004150 <usbd_edpt_claim+0x20>)
10004140:	18c0      	adds	r0, r0, r3
10004142:	4b04      	ldr	r3, [pc, #16]	@ (10004154 <usbd_edpt_claim+0x24>)
10004144:	6811      	ldr	r1, [r2, #0]
10004146:	18c0      	adds	r0, r0, r3
10004148:	f000 fba0 	bl	1000488c <tu_edpt_claim>
1000414c:	bd10      	pop	{r4, pc}
1000414e:	46c0      	nop			@ (mov r8, r8)
10004150:	200013d8 	.word	0x200013d8
10004154:	20001384 	.word	0x20001384

10004158 <usbd_edpt_xfer>:
10004158:	b570      	push	{r4, r5, r6, lr}
1000415a:	247f      	movs	r4, #127	@ 0x7f
1000415c:	480f      	ldr	r0, [pc, #60]	@ (1000419c <usbd_edpt_xfer+0x44>)
1000415e:	400c      	ands	r4, r1
10004160:	0064      	lsls	r4, r4, #1
10004162:	1904      	adds	r4, r0, r4
10004164:	09cd      	lsrs	r5, r1, #7
10004166:	1964      	adds	r4, r4, r5
10004168:	3430      	adds	r4, #48	@ 0x30
1000416a:	7920      	ldrb	r0, [r4, #4]
1000416c:	07c0      	lsls	r0, r0, #31
1000416e:	d501      	bpl.n	10004174 <usbd_edpt_xfer+0x1c>
10004170:	2000      	movs	r0, #0
10004172:	bd70      	pop	{r4, r5, r6, pc}
10004174:	2601      	movs	r6, #1
10004176:	7925      	ldrb	r5, [r4, #4]
10004178:	4809      	ldr	r0, [pc, #36]	@ (100041a0 <usbd_edpt_xfer+0x48>)
1000417a:	4335      	orrs	r5, r6
1000417c:	7800      	ldrb	r0, [r0, #0]
1000417e:	7125      	strb	r5, [r4, #4]
10004180:	f7ff fa86 	bl	10003690 <dcd_edpt_xfer>
10004184:	2800      	cmp	r0, #0
10004186:	d1f4      	bne.n	10004172 <usbd_edpt_xfer+0x1a>
10004188:	2201      	movs	r2, #1
1000418a:	7923      	ldrb	r3, [r4, #4]
1000418c:	4393      	bics	r3, r2
1000418e:	7123      	strb	r3, [r4, #4]
10004190:	7923      	ldrb	r3, [r4, #4]
10004192:	3203      	adds	r2, #3
10004194:	4393      	bics	r3, r2
10004196:	7123      	strb	r3, [r4, #4]
10004198:	e7ea      	b.n	10004170 <usbd_edpt_xfer+0x18>
1000419a:	46c0      	nop			@ (mov r8, r8)
1000419c:	20001384 	.word	0x20001384
100041a0:	20000edc 	.word	0x20000edc

100041a4 <usbd_edpt_busy>:
100041a4:	227f      	movs	r2, #127	@ 0x7f
100041a6:	4b05      	ldr	r3, [pc, #20]	@ (100041bc <usbd_edpt_busy+0x18>)
100041a8:	400a      	ands	r2, r1
100041aa:	0052      	lsls	r2, r2, #1
100041ac:	09c9      	lsrs	r1, r1, #7
100041ae:	189b      	adds	r3, r3, r2
100041b0:	185b      	adds	r3, r3, r1
100041b2:	3330      	adds	r3, #48	@ 0x30
100041b4:	7918      	ldrb	r0, [r3, #4]
100041b6:	07c0      	lsls	r0, r0, #31
100041b8:	0fc0      	lsrs	r0, r0, #31
100041ba:	4770      	bx	lr
100041bc:	20001384 	.word	0x20001384

100041c0 <tud_control_status>:
100041c0:	b570      	push	{r4, r5, r6, lr}
100041c2:	4c09      	ldr	r4, [pc, #36]	@ (100041e8 <tud_control_status+0x28>)
100041c4:	0006      	movs	r6, r0
100041c6:	2208      	movs	r2, #8
100041c8:	0020      	movs	r0, r4
100041ca:	000d      	movs	r5, r1
100041cc:	f7fe ffde 	bl	1000318c <__wrap___aeabi_memcpy>
100041d0:	2300      	movs	r3, #0
100041d2:	2180      	movs	r1, #128	@ 0x80
100041d4:	60e3      	str	r3, [r4, #12]
100041d6:	60a3      	str	r3, [r4, #8]
100041d8:	782b      	ldrb	r3, [r5, #0]
100041da:	0030      	movs	r0, r6
100041dc:	4399      	bics	r1, r3
100041de:	2200      	movs	r2, #0
100041e0:	2300      	movs	r3, #0
100041e2:	f7ff ffb9 	bl	10004158 <usbd_edpt_xfer>
100041e6:	bd70      	pop	{r4, r5, r6, pc}
100041e8:	200012ac 	.word	0x200012ac

100041ec <tud_control_xfer>:
100041ec:	b5f8      	push	{r3, r4, r5, r6, r7, lr}
100041ee:	46ce      	mov	lr, r9
100041f0:	4647      	mov	r7, r8
100041f2:	4690      	mov	r8, r2
100041f4:	4e26      	ldr	r6, [pc, #152]	@ (10004290 <tud_control_xfer+0xa4>)
100041f6:	b580      	push	{r7, lr}
100041f8:	4681      	mov	r9, r0
100041fa:	2208      	movs	r2, #8
100041fc:	0030      	movs	r0, r6
100041fe:	000d      	movs	r5, r1
10004200:	001f      	movs	r7, r3
10004202:	f7fe ffc3 	bl	1000318c <__wrap___aeabi_memcpy>
10004206:	4643      	mov	r3, r8
10004208:	60b3      	str	r3, [r6, #8]
1000420a:	2300      	movs	r3, #0
1000420c:	81f3      	strh	r3, [r6, #14]
1000420e:	79ec      	ldrb	r4, [r5, #7]
10004210:	79ab      	ldrb	r3, [r5, #6]
10004212:	0224      	lsls	r4, r4, #8
10004214:	431c      	orrs	r4, r3
10004216:	1c23      	adds	r3, r4, #0
10004218:	42bc      	cmp	r4, r7
1000421a:	d900      	bls.n	1000421e <tud_control_xfer+0x32>
1000421c:	1c3b      	adds	r3, r7, #0
1000421e:	b29f      	uxth	r7, r3
10004220:	81b3      	strh	r3, [r6, #12]
10004222:	2c00      	cmp	r4, #0
10004224:	d00e      	beq.n	10004244 <tud_control_xfer+0x58>
10004226:	2f00      	cmp	r7, #0
10004228:	d018      	beq.n	1000425c <tud_control_xfer+0x70>
1000422a:	4643      	mov	r3, r8
1000422c:	2b00      	cmp	r3, #0
1000422e:	d02c      	beq.n	1000428a <tud_control_xfer+0x9e>
10004230:	1c3b      	adds	r3, r7, #0
10004232:	2f40      	cmp	r7, #64	@ 0x40
10004234:	d81b      	bhi.n	1000426e <tud_control_xfer+0x82>
10004236:	b29f      	uxth	r7, r3
10004238:	7833      	ldrb	r3, [r6, #0]
1000423a:	2b7f      	cmp	r3, #127	@ 0x7f
1000423c:	d81c      	bhi.n	10004278 <tud_control_xfer+0x8c>
1000423e:	2100      	movs	r1, #0
10004240:	4a14      	ldr	r2, [pc, #80]	@ (10004294 <tud_control_xfer+0xa8>)
10004242:	e00f      	b.n	10004264 <tud_control_xfer+0x78>
10004244:	2180      	movs	r1, #128	@ 0x80
10004246:	782b      	ldrb	r3, [r5, #0]
10004248:	2200      	movs	r2, #0
1000424a:	4399      	bics	r1, r3
1000424c:	4648      	mov	r0, r9
1000424e:	2300      	movs	r3, #0
10004250:	f7ff ff82 	bl	10004158 <usbd_edpt_xfer>
10004254:	bcc0      	pop	{r6, r7}
10004256:	46b9      	mov	r9, r7
10004258:	46b0      	mov	r8, r6
1000425a:	bdf8      	pop	{r3, r4, r5, r6, r7, pc}
1000425c:	237f      	movs	r3, #127	@ 0x7f
1000425e:	2200      	movs	r2, #0
10004260:	7831      	ldrb	r1, [r6, #0]
10004262:	4399      	bics	r1, r3
10004264:	003b      	movs	r3, r7
10004266:	4648      	mov	r0, r9
10004268:	f7ff ff76 	bl	10004158 <usbd_edpt_xfer>
1000426c:	e7f2      	b.n	10004254 <tud_control_xfer+0x68>
1000426e:	2340      	movs	r3, #64	@ 0x40
10004270:	b29f      	uxth	r7, r3
10004272:	7833      	ldrb	r3, [r6, #0]
10004274:	2b7f      	cmp	r3, #127	@ 0x7f
10004276:	d9e2      	bls.n	1000423e <tud_control_xfer+0x52>
10004278:	4c06      	ldr	r4, [pc, #24]	@ (10004294 <tud_control_xfer+0xa8>)
1000427a:	003a      	movs	r2, r7
1000427c:	4641      	mov	r1, r8
1000427e:	0020      	movs	r0, r4
10004280:	f7fe ff84 	bl	1000318c <__wrap___aeabi_memcpy>
10004284:	2180      	movs	r1, #128	@ 0x80
10004286:	0022      	movs	r2, r4
10004288:	e7ec      	b.n	10004264 <tud_control_xfer+0x78>
1000428a:	2000      	movs	r0, #0
1000428c:	e7e2      	b.n	10004254 <tud_control_xfer+0x68>
1000428e:	46c0      	nop			@ (mov r8, r8)
10004290:	200012ac 	.word	0x200012ac
10004294:	2000126c 	.word	0x2000126c

10004298 <usbd_control_reset>:
10004298:	b510      	push	{r4, lr}
1000429a:	2214      	movs	r2, #20
1000429c:	2100      	movs	r1, #0
1000429e:	4802      	ldr	r0, [pc, #8]	@ (100042a8 <usbd_control_reset+0x10>)
100042a0:	f7fe ff6e 	bl	10003180 <__wrap_memset>
100042a4:	bd10      	pop	{r4, pc}
100042a6:	46c0      	nop			@ (mov r8, r8)
100042a8:	200012ac 	.word	0x200012ac

100042ac <usbd_control_set_complete_callback>:
100042ac:	4b01      	ldr	r3, [pc, #4]	@ (100042b4 <usbd_control_set_complete_callback+0x8>)
100042ae:	6118      	str	r0, [r3, #16]
100042b0:	4770      	bx	lr
100042b2:	46c0      	nop			@ (mov r8, r8)
100042b4:	200012ac 	.word	0x200012ac

100042b8 <usbd_control_set_request>:
100042b8:	b510      	push	{r4, lr}
100042ba:	4c05      	ldr	r4, [pc, #20]	@ (100042d0 <usbd_control_set_request+0x18>)
100042bc:	0001      	movs	r1, r0
100042be:	2208      	movs	r2, #8
100042c0:	0020      	movs	r0, r4
100042c2:	f7fe ff63 	bl	1000318c <__wrap___aeabi_memcpy>
100042c6:	2300      	movs	r3, #0
100042c8:	60a3      	str	r3, [r4, #8]
100042ca:	60e3      	str	r3, [r4, #12]
100042cc:	bd10      	pop	{r4, pc}
100042ce:	46c0      	nop			@ (mov r8, r8)
100042d0:	200012ac 	.word	0x200012ac

100042d4 <usbd_control_xfer_cb>:
100042d4:	b570      	push	{r4, r5, r6, lr}
100042d6:	4c38      	ldr	r4, [pc, #224]	@ (100043b8 <usbd_control_xfer_cb+0xe4>)
100042d8:	001d      	movs	r5, r3
100042da:	7823      	ldrb	r3, [r4, #0]
100042dc:	0006      	movs	r6, r0
100042de:	09da      	lsrs	r2, r3, #7
100042e0:	09c9      	lsrs	r1, r1, #7
100042e2:	428a      	cmp	r2, r1
100042e4:	d010      	beq.n	10004308 <usbd_control_xfer_cb+0x34>
100042e6:	2000      	movs	r0, #0
100042e8:	2d00      	cmp	r5, #0
100042ea:	d000      	beq.n	100042ee <usbd_control_xfer_cb+0x1a>
100042ec:	bd70      	pop	{r4, r5, r6, pc}
100042ee:	0021      	movs	r1, r4
100042f0:	0030      	movs	r0, r6
100042f2:	f7ff f931 	bl	10003558 <dcd_edpt0_status_complete>
100042f6:	6923      	ldr	r3, [r4, #16]
100042f8:	2b00      	cmp	r3, #0
100042fa:	d003      	beq.n	10004304 <usbd_control_xfer_cb+0x30>
100042fc:	0022      	movs	r2, r4
100042fe:	2103      	movs	r1, #3
10004300:	0030      	movs	r0, r6
10004302:	4798      	blx	r3
10004304:	2001      	movs	r0, #1
10004306:	e7f1      	b.n	100042ec <usbd_control_xfer_cb+0x18>
10004308:	68a0      	ldr	r0, [r4, #8]
1000430a:	2b7f      	cmp	r3, #127	@ 0x7f
1000430c:	d805      	bhi.n	1000431a <usbd_control_xfer_cb+0x46>
1000430e:	2800      	cmp	r0, #0
10004310:	d034      	beq.n	1000437c <usbd_control_xfer_cb+0xa8>
10004312:	002a      	movs	r2, r5
10004314:	4929      	ldr	r1, [pc, #164]	@ (100043bc <usbd_control_xfer_cb+0xe8>)
10004316:	f7fe ff39 	bl	1000318c <__wrap___aeabi_memcpy>
1000431a:	89e2      	ldrh	r2, [r4, #14]
1000431c:	68a1      	ldr	r1, [r4, #8]
1000431e:	1952      	adds	r2, r2, r5
10004320:	88e3      	ldrh	r3, [r4, #6]
10004322:	b292      	uxth	r2, r2
10004324:	1949      	adds	r1, r1, r5
10004326:	81e2      	strh	r2, [r4, #14]
10004328:	60a1      	str	r1, [r4, #8]
1000432a:	4293      	cmp	r3, r2
1000432c:	d014      	beq.n	10004358 <usbd_control_xfer_cb+0x84>
1000432e:	2d3f      	cmp	r5, #63	@ 0x3f
10004330:	d912      	bls.n	10004358 <usbd_control_xfer_cb+0x84>
10004332:	89a3      	ldrh	r3, [r4, #12]
10004334:	1a98      	subs	r0, r3, r2
10004336:	1c05      	adds	r5, r0, #0
10004338:	b280      	uxth	r0, r0
1000433a:	2840      	cmp	r0, #64	@ 0x40
1000433c:	d82a      	bhi.n	10004394 <usbd_control_xfer_cb+0xc0>
1000433e:	7820      	ldrb	r0, [r4, #0]
10004340:	b2ad      	uxth	r5, r5
10004342:	287f      	cmp	r0, #127	@ 0x7f
10004344:	d828      	bhi.n	10004398 <usbd_control_xfer_cb+0xc4>
10004346:	2100      	movs	r1, #0
10004348:	429a      	cmp	r2, r3
1000434a:	d032      	beq.n	100043b2 <usbd_control_xfer_cb+0xde>
1000434c:	4a1b      	ldr	r2, [pc, #108]	@ (100043bc <usbd_control_xfer_cb+0xe8>)
1000434e:	002b      	movs	r3, r5
10004350:	0030      	movs	r0, r6
10004352:	f7ff ff01 	bl	10004158 <usbd_edpt_xfer>
10004356:	e7c9      	b.n	100042ec <usbd_control_xfer_cb+0x18>
10004358:	6923      	ldr	r3, [r4, #16]
1000435a:	2b00      	cmp	r3, #0
1000435c:	d005      	beq.n	1000436a <usbd_control_xfer_cb+0x96>
1000435e:	0022      	movs	r2, r4
10004360:	2102      	movs	r1, #2
10004362:	0030      	movs	r0, r6
10004364:	4798      	blx	r3
10004366:	2800      	cmp	r0, #0
10004368:	d00a      	beq.n	10004380 <usbd_control_xfer_cb+0xac>
1000436a:	2180      	movs	r1, #128	@ 0x80
1000436c:	7823      	ldrb	r3, [r4, #0]
1000436e:	2200      	movs	r2, #0
10004370:	4399      	bics	r1, r3
10004372:	0030      	movs	r0, r6
10004374:	2300      	movs	r3, #0
10004376:	f7ff feef 	bl	10004158 <usbd_edpt_xfer>
1000437a:	e7b7      	b.n	100042ec <usbd_control_xfer_cb+0x18>
1000437c:	2000      	movs	r0, #0
1000437e:	e7b5      	b.n	100042ec <usbd_control_xfer_cb+0x18>
10004380:	2100      	movs	r1, #0
10004382:	0030      	movs	r0, r6
10004384:	f7ff f996 	bl	100036b4 <dcd_edpt_stall>
10004388:	0030      	movs	r0, r6
1000438a:	2180      	movs	r1, #128	@ 0x80
1000438c:	f7ff f992 	bl	100036b4 <dcd_edpt_stall>
10004390:	2001      	movs	r0, #1
10004392:	e7ab      	b.n	100042ec <usbd_control_xfer_cb+0x18>
10004394:	2540      	movs	r5, #64	@ 0x40
10004396:	e7d2      	b.n	1000433e <usbd_control_xfer_cb+0x6a>
10004398:	429a      	cmp	r2, r3
1000439a:	d007      	beq.n	100043ac <usbd_control_xfer_cb+0xd8>
1000439c:	4c07      	ldr	r4, [pc, #28]	@ (100043bc <usbd_control_xfer_cb+0xe8>)
1000439e:	002a      	movs	r2, r5
100043a0:	0020      	movs	r0, r4
100043a2:	f7fe fef3 	bl	1000318c <__wrap___aeabi_memcpy>
100043a6:	2180      	movs	r1, #128	@ 0x80
100043a8:	0022      	movs	r2, r4
100043aa:	e7d0      	b.n	1000434e <usbd_control_xfer_cb+0x7a>
100043ac:	2180      	movs	r1, #128	@ 0x80
100043ae:	2200      	movs	r2, #0
100043b0:	e7cd      	b.n	1000434e <usbd_control_xfer_cb+0x7a>
100043b2:	2200      	movs	r2, #0
100043b4:	e7cb      	b.n	1000434e <usbd_control_xfer_cb+0x7a>
100043b6:	46c0      	nop			@ (mov r8, r8)
100043b8:	200012ac 	.word	0x200012ac
100043bc:	2000126c 	.word	0x2000126c

100043c0 <tud_hid_set_protocol_cb>:
100043c0:	4770      	bx	lr
100043c2:	46c0      	nop			@ (mov r8, r8)

100043c4 <tud_hid_set_idle_cb>:
100043c4:	2001      	movs	r0, #1
100043c6:	4770      	bx	lr

100043c8 <tud_hid_report_complete_cb>:
100043c8:	4770      	bx	lr
100043ca:	46c0      	nop			@ (mov r8, r8)

100043cc <tud_hid_report_failed_cb>:
100043cc:	4770      	bx	lr
100043ce:	46c0      	nop			@ (mov r8, r8)

100043d0 <tud_hid_n_ready>:
100043d0:	0042      	lsls	r2, r0, #1
100043d2:	4b0c      	ldr	r3, [pc, #48]	@ (10004404 <tud_hid_n_ready+0x34>)
100043d4:	1812      	adds	r2, r2, r0
100043d6:	0092      	lsls	r2, r2, #2
100043d8:	b510      	push	{r4, lr}
100043da:	189b      	adds	r3, r3, r2
100043dc:	785c      	ldrb	r4, [r3, #1]
100043de:	f7ff f9ef 	bl	100037c0 <tud_mounted>
100043e2:	2800      	cmp	r0, #0
100043e4:	d101      	bne.n	100043ea <tud_hid_n_ready+0x1a>
100043e6:	2000      	movs	r0, #0
100043e8:	bd10      	pop	{r4, pc}
100043ea:	f7ff f9f1 	bl	100037d0 <tud_suspended>
100043ee:	2800      	cmp	r0, #0
100043f0:	d1f9      	bne.n	100043e6 <tud_hid_n_ready+0x16>
100043f2:	2c00      	cmp	r4, #0
100043f4:	d0f7      	beq.n	100043e6 <tud_hid_n_ready+0x16>
100043f6:	0021      	movs	r1, r4
100043f8:	f7ff fed4 	bl	100041a4 <usbd_edpt_busy>
100043fc:	2301      	movs	r3, #1
100043fe:	4058      	eors	r0, r3
10004400:	b2c0      	uxtb	r0, r0
10004402:	e7f1      	b.n	100043e8 <tud_hid_n_ready+0x18>
10004404:	20001360 	.word	0x20001360

10004408 <tud_hid_n_keyboard_report>:
10004408:	b5f0      	push	{r4, r5, r6, r7, lr}
1000440a:	4646      	mov	r6, r8
1000440c:	46d6      	mov	lr, sl
1000440e:	464f      	mov	r7, r9
10004410:	b5c0      	push	{r6, r7, lr}
10004412:	b082      	sub	sp, #8
10004414:	466d      	mov	r5, sp
10004416:	000e      	movs	r6, r1
10004418:	0019      	movs	r1, r3
1000441a:	2300      	movs	r3, #0
1000441c:	702a      	strb	r2, [r5, #0]
1000441e:	0004      	movs	r4, r0
10004420:	2206      	movs	r2, #6
10004422:	706b      	strb	r3, [r5, #1]
10004424:	2900      	cmp	r1, #0
10004426:	d03b      	beq.n	100044a0 <tud_hid_n_keyboard_report+0x98>
10004428:	1ca8      	adds	r0, r5, #2
1000442a:	f7fe feaf 	bl	1000318c <__wrap___aeabi_memcpy>
1000442e:	2c01      	cmp	r4, #1
10004430:	d906      	bls.n	10004440 <tud_hid_n_keyboard_report+0x38>
10004432:	2000      	movs	r0, #0
10004434:	b002      	add	sp, #8
10004436:	bce0      	pop	{r5, r6, r7}
10004438:	46ba      	mov	sl, r7
1000443a:	46b1      	mov	r9, r6
1000443c:	46a8      	mov	r8, r5
1000443e:	bdf0      	pop	{r4, r5, r6, r7, pc}
10004440:	4b1a      	ldr	r3, [pc, #104]	@ (100044ac <tud_hid_n_keyboard_report+0xa4>)
10004442:	46a2      	mov	sl, r4
10004444:	4699      	mov	r9, r3
10004446:	0063      	lsls	r3, r4, #1
10004448:	4698      	mov	r8, r3
1000444a:	44c2      	add	sl, r8
1000444c:	4653      	mov	r3, sl
1000444e:	009b      	lsls	r3, r3, #2
10004450:	444b      	add	r3, r9
10004452:	2000      	movs	r0, #0
10004454:	7859      	ldrb	r1, [r3, #1]
10004456:	f7ff fe6b 	bl	10004130 <usbd_edpt_claim>
1000445a:	2800      	cmp	r0, #0
1000445c:	d0e9      	beq.n	10004432 <tud_hid_n_keyboard_report+0x2a>
1000445e:	2730      	movs	r7, #48	@ 0x30
10004460:	4263      	negs	r3, r4
10004462:	4a13      	ldr	r2, [pc, #76]	@ (100044b0 <tud_hid_n_keyboard_report+0xa8>)
10004464:	401f      	ands	r7, r3
10004466:	3710      	adds	r7, #16
10004468:	18bf      	adds	r7, r7, r2
1000446a:	2e00      	cmp	r6, #0
1000446c:	d10d      	bne.n	1000448a <tud_hid_n_keyboard_report+0x82>
1000446e:	003b      	movs	r3, r7
10004470:	cd06      	ldmia	r5!, {r1, r2}
10004472:	c306      	stmia	r3!, {r1, r2}
10004474:	2308      	movs	r3, #8
10004476:	0022      	movs	r2, r4
10004478:	4442      	add	r2, r8
1000447a:	0092      	lsls	r2, r2, #2
1000447c:	444a      	add	r2, r9
1000447e:	7851      	ldrb	r1, [r2, #1]
10004480:	2000      	movs	r0, #0
10004482:	003a      	movs	r2, r7
10004484:	f7ff fe68 	bl	10004158 <usbd_edpt_xfer>
10004488:	e7d4      	b.n	10004434 <tud_hid_n_keyboard_report+0x2c>
1000448a:	4653      	mov	r3, sl
1000448c:	011b      	lsls	r3, r3, #4
1000448e:	18d2      	adds	r2, r2, r3
10004490:	7416      	strb	r6, [r2, #16]
10004492:	0029      	movs	r1, r5
10004494:	2208      	movs	r2, #8
10004496:	1c78      	adds	r0, r7, #1
10004498:	f7fe fe78 	bl	1000318c <__wrap___aeabi_memcpy>
1000449c:	2309      	movs	r3, #9
1000449e:	e7ea      	b.n	10004476 <tud_hid_n_keyboard_report+0x6e>
100044a0:	2100      	movs	r1, #0
100044a2:	1ca8      	adds	r0, r5, #2
100044a4:	f7fe fe6c 	bl	10003180 <__wrap_memset>
100044a8:	e7c1      	b.n	1000442e <tud_hid_n_keyboard_report+0x26>
100044aa:	46c0      	nop			@ (mov r8, r8)
100044ac:	20001360 	.word	0x20001360
100044b0:	20001300 	.word	0x20001300

100044b4 <hidd_init>:
100044b4:	b510      	push	{r4, lr}
100044b6:	2218      	movs	r2, #24
100044b8:	2100      	movs	r1, #0
100044ba:	4802      	ldr	r0, [pc, #8]	@ (100044c4 <hidd_init+0x10>)
100044bc:	f7fe fe60 	bl	10003180 <__wrap_memset>
100044c0:	bd10      	pop	{r4, pc}
100044c2:	46c0      	nop			@ (mov r8, r8)
100044c4:	20001360 	.word	0x20001360

100044c8 <hidd_deinit>:
100044c8:	2001      	movs	r0, #1
100044ca:	4770      	bx	lr

100044cc <hidd_reset>:
100044cc:	b510      	push	{r4, lr}
100044ce:	2218      	movs	r2, #24
100044d0:	2100      	movs	r1, #0
100044d2:	4802      	ldr	r0, [pc, #8]	@ (100044dc <hidd_reset+0x10>)
100044d4:	f7fe fe54 	bl	10003180 <__wrap_memset>
100044d8:	bd10      	pop	{r4, pc}
100044da:	46c0      	nop			@ (mov r8, r8)
100044dc:	20001360 	.word	0x20001360

100044e0 <hidd_open>:
100044e0:	b5f0      	push	{r4, r5, r6, r7, lr}
100044e2:	46c6      	mov	lr, r8
100044e4:	b500      	push	{lr}
100044e6:	794b      	ldrb	r3, [r1, #5]
100044e8:	0006      	movs	r6, r0
100044ea:	000d      	movs	r5, r1
100044ec:	b082      	sub	sp, #8
100044ee:	2b03      	cmp	r3, #3
100044f0:	d10d      	bne.n	1000450e <hidd_open+0x2e>
100044f2:	7908      	ldrb	r0, [r1, #4]
100044f4:	00c4      	lsls	r4, r0, #3
100044f6:	1a24      	subs	r4, r4, r0
100044f8:	3412      	adds	r4, #18
100044fa:	b2a4      	uxth	r4, r4
100044fc:	4294      	cmp	r4, r2
100044fe:	d806      	bhi.n	1000450e <hidd_open+0x2e>
10004500:	4f1f      	ldr	r7, [pc, #124]	@ (10004580 <hidd_open+0xa0>)
10004502:	787b      	ldrb	r3, [r7, #1]
10004504:	2b00      	cmp	r3, #0
10004506:	d037      	beq.n	10004578 <hidd_open+0x98>
10004508:	7b7b      	ldrb	r3, [r7, #13]
1000450a:	2b00      	cmp	r3, #0
1000450c:	d005      	beq.n	1000451a <hidd_open+0x3a>
1000450e:	2400      	movs	r4, #0
10004510:	0020      	movs	r0, r4
10004512:	b002      	add	sp, #8
10004514:	bc80      	pop	{r7}
10004516:	46b8      	mov	r8, r7
10004518:	bdf0      	pop	{r4, r5, r6, r7, pc}
1000451a:	3350      	adds	r3, #80	@ 0x50
1000451c:	4698      	mov	r8, r3
1000451e:	370c      	adds	r7, #12
10004520:	7829      	ldrb	r1, [r5, #0]
10004522:	1869      	adds	r1, r5, r1
10004524:	784b      	ldrb	r3, [r1, #1]
10004526:	2b21      	cmp	r3, #33	@ 0x21
10004528:	d1f1      	bne.n	1000450e <hidd_open+0x2e>
1000452a:	60b9      	str	r1, [r7, #8]
1000452c:	780b      	ldrb	r3, [r1, #0]
1000452e:	0002      	movs	r2, r0
10004530:	18c9      	adds	r1, r1, r3
10004532:	1c7b      	adds	r3, r7, #1
10004534:	9301      	str	r3, [sp, #4]
10004536:	1cbb      	adds	r3, r7, #2
10004538:	9300      	str	r3, [sp, #0]
1000453a:	0030      	movs	r0, r6
1000453c:	2303      	movs	r3, #3
1000453e:	f7ff fda9 	bl	10004094 <usbd_open_edpt_pair>
10004542:	2800      	cmp	r0, #0
10004544:	d0e3      	beq.n	1000450e <hidd_open+0x2e>
10004546:	79ab      	ldrb	r3, [r5, #6]
10004548:	2b01      	cmp	r3, #1
1000454a:	d101      	bne.n	10004550 <hidd_open+0x70>
1000454c:	79eb      	ldrb	r3, [r5, #7]
1000454e:	70fb      	strb	r3, [r7, #3]
10004550:	2301      	movs	r3, #1
10004552:	71bb      	strb	r3, [r7, #6]
10004554:	78ab      	ldrb	r3, [r5, #2]
10004556:	78b9      	ldrb	r1, [r7, #2]
10004558:	703b      	strb	r3, [r7, #0]
1000455a:	68bb      	ldr	r3, [r7, #8]
1000455c:	79da      	ldrb	r2, [r3, #7]
1000455e:	7a1b      	ldrb	r3, [r3, #8]
10004560:	021b      	lsls	r3, r3, #8
10004562:	4313      	orrs	r3, r2
10004564:	80bb      	strh	r3, [r7, #4]
10004566:	2900      	cmp	r1, #0
10004568:	d0d2      	beq.n	10004510 <hidd_open+0x30>
1000456a:	4a06      	ldr	r2, [pc, #24]	@ (10004584 <hidd_open+0xa4>)
1000456c:	2310      	movs	r3, #16
1000456e:	0030      	movs	r0, r6
10004570:	4442      	add	r2, r8
10004572:	f7ff fdf1 	bl	10004158 <usbd_edpt_xfer>
10004576:	e7cb      	b.n	10004510 <hidd_open+0x30>
10004578:	2320      	movs	r3, #32
1000457a:	4698      	mov	r8, r3
1000457c:	e7d0      	b.n	10004520 <hidd_open+0x40>
1000457e:	46c0      	nop			@ (mov r8, r8)
10004580:	20001360 	.word	0x20001360
10004584:	20001300 	.word	0x20001300

10004588 <hidd_control_xfer_cb>:
10004588:	b5f0      	push	{r4, r5, r6, r7, lr}
1000458a:	4646      	mov	r6, r8
1000458c:	46d6      	mov	lr, sl
1000458e:	464f      	mov	r7, r9
10004590:	251f      	movs	r5, #31
10004592:	b5c0      	push	{r6, r7, lr}
10004594:	7813      	ldrb	r3, [r2, #0]
10004596:	0006      	movs	r6, r0
10004598:	0014      	movs	r4, r2
1000459a:	b082      	sub	sp, #8
1000459c:	401d      	ands	r5, r3
1000459e:	2d01      	cmp	r5, #1
100045a0:	d107      	bne.n	100045b2 <hidd_control_xfer_cb+0x2a>
100045a2:	4f7c      	ldr	r7, [pc, #496]	@ (10004794 <hidd_control_xfer_cb+0x20c>)
100045a4:	7912      	ldrb	r2, [r2, #4]
100045a6:	7838      	ldrb	r0, [r7, #0]
100045a8:	4290      	cmp	r0, r2
100045aa:	d009      	beq.n	100045c0 <hidd_control_xfer_cb+0x38>
100045ac:	7b38      	ldrb	r0, [r7, #12]
100045ae:	4290      	cmp	r0, r2
100045b0:	d034      	beq.n	1000461c <hidd_control_xfer_cb+0x94>
100045b2:	2000      	movs	r0, #0
100045b4:	b002      	add	sp, #8
100045b6:	bce0      	pop	{r5, r6, r7}
100045b8:	46ba      	mov	sl, r7
100045ba:	46b1      	mov	r9, r6
100045bc:	46a8      	mov	r8, r5
100045be:	bdf0      	pop	{r4, r5, r6, r7, pc}
100045c0:	2206      	movs	r2, #6
100045c2:	4691      	mov	r9, r2
100045c4:	3201      	adds	r2, #1
100045c6:	4692      	mov	sl, r2
100045c8:	2200      	movs	r2, #0
100045ca:	2500      	movs	r5, #0
100045cc:	4694      	mov	ip, r2
100045ce:	4690      	mov	r8, r2
100045d0:	2060      	movs	r0, #96	@ 0x60
100045d2:	0002      	movs	r2, r0
100045d4:	401a      	ands	r2, r3
100045d6:	4218      	tst	r0, r3
100045d8:	d129      	bne.n	1000462e <hidd_control_xfer_cb+0xa6>
100045da:	2901      	cmp	r1, #1
100045dc:	d001      	beq.n	100045e2 <hidd_control_xfer_cb+0x5a>
100045de:	2001      	movs	r0, #1
100045e0:	e7e8      	b.n	100045b4 <hidd_control_xfer_cb+0x2c>
100045e2:	78e3      	ldrb	r3, [r4, #3]
100045e4:	78a1      	ldrb	r1, [r4, #2]
100045e6:	7862      	ldrb	r2, [r4, #1]
100045e8:	021b      	lsls	r3, r3, #8
100045ea:	430b      	orrs	r3, r1
100045ec:	2a06      	cmp	r2, #6
100045ee:	d1e0      	bne.n	100045b2 <hidd_control_xfer_cb+0x2a>
100045f0:	0a1b      	lsrs	r3, r3, #8
100045f2:	2b21      	cmp	r3, #33	@ 0x21
100045f4:	d100      	bne.n	100045f8 <hidd_control_xfer_cb+0x70>
100045f6:	e0ab      	b.n	10004750 <hidd_control_xfer_cb+0x1c8>
100045f8:	2b22      	cmp	r3, #34	@ 0x22
100045fa:	d1da      	bne.n	100045b2 <hidd_control_xfer_cb+0x2a>
100045fc:	0028      	movs	r0, r5
100045fe:	f7fc fe17 	bl	10001230 <tud_hid_descriptor_report_cb>
10004602:	4643      	mov	r3, r8
10004604:	005b      	lsls	r3, r3, #1
10004606:	4443      	add	r3, r8
10004608:	009b      	lsls	r3, r3, #2
1000460a:	18fb      	adds	r3, r7, r3
1000460c:	0002      	movs	r2, r0
1000460e:	0021      	movs	r1, r4
10004610:	0030      	movs	r0, r6
10004612:	889b      	ldrh	r3, [r3, #4]
10004614:	f7ff fdea 	bl	100041ec <tud_control_xfer>
10004618:	2001      	movs	r0, #1
1000461a:	e7cb      	b.n	100045b4 <hidd_control_xfer_cb+0x2c>
1000461c:	2212      	movs	r2, #18
1000461e:	4691      	mov	r9, r2
10004620:	3201      	adds	r2, #1
10004622:	4692      	mov	sl, r2
10004624:	321d      	adds	r2, #29
10004626:	4694      	mov	ip, r2
10004628:	3a2f      	subs	r2, #47	@ 0x2f
1000462a:	4690      	mov	r8, r2
1000462c:	e7d0      	b.n	100045d0 <hidd_control_xfer_cb+0x48>
1000462e:	2a20      	cmp	r2, #32
10004630:	d1bf      	bne.n	100045b2 <hidd_control_xfer_cb+0x2a>
10004632:	7860      	ldrb	r0, [r4, #1]
10004634:	280b      	cmp	r0, #11
10004636:	d8bc      	bhi.n	100045b2 <hidd_control_xfer_cb+0x2a>
10004638:	4b57      	ldr	r3, [pc, #348]	@ (10004798 <hidd_control_xfer_cb+0x210>)
1000463a:	0080      	lsls	r0, r0, #2
1000463c:	581b      	ldr	r3, [r3, r0]
1000463e:	469f      	mov	pc, r3
10004640:	2901      	cmp	r1, #1
10004642:	d01b      	beq.n	1000467c <hidd_control_xfer_cb+0xf4>
10004644:	2903      	cmp	r1, #3
10004646:	d1ca      	bne.n	100045de <hidd_control_xfer_cb+0x56>
10004648:	4643      	mov	r3, r8
1000464a:	005b      	lsls	r3, r3, #1
1000464c:	4443      	add	r3, r8
1000464e:	78a1      	ldrb	r1, [r4, #2]
10004650:	009b      	lsls	r3, r3, #2
10004652:	0028      	movs	r0, r5
10004654:	18ff      	adds	r7, r7, r3
10004656:	71b9      	strb	r1, [r7, #6]
10004658:	f7ff feb2 	bl	100043c0 <tud_hid_set_protocol_cb>
1000465c:	2001      	movs	r0, #1
1000465e:	e7a9      	b.n	100045b4 <hidd_control_xfer_cb+0x2c>
10004660:	2901      	cmp	r1, #1
10004662:	d1bc      	bne.n	100045de <hidd_control_xfer_cb+0x56>
10004664:	4643      	mov	r3, r8
10004666:	005b      	lsls	r3, r3, #1
10004668:	4443      	add	r3, r8
1000466a:	78e1      	ldrb	r1, [r4, #3]
1000466c:	009b      	lsls	r3, r3, #2
1000466e:	18fb      	adds	r3, r7, r3
10004670:	0028      	movs	r0, r5
10004672:	71d9      	strb	r1, [r3, #7]
10004674:	f7ff fea6 	bl	100043c4 <tud_hid_set_idle_cb>
10004678:	2800      	cmp	r0, #0
1000467a:	d09a      	beq.n	100045b2 <hidd_control_xfer_cb+0x2a>
1000467c:	0021      	movs	r1, r4
1000467e:	0030      	movs	r0, r6
10004680:	f7ff fd9e 	bl	100041c0 <tud_control_status>
10004684:	2001      	movs	r0, #1
10004686:	e795      	b.n	100045b4 <hidd_control_xfer_cb+0x2c>
10004688:	2901      	cmp	r1, #1
1000468a:	d070      	beq.n	1000476e <hidd_control_xfer_cb+0x1e6>
1000468c:	2903      	cmp	r1, #3
1000468e:	d1a6      	bne.n	100045de <hidd_control_xfer_cb+0x56>
10004690:	79a0      	ldrb	r0, [r4, #6]
10004692:	78e2      	ldrb	r2, [r4, #3]
10004694:	78a1      	ldrb	r1, [r4, #2]
10004696:	79e4      	ldrb	r4, [r4, #7]
10004698:	4b40      	ldr	r3, [pc, #256]	@ (1000479c <hidd_control_xfer_cb+0x214>)
1000469a:	0224      	lsls	r4, r4, #8
1000469c:	4304      	orrs	r4, r0
1000469e:	4463      	add	r3, ip
100046a0:	1c20      	adds	r0, r4, #0
100046a2:	2c10      	cmp	r4, #16
100046a4:	d900      	bls.n	100046a8 <hidd_control_xfer_cb+0x120>
100046a6:	2010      	movs	r0, #16
100046a8:	b280      	uxth	r0, r0
100046aa:	2900      	cmp	r1, #0
100046ac:	d007      	beq.n	100046be <hidd_control_xfer_cb+0x136>
100046ae:	2c01      	cmp	r4, #1
100046b0:	d905      	bls.n	100046be <hidd_control_xfer_cb+0x136>
100046b2:	781c      	ldrb	r4, [r3, #0]
100046b4:	428c      	cmp	r4, r1
100046b6:	d102      	bne.n	100046be <hidd_control_xfer_cb+0x136>
100046b8:	3801      	subs	r0, #1
100046ba:	3301      	adds	r3, #1
100046bc:	b280      	uxth	r0, r0
100046be:	9000      	str	r0, [sp, #0]
100046c0:	0028      	movs	r0, r5
100046c2:	f7fc fdbb 	bl	1000123c <tud_hid_set_report_cb>
100046c6:	2001      	movs	r0, #1
100046c8:	e774      	b.n	100045b4 <hidd_control_xfer_cb+0x2c>
100046ca:	2901      	cmp	r1, #1
100046cc:	d187      	bne.n	100045de <hidd_control_xfer_cb+0x56>
100046ce:	003a      	movs	r2, r7
100046d0:	2301      	movs	r3, #1
100046d2:	0021      	movs	r1, r4
100046d4:	0030      	movs	r0, r6
100046d6:	444a      	add	r2, r9
100046d8:	f7ff fd88 	bl	100041ec <tud_control_xfer>
100046dc:	2001      	movs	r0, #1
100046de:	e769      	b.n	100045b4 <hidd_control_xfer_cb+0x2c>
100046e0:	2901      	cmp	r1, #1
100046e2:	d000      	beq.n	100046e6 <hidd_control_xfer_cb+0x15e>
100046e4:	e77b      	b.n	100045de <hidd_control_xfer_cb+0x56>
100046e6:	003a      	movs	r2, r7
100046e8:	2301      	movs	r3, #1
100046ea:	0021      	movs	r1, r4
100046ec:	0030      	movs	r0, r6
100046ee:	4452      	add	r2, sl
100046f0:	f7ff fd7c 	bl	100041ec <tud_control_xfer>
100046f4:	2001      	movs	r0, #1
100046f6:	e75d      	b.n	100045b4 <hidd_control_xfer_cb+0x2c>
100046f8:	2901      	cmp	r1, #1
100046fa:	d000      	beq.n	100046fe <hidd_control_xfer_cb+0x176>
100046fc:	e76f      	b.n	100045de <hidd_control_xfer_cb+0x56>
100046fe:	4b27      	ldr	r3, [pc, #156]	@ (1000479c <hidd_control_xfer_cb+0x214>)
10004700:	79a0      	ldrb	r0, [r4, #6]
10004702:	4463      	add	r3, ip
10004704:	4698      	mov	r8, r3
10004706:	79e3      	ldrb	r3, [r4, #7]
10004708:	78e2      	ldrb	r2, [r4, #3]
1000470a:	021b      	lsls	r3, r3, #8
1000470c:	4303      	orrs	r3, r0
1000470e:	78a1      	ldrb	r1, [r4, #2]
10004710:	1c18      	adds	r0, r3, #0
10004712:	2b10      	cmp	r3, #16
10004714:	d900      	bls.n	10004718 <hidd_control_xfer_cb+0x190>
10004716:	2010      	movs	r0, #16
10004718:	b280      	uxth	r0, r0
1000471a:	2900      	cmp	r1, #0
1000471c:	d036      	beq.n	1000478c <hidd_control_xfer_cb+0x204>
1000471e:	2b01      	cmp	r3, #1
10004720:	d934      	bls.n	1000478c <hidd_control_xfer_cb+0x204>
10004722:	4647      	mov	r7, r8
10004724:	4643      	mov	r3, r8
10004726:	7039      	strb	r1, [r7, #0]
10004728:	2701      	movs	r7, #1
1000472a:	3801      	subs	r0, #1
1000472c:	3301      	adds	r3, #1
1000472e:	b280      	uxth	r0, r0
10004730:	9000      	str	r0, [sp, #0]
10004732:	0028      	movs	r0, r5
10004734:	f7fc fd80 	bl	10001238 <tud_hid_get_report_cb>
10004738:	183b      	adds	r3, r7, r0
1000473a:	b29b      	uxth	r3, r3
1000473c:	2b00      	cmp	r3, #0
1000473e:	d100      	bne.n	10004742 <hidd_control_xfer_cb+0x1ba>
10004740:	e737      	b.n	100045b2 <hidd_control_xfer_cb+0x2a>
10004742:	4642      	mov	r2, r8
10004744:	0021      	movs	r1, r4
10004746:	0030      	movs	r0, r6
10004748:	f7ff fd50 	bl	100041ec <tud_control_xfer>
1000474c:	2001      	movs	r0, #1
1000474e:	e731      	b.n	100045b4 <hidd_control_xfer_cb+0x2c>
10004750:	4643      	mov	r3, r8
10004752:	005b      	lsls	r3, r3, #1
10004754:	4443      	add	r3, r8
10004756:	009b      	lsls	r3, r3, #2
10004758:	18fb      	adds	r3, r7, r3
1000475a:	689a      	ldr	r2, [r3, #8]
1000475c:	2a00      	cmp	r2, #0
1000475e:	d100      	bne.n	10004762 <hidd_control_xfer_cb+0x1da>
10004760:	e727      	b.n	100045b2 <hidd_control_xfer_cb+0x2a>
10004762:	0021      	movs	r1, r4
10004764:	0030      	movs	r0, r6
10004766:	7813      	ldrb	r3, [r2, #0]
10004768:	f7ff fd40 	bl	100041ec <tud_control_xfer>
1000476c:	e722      	b.n	100045b4 <hidd_control_xfer_cb+0x2c>
1000476e:	79e3      	ldrb	r3, [r4, #7]
10004770:	79a2      	ldrb	r2, [r4, #6]
10004772:	021b      	lsls	r3, r3, #8
10004774:	4313      	orrs	r3, r2
10004776:	2b10      	cmp	r3, #16
10004778:	d900      	bls.n	1000477c <hidd_control_xfer_cb+0x1f4>
1000477a:	e71a      	b.n	100045b2 <hidd_control_xfer_cb+0x2a>
1000477c:	4a07      	ldr	r2, [pc, #28]	@ (1000479c <hidd_control_xfer_cb+0x214>)
1000477e:	0021      	movs	r1, r4
10004780:	0030      	movs	r0, r6
10004782:	4462      	add	r2, ip
10004784:	f7ff fd32 	bl	100041ec <tud_control_xfer>
10004788:	2001      	movs	r0, #1
1000478a:	e713      	b.n	100045b4 <hidd_control_xfer_cb+0x2c>
1000478c:	4643      	mov	r3, r8
1000478e:	2700      	movs	r7, #0
10004790:	e7ce      	b.n	10004730 <hidd_control_xfer_cb+0x1a8>
10004792:	46c0      	nop			@ (mov r8, r8)
10004794:	20001360 	.word	0x20001360
10004798:	10005108 	.word	0x10005108
1000479c:	20001300 	.word	0x20001300

100047a0 <hidd_xfer_cb>:
100047a0:	b5f0      	push	{r4, r5, r6, r7, lr}
100047a2:	4c26      	ldr	r4, [pc, #152]	@ (1000483c <hidd_xfer_cb+0x9c>)
100047a4:	0006      	movs	r6, r0
100047a6:	78a0      	ldrb	r0, [r4, #2]
100047a8:	7865      	ldrb	r5, [r4, #1]
100047aa:	b083      	sub	sp, #12
100047ac:	4288      	cmp	r0, r1
100047ae:	d00a      	beq.n	100047c6 <hidd_xfer_cb+0x26>
100047b0:	42a9      	cmp	r1, r5
100047b2:	d020      	beq.n	100047f6 <hidd_xfer_cb+0x56>
100047b4:	7ba0      	ldrb	r0, [r4, #14]
100047b6:	7b65      	ldrb	r5, [r4, #13]
100047b8:	4288      	cmp	r0, r1
100047ba:	d034      	beq.n	10004826 <hidd_xfer_cb+0x86>
100047bc:	42a9      	cmp	r1, r5
100047be:	d038      	beq.n	10004832 <hidd_xfer_cb+0x92>
100047c0:	2000      	movs	r0, #0
100047c2:	b003      	add	sp, #12
100047c4:	bdf0      	pop	{r4, r5, r6, r7, pc}
100047c6:	2010      	movs	r0, #16
100047c8:	2720      	movs	r7, #32
100047ca:	4684      	mov	ip, r0
100047cc:	2000      	movs	r0, #0
100047ce:	b29b      	uxth	r3, r3
100047d0:	42a9      	cmp	r1, r5
100047d2:	d014      	beq.n	100047fe <hidd_xfer_cb+0x5e>
100047d4:	491a      	ldr	r1, [pc, #104]	@ (10004840 <hidd_xfer_cb+0xa0>)
100047d6:	187f      	adds	r7, r7, r1
100047d8:	2a00      	cmp	r2, #0
100047da:	d119      	bne.n	10004810 <hidd_xfer_cb+0x70>
100047dc:	9300      	str	r3, [sp, #0]
100047de:	2100      	movs	r1, #0
100047e0:	003b      	movs	r3, r7
100047e2:	3202      	adds	r2, #2
100047e4:	f7fc fd2a 	bl	1000123c <tud_hid_set_report_cb>
100047e8:	2310      	movs	r3, #16
100047ea:	003a      	movs	r2, r7
100047ec:	0030      	movs	r0, r6
100047ee:	78a1      	ldrb	r1, [r4, #2]
100047f0:	f7ff fcb2 	bl	10004158 <usbd_edpt_xfer>
100047f4:	e7e5      	b.n	100047c2 <hidd_xfer_cb+0x22>
100047f6:	2110      	movs	r1, #16
100047f8:	2000      	movs	r0, #0
100047fa:	468c      	mov	ip, r1
100047fc:	b29b      	uxth	r3, r3
100047fe:	4910      	ldr	r1, [pc, #64]	@ (10004840 <hidd_xfer_cb+0xa0>)
10004800:	4461      	add	r1, ip
10004802:	2a00      	cmp	r2, #0
10004804:	d109      	bne.n	1000481a <hidd_xfer_cb+0x7a>
10004806:	001a      	movs	r2, r3
10004808:	f7ff fdde 	bl	100043c8 <tud_hid_report_complete_cb>
1000480c:	2001      	movs	r0, #1
1000480e:	e7d8      	b.n	100047c2 <hidd_xfer_cb+0x22>
10004810:	003a      	movs	r2, r7
10004812:	2102      	movs	r1, #2
10004814:	f7ff fdda 	bl	100043cc <tud_hid_report_failed_cb>
10004818:	e7e6      	b.n	100047e8 <hidd_xfer_cb+0x48>
1000481a:	000a      	movs	r2, r1
1000481c:	2101      	movs	r1, #1
1000481e:	f7ff fdd5 	bl	100043cc <tud_hid_report_failed_cb>
10004822:	2001      	movs	r0, #1
10004824:	e7cd      	b.n	100047c2 <hidd_xfer_cb+0x22>
10004826:	2040      	movs	r0, #64	@ 0x40
10004828:	2750      	movs	r7, #80	@ 0x50
1000482a:	4684      	mov	ip, r0
1000482c:	340c      	adds	r4, #12
1000482e:	383f      	subs	r0, #63	@ 0x3f
10004830:	e7cd      	b.n	100047ce <hidd_xfer_cb+0x2e>
10004832:	2140      	movs	r1, #64	@ 0x40
10004834:	2001      	movs	r0, #1
10004836:	468c      	mov	ip, r1
10004838:	b29b      	uxth	r3, r3
1000483a:	e7e0      	b.n	100047fe <hidd_xfer_cb+0x5e>
1000483c:	20001360 	.word	0x20001360
10004840:	20001300 	.word	0x20001300

10004844 <tusb_rhport_init>:
10004844:	b500      	push	{lr}
10004846:	0003      	movs	r3, r0
10004848:	b083      	sub	sp, #12
1000484a:	2900      	cmp	r1, #0
1000484c:	d010      	beq.n	10004870 <tusb_rhport_init+0x2c>
1000484e:	2000      	movs	r0, #0
10004850:	2b01      	cmp	r3, #1
10004852:	d807      	bhi.n	10004864 <tusb_rhport_init+0x20>
10004854:	780a      	ldrb	r2, [r1, #0]
10004856:	2a00      	cmp	r2, #0
10004858:	d004      	beq.n	10004864 <tusb_rhport_init+0x20>
1000485a:	480b      	ldr	r0, [pc, #44]	@ (10004888 <tusb_rhport_init+0x44>)
1000485c:	54c2      	strb	r2, [r0, r3]
1000485e:	2001      	movs	r0, #1
10004860:	2a01      	cmp	r2, #1
10004862:	d001      	beq.n	10004868 <tusb_rhport_init+0x24>
10004864:	b003      	add	sp, #12
10004866:	bd00      	pop	{pc}
10004868:	0018      	movs	r0, r3
1000486a:	f7fe ffb9 	bl	100037e0 <tud_rhport_init>
1000486e:	e7f9      	b.n	10004864 <tusb_rhport_init+0x20>
10004870:	2301      	movs	r3, #1
10004872:	a901      	add	r1, sp, #4
10004874:	2000      	movs	r0, #0
10004876:	800b      	strh	r3, [r1, #0]
10004878:	f7fe ffb2 	bl	100037e0 <tud_rhport_init>
1000487c:	2800      	cmp	r0, #0
1000487e:	d0f1      	beq.n	10004864 <tusb_rhport_init+0x20>
10004880:	2201      	movs	r2, #1
10004882:	4b01      	ldr	r3, [pc, #4]	@ (10004888 <tusb_rhport_init+0x44>)
10004884:	701a      	strb	r2, [r3, #0]
10004886:	e7ed      	b.n	10004864 <tusb_rhport_init+0x20>
10004888:	20001378 	.word	0x20001378

1000488c <tu_edpt_claim>:
1000488c:	7803      	ldrb	r3, [r0, #0]
1000488e:	b570      	push	{r4, r5, r6, lr}
10004890:	07db      	lsls	r3, r3, #31
10004892:	0004      	movs	r4, r0
10004894:	000e      	movs	r6, r1
10004896:	0fdd      	lsrs	r5, r3, #31
10004898:	2b00      	cmp	r3, #0
1000489a:	d117      	bne.n	100048cc <tu_edpt_claim+0x40>
1000489c:	7803      	ldrb	r3, [r0, #0]
1000489e:	075b      	lsls	r3, r3, #29
100048a0:	d501      	bpl.n	100048a6 <tu_edpt_claim+0x1a>
100048a2:	0028      	movs	r0, r5
100048a4:	bd70      	pop	{r4, r5, r6, pc}
100048a6:	2101      	movs	r1, #1
100048a8:	0030      	movs	r0, r6
100048aa:	4249      	negs	r1, r1
100048ac:	f000 f988 	bl	10004bc0 <__mutex_enter_timeout_ms_veneer>
100048b0:	7823      	ldrb	r3, [r4, #0]
100048b2:	07db      	lsls	r3, r3, #31
100048b4:	0fdd      	lsrs	r5, r3, #31
100048b6:	2b00      	cmp	r3, #0
100048b8:	d10a      	bne.n	100048d0 <tu_edpt_claim+0x44>
100048ba:	7823      	ldrb	r3, [r4, #0]
100048bc:	075b      	lsls	r3, r3, #29
100048be:	d408      	bmi.n	100048d2 <tu_edpt_claim+0x46>
100048c0:	2204      	movs	r2, #4
100048c2:	7823      	ldrb	r3, [r4, #0]
100048c4:	2501      	movs	r5, #1
100048c6:	4313      	orrs	r3, r2
100048c8:	7023      	strb	r3, [r4, #0]
100048ca:	e002      	b.n	100048d2 <tu_edpt_claim+0x46>
100048cc:	2500      	movs	r5, #0
100048ce:	e7e8      	b.n	100048a2 <tu_edpt_claim+0x16>
100048d0:	2500      	movs	r5, #0
100048d2:	0030      	movs	r0, r6
100048d4:	f000 f94c 	bl	10004b70 <__mutex_exit_veneer>
100048d8:	e7e3      	b.n	100048a2 <tu_edpt_claim+0x16>
100048da:	46c0      	nop			@ (mov r8, r8)

100048dc <tu_edpt_validate>:
100048dc:	7943      	ldrb	r3, [r0, #5]
100048de:	7902      	ldrb	r2, [r0, #4]
100048e0:	021b      	lsls	r3, r3, #8
100048e2:	4313      	orrs	r3, r2
100048e4:	78c2      	ldrb	r2, [r0, #3]
100048e6:	055b      	lsls	r3, r3, #21
100048e8:	0792      	lsls	r2, r2, #30
100048ea:	0d5b      	lsrs	r3, r3, #21
100048ec:	0f92      	lsrs	r2, r2, #30
100048ee:	2a02      	cmp	r2, #2
100048f0:	d01d      	beq.n	1000492e <tu_edpt_validate+0x52>
100048f2:	2a03      	cmp	r2, #3
100048f4:	d00c      	beq.n	10004910 <tu_edpt_validate+0x34>
100048f6:	2000      	movs	r0, #0
100048f8:	2a01      	cmp	r2, #1
100048fa:	d108      	bne.n	1000490e <tu_edpt_validate+0x32>
100048fc:	3902      	subs	r1, #2
100048fe:	424a      	negs	r2, r1
10004900:	4151      	adcs	r1, r2
10004902:	4a12      	ldr	r2, [pc, #72]	@ (1000494c <tu_edpt_validate+0x70>)
10004904:	4694      	mov	ip, r2
10004906:	4461      	add	r1, ip
10004908:	4299      	cmp	r1, r3
1000490a:	4140      	adcs	r0, r0
1000490c:	b2c0      	uxtb	r0, r0
1000490e:	4770      	bx	lr
10004910:	3902      	subs	r1, #2
10004912:	1e4a      	subs	r2, r1, #1
10004914:	4191      	sbcs	r1, r2
10004916:	4a0e      	ldr	r2, [pc, #56]	@ (10004950 <tu_edpt_validate+0x74>)
10004918:	4249      	negs	r1, r1
1000491a:	4011      	ands	r1, r2
1000491c:	2280      	movs	r2, #128	@ 0x80
1000491e:	00d2      	lsls	r2, r2, #3
10004920:	4694      	mov	ip, r2
10004922:	2000      	movs	r0, #0
10004924:	4461      	add	r1, ip
10004926:	4299      	cmp	r1, r3
10004928:	4140      	adcs	r0, r0
1000492a:	b2c0      	uxtb	r0, r0
1000492c:	e7ef      	b.n	1000490e <tu_edpt_validate+0x32>
1000492e:	2902      	cmp	r1, #2
10004930:	d005      	beq.n	1000493e <tu_edpt_validate+0x62>
10004932:	2000      	movs	r0, #0
10004934:	2240      	movs	r2, #64	@ 0x40
10004936:	429a      	cmp	r2, r3
10004938:	4140      	adcs	r0, r0
1000493a:	b2c0      	uxtb	r0, r0
1000493c:	e7e7      	b.n	1000490e <tu_edpt_validate+0x32>
1000493e:	4a05      	ldr	r2, [pc, #20]	@ (10004954 <tu_edpt_validate+0x78>)
10004940:	1898      	adds	r0, r3, r2
10004942:	4243      	negs	r3, r0
10004944:	4158      	adcs	r0, r3
10004946:	b2c0      	uxtb	r0, r0
10004948:	e7e1      	b.n	1000490e <tu_edpt_validate+0x32>
1000494a:	46c0      	nop			@ (mov r8, r8)
1000494c:	000003ff 	.word	0x000003ff
10004950:	fffffc40 	.word	0xfffffc40
10004954:	fffffe00 	.word	0xfffffe00

10004958 <tu_edpt_bind_driver>:
10004958:	188a      	adds	r2, r1, r2
1000495a:	b570      	push	{r4, r5, r6, lr}
1000495c:	4291      	cmp	r1, r2
1000495e:	d207      	bcs.n	10004970 <tu_edpt_bind_driver+0x18>
10004960:	267f      	movs	r6, #127	@ 0x7f
10004962:	784c      	ldrb	r4, [r1, #1]
10004964:	2c05      	cmp	r4, #5
10004966:	d004      	beq.n	10004972 <tu_edpt_bind_driver+0x1a>
10004968:	780c      	ldrb	r4, [r1, #0]
1000496a:	1909      	adds	r1, r1, r4
1000496c:	428a      	cmp	r2, r1
1000496e:	d8f8      	bhi.n	10004962 <tu_edpt_bind_driver+0xa>
10004970:	bd70      	pop	{r4, r5, r6, pc}
10004972:	0034      	movs	r4, r6
10004974:	788d      	ldrb	r5, [r1, #2]
10004976:	402c      	ands	r4, r5
10004978:	0064      	lsls	r4, r4, #1
1000497a:	1904      	adds	r4, r0, r4
1000497c:	09ed      	lsrs	r5, r5, #7
1000497e:	5563      	strb	r3, [r4, r5]
10004980:	780c      	ldrb	r4, [r1, #0]
10004982:	1909      	adds	r1, r1, r4
10004984:	428a      	cmp	r2, r1
10004986:	d8ec      	bhi.n	10004962 <tu_edpt_bind_driver+0xa>
10004988:	e7f2      	b.n	10004970 <tu_edpt_bind_driver+0x18>
1000498a:	46c0      	nop			@ (mov r8, r8)

1000498c <tu_fifo_read>:
1000498c:	b570      	push	{r4, r5, r6, lr}
1000498e:	0004      	movs	r4, r0
10004990:	6900      	ldr	r0, [r0, #16]
10004992:	000e      	movs	r6, r1
10004994:	2800      	cmp	r0, #0
10004996:	d003      	beq.n	100049a0 <tu_fifo_read+0x14>
10004998:	2101      	movs	r1, #1
1000499a:	4249      	negs	r1, r1
1000499c:	f000 f910 	bl	10004bc0 <__mutex_enter_timeout_ms_veneer>
100049a0:	8925      	ldrh	r5, [r4, #8]
100049a2:	8960      	ldrh	r0, [r4, #10]
100049a4:	88a2      	ldrh	r2, [r4, #4]
100049a6:	b2a9      	uxth	r1, r5
100049a8:	b283      	uxth	r3, r0
100049aa:	4285      	cmp	r5, r0
100049ac:	d32c      	bcc.n	10004a08 <tu_fifo_read+0x7c>
100049ae:	1acd      	subs	r5, r1, r3
100049b0:	b2ad      	uxth	r5, r5
100049b2:	2d00      	cmp	r5, #0
100049b4:	d02e      	beq.n	10004a14 <tu_fifo_read+0x88>
100049b6:	42aa      	cmp	r2, r5
100049b8:	d208      	bcs.n	100049cc <tu_fifo_read+0x40>
100049ba:	4291      	cmp	r1, r2
100049bc:	d330      	bcc.n	10004a20 <tu_fifo_read+0x94>
100049be:	1a89      	subs	r1, r1, r2
100049c0:	b28b      	uxth	r3, r1
100049c2:	8163      	strh	r3, [r4, #10]
100049c4:	429a      	cmp	r2, r3
100049c6:	d803      	bhi.n	100049d0 <tu_fifo_read+0x44>
100049c8:	1a9b      	subs	r3, r3, r2
100049ca:	b29b      	uxth	r3, r3
100049cc:	429a      	cmp	r2, r3
100049ce:	d9fb      	bls.n	100049c8 <tu_fifo_read+0x3c>
100049d0:	88e2      	ldrh	r2, [r4, #6]
100049d2:	6821      	ldr	r1, [r4, #0]
100049d4:	0452      	lsls	r2, r2, #17
100049d6:	0c52      	lsrs	r2, r2, #17
100049d8:	4353      	muls	r3, r2
100049da:	0030      	movs	r0, r6
100049dc:	18c9      	adds	r1, r1, r3
100049de:	f7fe fbd5 	bl	1000318c <__wrap___aeabi_memcpy>
100049e2:	8963      	ldrh	r3, [r4, #10]
100049e4:	2501      	movs	r5, #1
100049e6:	1c59      	adds	r1, r3, #1
100049e8:	b289      	uxth	r1, r1
100049ea:	88a2      	ldrh	r2, [r4, #4]
100049ec:	428b      	cmp	r3, r1
100049ee:	d913      	bls.n	10004a18 <tu_fifo_read+0x8c>
100049f0:	2100      	movs	r1, #0
100049f2:	0052      	lsls	r2, r2, #1
100049f4:	1a89      	subs	r1, r1, r2
100049f6:	b289      	uxth	r1, r1
100049f8:	6920      	ldr	r0, [r4, #16]
100049fa:	8161      	strh	r1, [r4, #10]
100049fc:	2800      	cmp	r0, #0
100049fe:	d001      	beq.n	10004a04 <tu_fifo_read+0x78>
10004a00:	f000 f8b6 	bl	10004b70 <__mutex_exit_veneer>
10004a04:	0028      	movs	r0, r5
10004a06:	bd70      	pop	{r4, r5, r6, pc}
10004a08:	0055      	lsls	r5, r2, #1
10004a0a:	1aed      	subs	r5, r5, r3
10004a0c:	194d      	adds	r5, r1, r5
10004a0e:	b2ad      	uxth	r5, r5
10004a10:	2d00      	cmp	r5, #0
10004a12:	d1d0      	bne.n	100049b6 <tu_fifo_read+0x2a>
10004a14:	8961      	ldrh	r1, [r4, #10]
10004a16:	b289      	uxth	r1, r1
10004a18:	0052      	lsls	r2, r2, #1
10004a1a:	4291      	cmp	r1, r2
10004a1c:	dbec      	blt.n	100049f8 <tu_fifo_read+0x6c>
10004a1e:	e7e9      	b.n	100049f4 <tu_fifo_read+0x68>
10004a20:	1889      	adds	r1, r1, r2
10004a22:	b28b      	uxth	r3, r1
10004a24:	8163      	strh	r3, [r4, #10]
10004a26:	e7cd      	b.n	100049c4 <tu_fifo_read+0x38>

10004a28 <tu_fifo_write>:
10004a28:	b5f8      	push	{r3, r4, r5, r6, r7, lr}
10004a2a:	0004      	movs	r4, r0
10004a2c:	68c0      	ldr	r0, [r0, #12]
10004a2e:	000e      	movs	r6, r1
10004a30:	2800      	cmp	r0, #0
10004a32:	d003      	beq.n	10004a3c <tu_fifo_write+0x14>
10004a34:	2101      	movs	r1, #1
10004a36:	4249      	negs	r1, r1
10004a38:	f000 f8c2 	bl	10004bc0 <__mutex_enter_timeout_ms_veneer>
10004a3c:	8925      	ldrh	r5, [r4, #8]
10004a3e:	8920      	ldrh	r0, [r4, #8]
10004a40:	8961      	ldrh	r1, [r4, #10]
10004a42:	88a2      	ldrh	r2, [r4, #4]
10004a44:	b2ad      	uxth	r5, r5
10004a46:	b283      	uxth	r3, r0
10004a48:	b28f      	uxth	r7, r1
10004a4a:	4288      	cmp	r0, r1
10004a4c:	d329      	bcc.n	10004aa2 <tu_fifo_write+0x7a>
10004a4e:	1bdb      	subs	r3, r3, r7
10004a50:	b29b      	uxth	r3, r3
10004a52:	429a      	cmp	r2, r3
10004a54:	d809      	bhi.n	10004a6a <tu_fifo_write+0x42>
10004a56:	79e7      	ldrb	r7, [r4, #7]
10004a58:	09ff      	lsrs	r7, r7, #7
10004a5a:	d106      	bne.n	10004a6a <tu_fifo_write+0x42>
10004a5c:	68e0      	ldr	r0, [r4, #12]
10004a5e:	2800      	cmp	r0, #0
10004a60:	d001      	beq.n	10004a66 <tu_fifo_write+0x3e>
10004a62:	f000 f885 	bl	10004b70 <__mutex_exit_veneer>
10004a66:	0038      	movs	r0, r7
10004a68:	bdf8      	pop	{r3, r4, r5, r6, r7, pc}
10004a6a:	4295      	cmp	r5, r2
10004a6c:	d31e      	bcc.n	10004aac <tu_fifo_write+0x84>
10004a6e:	002b      	movs	r3, r5
10004a70:	1a9b      	subs	r3, r3, r2
10004a72:	b29b      	uxth	r3, r3
10004a74:	4293      	cmp	r3, r2
10004a76:	d2fb      	bcs.n	10004a70 <tu_fifo_write+0x48>
10004a78:	88e2      	ldrh	r2, [r4, #6]
10004a7a:	6820      	ldr	r0, [r4, #0]
10004a7c:	0452      	lsls	r2, r2, #17
10004a7e:	0c52      	lsrs	r2, r2, #17
10004a80:	4353      	muls	r3, r2
10004a82:	0031      	movs	r1, r6
10004a84:	18c0      	adds	r0, r0, r3
10004a86:	f7fe fb81 	bl	1000318c <__wrap___aeabi_memcpy>
10004a8a:	1c6b      	adds	r3, r5, #1
10004a8c:	b29b      	uxth	r3, r3
10004a8e:	88a2      	ldrh	r2, [r4, #4]
10004a90:	429d      	cmp	r5, r3
10004a92:	d918      	bls.n	10004ac6 <tu_fifo_write+0x9e>
10004a94:	2300      	movs	r3, #0
10004a96:	0052      	lsls	r2, r2, #1
10004a98:	1a9b      	subs	r3, r3, r2
10004a9a:	b29b      	uxth	r3, r3
10004a9c:	2701      	movs	r7, #1
10004a9e:	8123      	strh	r3, [r4, #8]
10004aa0:	e7dc      	b.n	10004a5c <tu_fifo_write+0x34>
10004aa2:	0051      	lsls	r1, r2, #1
10004aa4:	1bc9      	subs	r1, r1, r7
10004aa6:	185b      	adds	r3, r3, r1
10004aa8:	b29b      	uxth	r3, r3
10004aaa:	e7d2      	b.n	10004a52 <tu_fifo_write+0x2a>
10004aac:	002b      	movs	r3, r5
10004aae:	88e2      	ldrh	r2, [r4, #6]
10004ab0:	6820      	ldr	r0, [r4, #0]
10004ab2:	0452      	lsls	r2, r2, #17
10004ab4:	0c52      	lsrs	r2, r2, #17
10004ab6:	4353      	muls	r3, r2
10004ab8:	0031      	movs	r1, r6
10004aba:	18c0      	adds	r0, r0, r3
10004abc:	f7fe fb66 	bl	1000318c <__wrap___aeabi_memcpy>
10004ac0:	3501      	adds	r5, #1
10004ac2:	88a2      	ldrh	r2, [r4, #4]
10004ac4:	b2ab      	uxth	r3, r5
10004ac6:	0052      	lsls	r2, r2, #1
10004ac8:	4293      	cmp	r3, r2
10004aca:	dbe7      	blt.n	10004a9c <tu_fifo_write+0x74>
10004acc:	e7e4      	b.n	10004a98 <tu_fifo_write+0x70>
10004ace:	46c0      	nop			@ (mov r8, r8)

10004ad0 <tu_fifo_clear>:
10004ad0:	b510      	push	{r4, lr}
10004ad2:	0004      	movs	r4, r0
10004ad4:	68c0      	ldr	r0, [r0, #12]
10004ad6:	2800      	cmp	r0, #0
10004ad8:	d003      	beq.n	10004ae2 <tu_fifo_clear+0x12>
10004ada:	2101      	movs	r1, #1
10004adc:	4249      	negs	r1, r1
10004ade:	f000 f86f 	bl	10004bc0 <__mutex_enter_timeout_ms_veneer>
10004ae2:	6920      	ldr	r0, [r4, #16]
10004ae4:	2800      	cmp	r0, #0
10004ae6:	d003      	beq.n	10004af0 <tu_fifo_clear+0x20>
10004ae8:	2101      	movs	r1, #1
10004aea:	4249      	negs	r1, r1
10004aec:	f000 f868 	bl	10004bc0 <__mutex_enter_timeout_ms_veneer>
10004af0:	2300      	movs	r3, #0
10004af2:	68e0      	ldr	r0, [r4, #12]
10004af4:	8163      	strh	r3, [r4, #10]
10004af6:	8123      	strh	r3, [r4, #8]
10004af8:	2800      	cmp	r0, #0
10004afa:	d001      	beq.n	10004b00 <tu_fifo_clear+0x30>
10004afc:	f000 f838 	bl	10004b70 <__mutex_exit_veneer>
10004b00:	6920      	ldr	r0, [r4, #16]
10004b02:	2800      	cmp	r0, #0
10004b04:	d001      	beq.n	10004b0a <tu_fifo_clear+0x3a>
10004b06:	f000 f833 	bl	10004b70 <__mutex_exit_veneer>
10004b0a:	2001      	movs	r0, #1
10004b0c:	bd10      	pop	{r4, pc}
10004b0e:	46c0      	nop			@ (mov r8, r8)

10004b10 <strlen>:
10004b10:	b510      	push	{r4, lr}
10004b12:	0783      	lsls	r3, r0, #30
10004b14:	d00a      	beq.n	10004b2c <strlen+0x1c>
10004b16:	0003      	movs	r3, r0
10004b18:	2103      	movs	r1, #3
10004b1a:	e002      	b.n	10004b22 <strlen+0x12>
10004b1c:	3301      	adds	r3, #1
10004b1e:	420b      	tst	r3, r1
10004b20:	d005      	beq.n	10004b2e <strlen+0x1e>
10004b22:	781a      	ldrb	r2, [r3, #0]
10004b24:	2a00      	cmp	r2, #0
10004b26:	d1f9      	bne.n	10004b1c <strlen+0xc>
10004b28:	1a18      	subs	r0, r3, r0
10004b2a:	bd10      	pop	{r4, pc}
10004b2c:	0003      	movs	r3, r0
10004b2e:	6819      	ldr	r1, [r3, #0]
10004b30:	4a0c      	ldr	r2, [pc, #48]	@ (10004b64 <strlen+0x54>)
10004b32:	4c0d      	ldr	r4, [pc, #52]	@ (10004b68 <strlen+0x58>)
10004b34:	188a      	adds	r2, r1, r2
10004b36:	438a      	bics	r2, r1
10004b38:	4222      	tst	r2, r4
10004b3a:	d10f      	bne.n	10004b5c <strlen+0x4c>
10004b3c:	6859      	ldr	r1, [r3, #4]
10004b3e:	4a09      	ldr	r2, [pc, #36]	@ (10004b64 <strlen+0x54>)
10004b40:	3304      	adds	r3, #4
10004b42:	188a      	adds	r2, r1, r2
10004b44:	438a      	bics	r2, r1
10004b46:	4222      	tst	r2, r4
10004b48:	d108      	bne.n	10004b5c <strlen+0x4c>
10004b4a:	6859      	ldr	r1, [r3, #4]
10004b4c:	4a05      	ldr	r2, [pc, #20]	@ (10004b64 <strlen+0x54>)
10004b4e:	3304      	adds	r3, #4
10004b50:	188a      	adds	r2, r1, r2
10004b52:	438a      	bics	r2, r1
10004b54:	4222      	tst	r2, r4
10004b56:	d0f1      	beq.n	10004b3c <strlen+0x2c>
10004b58:	e000      	b.n	10004b5c <strlen+0x4c>
10004b5a:	3301      	adds	r3, #1
10004b5c:	781a      	ldrb	r2, [r3, #0]
10004b5e:	2a00      	cmp	r2, #0
10004b60:	d1fb      	bne.n	10004b5a <strlen+0x4a>
10004b62:	e7e1      	b.n	10004b28 <strlen+0x18>
10004b64:	fefefeff 	.word	0xfefefeff
10004b68:	80808080 	.word	0x80808080

10004b6c <_fini>:
10004b6c:	b5f8      	push	{r3, r4, r5, r6, r7, lr}
10004b6e:	46c0      	nop			@ (mov r8, r8)

10004b70 <__mutex_exit_veneer>:
10004b70:	b401      	push	{r0}
10004b72:	4802      	ldr	r0, [pc, #8]	@ (10004b7c <__mutex_exit_veneer+0xc>)
10004b74:	4684      	mov	ip, r0
10004b76:	bc01      	pop	{r0}
10004b78:	4760      	bx	ip
10004b7a:	bf00      	nop
10004b7c:	200001ed 	.word	0x200001ed

10004b80 <____aeabi_ldiv0_veneer>:
10004b80:	b401      	push	{r0}
10004b82:	4802      	ldr	r0, [pc, #8]	@ (10004b8c <____aeabi_ldiv0_veneer+0xc>)
10004b84:	4684      	mov	ip, r0
10004b86:	bc01      	pop	{r0}
10004b88:	4760      	bx	ip
10004b8a:	bf00      	nop
10004b8c:	20000d55 	.word	0x20000d55

10004b90 <__reset_non_control_endpoints_veneer>:
10004b90:	b401      	push	{r0}
10004b92:	4802      	ldr	r0, [pc, #8]	@ (10004b9c <__reset_non_control_endpoints_veneer+0xc>)
10004b94:	4684      	mov	ip, r0
10004b96:	bc01      	pop	{r0}
10004b98:	4760      	bx	ip
10004b9a:	bf00      	nop
10004b9c:	20000215 	.word	0x20000215

10004ba0 <____aeabi_idiv0_veneer>:
10004ba0:	b401      	push	{r0}
10004ba2:	4802      	ldr	r0, [pc, #8]	@ (10004bac <____aeabi_idiv0_veneer+0xc>)
10004ba4:	4684      	mov	ip, r0
10004ba6:	bc01      	pop	{r0}
10004ba8:	4760      	bx	ip
10004baa:	bf00      	nop
10004bac:	20000d55 	.word	0x20000d55

10004bb0 <__e15_is_bulkin_ep_veneer>:
10004bb0:	b401      	push	{r0}
10004bb2:	4802      	ldr	r0, [pc, #8]	@ (10004bbc <__e15_is_bulkin_ep_veneer+0xc>)
10004bb4:	4684      	mov	ip, r0
10004bb6:	bc01      	pop	{r0}
10004bb8:	4760      	bx	ip
10004bba:	bf00      	nop
10004bbc:	20000a11 	.word	0x20000a11

10004bc0 <__mutex_enter_timeout_ms_veneer>:
10004bc0:	b401      	push	{r0}
10004bc2:	4802      	ldr	r0, [pc, #8]	@ (10004bcc <__mutex_enter_timeout_ms_veneer+0xc>)
10004bc4:	4684      	mov	ip, r0
10004bc6:	bc01      	pop	{r0}
10004bc8:	4760      	bx	ip
10004bca:	bf00      	nop
10004bcc:	2000015d 	.word	0x2000015d

10004bd0 <__e15_is_critical_frame_period_veneer>:
10004bd0:	b401      	push	{r0}
10004bd2:	4802      	ldr	r0, [pc, #8]	@ (10004bdc <__e15_is_critical_frame_period_veneer+0xc>)
10004bd4:	4684      	mov	ip, r0
10004bd6:	bc01      	pop	{r0}
10004bd8:	4760      	bx	ip
10004bda:	bf00      	nop
10004bdc:	20000a39 	.word	0x20000a39

10004be0 <__mutex_try_enter_block_until_veneer>:
10004be0:	b401      	push	{r0}
10004be2:	4802      	ldr	r0, [pc, #8]	@ (10004bec <__mutex_try_enter_block_until_veneer+0xc>)
10004be4:	4684      	mov	ip, r0
10004be6:	bc01      	pop	{r0}
10004be8:	4760      	bx	ip
10004bea:	bf00      	nop
10004bec:	200000c1 	.word	0x200000c1

10004bf0 <__hw_endpoint_start_next_buffer_veneer>:
10004bf0:	b401      	push	{r0}
10004bf2:	4802      	ldr	r0, [pc, #8]	@ (10004bfc <__hw_endpoint_start_next_buffer_veneer+0xc>)
10004bf4:	4684      	mov	ip, r0
10004bf6:	bc01      	pop	{r0}
10004bf8:	4760      	bx	ip
10004bfa:	bf00      	nop
10004bfc:	20000ac9 	.word	0x20000ac9

10004c00 <___hw_endpoint_buffer_control_update32_veneer>:
10004c00:	b401      	push	{r0}
10004c02:	4802      	ldr	r0, [pc, #8]	@ (10004c0c <___hw_endpoint_buffer_control_update32_veneer+0xc>)
10004c04:	4684      	mov	ip, r0
10004c06:	bc01      	pop	{r0}
10004c08:	4760      	bx	ip
10004c0a:	bf00      	nop
10004c0c:	20000a79 	.word	0x20000a79

10004c10 <__pre_init_runtime_init_early_resets>:
10004c10:	100028fd                                .(..

10004c14 <__pre_init_runtime_init_usb_power_down>:
10004c14:	10002929 10002b0d 10003171 10002fdd     ))...+..q1.../..
10004c24:	100030e1                                .0..

10004c28 <__pre_init_runtime_init_clocks>:
10004c28:	10002a35                                5*..

10004c2c <__pre_init_runtime_init_post_clock_resets>:
10004c2c:	10002945                                E)..

10004c30 <__pre_init_runtime_init_rp2040_gpio_ie_disable>:
10004c30:	10002965                                e)..

10004c34 <__pre_init_runtime_init_spin_locks_reset>:
10004c34:	10002979                                y)..

10004c38 <__pre_init_runtime_init_mutex>:
10004c38:	10001d61                                a...

10004c3c <__pre_init_runtime_init_install_ram_vector_table>:
10004c3c:	10002981                                .)..

10004c40 <__pre_init_runtime_init_default_alarm_pool>:
10004c40:	10002115                                .!..

10004c44 <__pre_init_first_per_core_initializer>:
10004c44:	100028c5                                .(..

10004c48 <__pre_init_runtime_init_per_core_irq_priorities>:
10004c48:	10001839                                9...

10004c4c <__frame_dummy_init_array_entry>:
10004c4c:	100002b1                                ....

Disassembly of section .data:

200000c0 <mutex_try_enter_block_until>:
200000c0:	b5f0      	push	{r4, r5, r6, r7, lr}
200000c2:	46c6      	mov	lr, r8
200000c4:	0015      	movs	r5, r2
200000c6:	b500      	push	{lr}
200000c8:	0004      	movs	r4, r0
200000ca:	001e      	movs	r6, r3
200000cc:	6802      	ldr	r2, [r0, #0]
200000ce:	f3ef 8110 	mrs	r1, PRIMASK
200000d2:	b672      	cpsid	i
200000d4:	6813      	ldr	r3, [r2, #0]
200000d6:	2b00      	cmp	r3, #0
200000d8:	d0fc      	beq.n	200000d4 <mutex_try_enter_block_until+0x14>
200000da:	f3bf 8f5f 	dmb	sy
200000de:	2304      	movs	r3, #4
200000e0:	56e3      	ldrsb	r3, [r4, r3]
200000e2:	2b00      	cmp	r3, #0
200000e4:	db2d      	blt.n	20000142 <mutex_try_enter_block_until+0x82>
200000e6:	6822      	ldr	r2, [r4, #0]
200000e8:	f3bf 8f5f 	dmb	sy
200000ec:	2000      	movs	r0, #0
200000ee:	6010      	str	r0, [r2, #0]
200000f0:	f381 8810 	msr	PRIMASK, r1
200000f4:	22d0      	movs	r2, #208	@ 0xd0
200000f6:	0612      	lsls	r2, r2, #24
200000f8:	7812      	ldrb	r2, [r2, #0]
200000fa:	b252      	sxtb	r2, r2
200000fc:	4690      	mov	r8, r2
200000fe:	429a      	cmp	r2, r3
20000100:	d103      	bne.n	2000010a <mutex_try_enter_block_until+0x4a>
20000102:	2000      	movs	r0, #0
20000104:	bc80      	pop	{r7}
20000106:	46b8      	mov	r8, r7
20000108:	bdf0      	pop	{r4, r5, r6, r7, pc}
2000010a:	2700      	movs	r7, #0
2000010c:	e00b      	b.n	20000126 <mutex_try_enter_block_until+0x66>
2000010e:	6823      	ldr	r3, [r4, #0]
20000110:	f3bf 8f5f 	dmb	sy
20000114:	601f      	str	r7, [r3, #0]
20000116:	f381 8810 	msr	PRIMASK, r1
2000011a:	0028      	movs	r0, r5
2000011c:	0031      	movs	r1, r6
2000011e:	f000 fe53 	bl	20000dc8 <__best_effort_wfe_or_timeout_veneer>
20000122:	2800      	cmp	r0, #0
20000124:	d1ed      	bne.n	20000102 <mutex_try_enter_block_until+0x42>
20000126:	6822      	ldr	r2, [r4, #0]
20000128:	f3ef 8110 	mrs	r1, PRIMASK
2000012c:	b672      	cpsid	i
2000012e:	6813      	ldr	r3, [r2, #0]
20000130:	2b00      	cmp	r3, #0
20000132:	d0fc      	beq.n	2000012e <mutex_try_enter_block_until+0x6e>
20000134:	f3bf 8f5f 	dmb	sy
20000138:	7923      	ldrb	r3, [r4, #4]
2000013a:	2b7f      	cmp	r3, #127	@ 0x7f
2000013c:	d9e7      	bls.n	2000010e <mutex_try_enter_block_until+0x4e>
2000013e:	4643      	mov	r3, r8
20000140:	e002      	b.n	20000148 <mutex_try_enter_block_until+0x88>
20000142:	23d0      	movs	r3, #208	@ 0xd0
20000144:	061b      	lsls	r3, r3, #24
20000146:	681b      	ldr	r3, [r3, #0]
20000148:	7123      	strb	r3, [r4, #4]
2000014a:	6823      	ldr	r3, [r4, #0]
2000014c:	f3bf 8f5f 	dmb	sy
20000150:	2200      	movs	r2, #0
20000152:	601a      	str	r2, [r3, #0]
20000154:	f381 8810 	msr	PRIMASK, r1
20000158:	2001      	movs	r0, #1
2000015a:	e7d3      	b.n	20000104 <mutex_try_enter_block_until+0x44>

2000015c <mutex_enter_timeout_ms>:
2000015c:	b5f0      	push	{r4, r5, r6, r7, lr}
2000015e:	46c6      	mov	lr, r8
20000160:	b500      	push	{lr}
20000162:	000d      	movs	r5, r1
20000164:	0004      	movs	r4, r0
20000166:	f000 fdf7 	bl	20000d58 <__time_us_64_veneer>
2000016a:	22fa      	movs	r2, #250	@ 0xfa
2000016c:	0006      	movs	r6, r0
2000016e:	000f      	movs	r7, r1
20000170:	2300      	movs	r3, #0
20000172:	0028      	movs	r0, r5
20000174:	2100      	movs	r1, #0
20000176:	0092      	lsls	r2, r2, #2
20000178:	f000 fe0e 	bl	20000d98 <____wrap___aeabi_lmul_veneer>
2000017c:	2380      	movs	r3, #128	@ 0x80
2000017e:	1836      	adds	r6, r6, r0
20000180:	414f      	adcs	r7, r1
20000182:	061b      	lsls	r3, r3, #24
20000184:	429f      	cmp	r7, r3
20000186:	d302      	bcc.n	2000018e <mutex_enter_timeout_ms+0x32>
20000188:	2601      	movs	r6, #1
2000018a:	4f17      	ldr	r7, [pc, #92]	@ (200001e8 <mutex_enter_timeout_ms+0x8c>)
2000018c:	4276      	negs	r6, r6
2000018e:	23d0      	movs	r3, #208	@ 0xd0
20000190:	061b      	lsls	r3, r3, #24
20000192:	681b      	ldr	r3, [r3, #0]
20000194:	2500      	movs	r5, #0
20000196:	4698      	mov	r8, r3
20000198:	e00b      	b.n	200001b2 <mutex_enter_timeout_ms+0x56>
2000019a:	6823      	ldr	r3, [r4, #0]
2000019c:	f3bf 8f5f 	dmb	sy
200001a0:	601d      	str	r5, [r3, #0]
200001a2:	f381 8810 	msr	PRIMASK, r1
200001a6:	0030      	movs	r0, r6
200001a8:	0039      	movs	r1, r7
200001aa:	f000 fe0d 	bl	20000dc8 <__best_effort_wfe_or_timeout_veneer>
200001ae:	2800      	cmp	r0, #0
200001b0:	d118      	bne.n	200001e4 <mutex_enter_timeout_ms+0x88>
200001b2:	6822      	ldr	r2, [r4, #0]
200001b4:	f3ef 8110 	mrs	r1, PRIMASK
200001b8:	b672      	cpsid	i
200001ba:	6813      	ldr	r3, [r2, #0]
200001bc:	2b00      	cmp	r3, #0
200001be:	d0fc      	beq.n	200001ba <mutex_enter_timeout_ms+0x5e>
200001c0:	f3bf 8f5f 	dmb	sy
200001c4:	7923      	ldrb	r3, [r4, #4]
200001c6:	2b7f      	cmp	r3, #127	@ 0x7f
200001c8:	d9e7      	bls.n	2000019a <mutex_enter_timeout_ms+0x3e>
200001ca:	4643      	mov	r3, r8
200001cc:	7123      	strb	r3, [r4, #4]
200001ce:	6823      	ldr	r3, [r4, #0]
200001d0:	f3bf 8f5f 	dmb	sy
200001d4:	2200      	movs	r2, #0
200001d6:	601a      	str	r2, [r3, #0]
200001d8:	f381 8810 	msr	PRIMASK, r1
200001dc:	2001      	movs	r0, #1
200001de:	bc80      	pop	{r7}
200001e0:	46b8      	mov	r8, r7
200001e2:	bdf0      	pop	{r4, r5, r6, r7, pc}
200001e4:	2000      	movs	r0, #0
200001e6:	e7fa      	b.n	200001de <mutex_enter_timeout_ms+0x82>
200001e8:	7fffffff 	.word	0x7fffffff

200001ec <mutex_exit>:
200001ec:	6802      	ldr	r2, [r0, #0]
200001ee:	f3ef 8110 	mrs	r1, PRIMASK
200001f2:	b672      	cpsid	i
200001f4:	6813      	ldr	r3, [r2, #0]
200001f6:	2b00      	cmp	r3, #0
200001f8:	d0fc      	beq.n	200001f4 <mutex_exit+0x8>
200001fa:	f3bf 8f5f 	dmb	sy
200001fe:	23ff      	movs	r3, #255	@ 0xff
20000200:	7103      	strb	r3, [r0, #4]
20000202:	6803      	ldr	r3, [r0, #0]
20000204:	f3bf 8f5f 	dmb	sy
20000208:	2200      	movs	r2, #0
2000020a:	601a      	str	r2, [r3, #0]
2000020c:	f381 8810 	msr	PRIMASK, r1
20000210:	bf40      	sev
20000212:	4770      	bx	lr

20000214 <reset_non_control_endpoints>:
20000214:	2200      	movs	r2, #0
20000216:	4b15      	ldr	r3, [pc, #84]	@ (2000026c <reset_non_control_endpoints+0x58>)
20000218:	b510      	push	{r4, lr}
2000021a:	609a      	str	r2, [r3, #8]
2000021c:	60da      	str	r2, [r3, #12]
2000021e:	611a      	str	r2, [r3, #16]
20000220:	615a      	str	r2, [r3, #20]
20000222:	619a      	str	r2, [r3, #24]
20000224:	61da      	str	r2, [r3, #28]
20000226:	621a      	str	r2, [r3, #32]
20000228:	625a      	str	r2, [r3, #36]	@ 0x24
2000022a:	629a      	str	r2, [r3, #40]	@ 0x28
2000022c:	62da      	str	r2, [r3, #44]	@ 0x2c
2000022e:	631a      	str	r2, [r3, #48]	@ 0x30
20000230:	635a      	str	r2, [r3, #52]	@ 0x34
20000232:	639a      	str	r2, [r3, #56]	@ 0x38
20000234:	63da      	str	r2, [r3, #60]	@ 0x3c
20000236:	641a      	str	r2, [r3, #64]	@ 0x40
20000238:	645a      	str	r2, [r3, #68]	@ 0x44
2000023a:	649a      	str	r2, [r3, #72]	@ 0x48
2000023c:	64da      	str	r2, [r3, #76]	@ 0x4c
2000023e:	651a      	str	r2, [r3, #80]	@ 0x50
20000240:	655a      	str	r2, [r3, #84]	@ 0x54
20000242:	659a      	str	r2, [r3, #88]	@ 0x58
20000244:	65da      	str	r2, [r3, #92]	@ 0x5c
20000246:	661a      	str	r2, [r3, #96]	@ 0x60
20000248:	665a      	str	r2, [r3, #100]	@ 0x64
2000024a:	669a      	str	r2, [r3, #104]	@ 0x68
2000024c:	66da      	str	r2, [r3, #108]	@ 0x6c
2000024e:	671a      	str	r2, [r3, #112]	@ 0x70
20000250:	675a      	str	r2, [r3, #116]	@ 0x74
20000252:	679a      	str	r2, [r3, #120]	@ 0x78
20000254:	67da      	str	r2, [r3, #124]	@ 0x7c
20000256:	32f0      	adds	r2, #240	@ 0xf0
20000258:	0092      	lsls	r2, r2, #2
2000025a:	2100      	movs	r1, #0
2000025c:	4804      	ldr	r0, [pc, #16]	@ (20000270 <reset_non_control_endpoints+0x5c>)
2000025e:	f000 fdab 	bl	20000db8 <____wrap_memset_veneer>
20000262:	4b04      	ldr	r3, [pc, #16]	@ (20000274 <reset_non_control_endpoints+0x60>)
20000264:	4a04      	ldr	r2, [pc, #16]	@ (20000278 <reset_non_control_endpoints+0x64>)
20000266:	601a      	str	r2, [r3, #0]
20000268:	bd10      	pop	{r4, pc}
2000026a:	46c0      	nop			@ (mov r8, r8)
2000026c:	50100000 	.word	0x50100000
20000270:	20001748 	.word	0x20001748
20000274:	20001b0c 	.word	0x20001b0c
20000278:	50100180 	.word	0x50100180

2000027c <hw_handle_buff_status>:
2000027c:	b5f0      	push	{r4, r5, r6, r7, lr}
2000027e:	464e      	mov	r6, r9
20000280:	4645      	mov	r5, r8
20000282:	46de      	mov	lr, fp
20000284:	4657      	mov	r7, sl
20000286:	b5e0      	push	{r5, r6, r7, lr}
20000288:	4b21      	ldr	r3, [pc, #132]	@ (20000310 <hw_handle_buff_status+0x94>)
2000028a:	2400      	movs	r4, #0
2000028c:	6d9e      	ldr	r6, [r3, #88]	@ 0x58
2000028e:	2501      	movs	r5, #1
20000290:	b085      	sub	sp, #20
20000292:	2e00      	cmp	r6, #0
20000294:	d022      	beq.n	200002dc <hw_handle_buff_status+0x60>
20000296:	4b1f      	ldr	r3, [pc, #124]	@ (20000314 <hw_handle_buff_status+0x98>)
20000298:	469a      	mov	sl, r3
2000029a:	2301      	movs	r3, #1
2000029c:	4699      	mov	r9, r3
2000029e:	4b1e      	ldr	r3, [pc, #120]	@ (20000318 <hw_handle_buff_status+0x9c>)
200002a0:	4698      	mov	r8, r3
200002a2:	e001      	b.n	200002a8 <hw_handle_buff_status+0x2c>
200002a4:	2c20      	cmp	r4, #32
200002a6:	d019      	beq.n	200002dc <hw_handle_buff_status+0x60>
200002a8:	002a      	movs	r2, r5
200002aa:	0023      	movs	r3, r4
200002ac:	3401      	adds	r4, #1
200002ae:	002f      	movs	r7, r5
200002b0:	4032      	ands	r2, r6
200002b2:	b2e4      	uxtb	r4, r4
200002b4:	006d      	lsls	r5, r5, #1
200002b6:	2a00      	cmp	r2, #0
200002b8:	d0f4      	beq.n	200002a4 <hw_handle_buff_status+0x28>
200002ba:	4652      	mov	r2, sl
200002bc:	6597      	str	r7, [r2, #88]	@ 0x58
200002be:	464a      	mov	r2, r9
200002c0:	085b      	lsrs	r3, r3, #1
200002c2:	005b      	lsls	r3, r3, #1
200002c4:	4022      	ands	r2, r4
200002c6:	189b      	adds	r3, r3, r2
200002c8:	015b      	lsls	r3, r3, #5
200002ca:	4443      	add	r3, r8
200002cc:	0018      	movs	r0, r3
200002ce:	469b      	mov	fp, r3
200002d0:	f000 fc30 	bl	20000b34 <hw_endpoint_xfer_continue>
200002d4:	2800      	cmp	r0, #0
200002d6:	d108      	bne.n	200002ea <hw_handle_buff_status+0x6e>
200002d8:	43be      	bics	r6, r7
200002da:	d1e3      	bne.n	200002a4 <hw_handle_buff_status+0x28>
200002dc:	b005      	add	sp, #20
200002de:	bcf0      	pop	{r4, r5, r6, r7}
200002e0:	46bb      	mov	fp, r7
200002e2:	46b2      	mov	sl, r6
200002e4:	46a9      	mov	r9, r5
200002e6:	46a0      	mov	r8, r4
200002e8:	bdf0      	pop	{r4, r5, r6, r7, pc}
200002ea:	465b      	mov	r3, fp
200002ec:	21e0      	movs	r1, #224	@ 0xe0
200002ee:	789a      	ldrb	r2, [r3, #2]
200002f0:	8adb      	ldrh	r3, [r3, #22]
200002f2:	a801      	add	r0, sp, #4
200002f4:	6083      	str	r3, [r0, #8]
200002f6:	2300      	movs	r3, #0
200002f8:	00c9      	lsls	r1, r1, #3
200002fa:	8001      	strh	r1, [r0, #0]
200002fc:	2101      	movs	r1, #1
200002fe:	7102      	strb	r2, [r0, #4]
20000300:	7143      	strb	r3, [r0, #5]
20000302:	f000 fc37 	bl	20000b74 <dcd_event_handler>
20000306:	4658      	mov	r0, fp
20000308:	f000 fbb0 	bl	20000a6c <hw_endpoint_reset_transfer>
2000030c:	e7e4      	b.n	200002d8 <hw_handle_buff_status+0x5c>
2000030e:	46c0      	nop			@ (mov r8, r8)
20000310:	50110000 	.word	0x50110000
20000314:	50113000 	.word	0x50113000
20000318:	20001708 	.word	0x20001708

2000031c <dcd_rp2040_irq>:
2000031c:	2398      	movs	r3, #152	@ 0x98
2000031e:	b5f0      	push	{r4, r5, r6, r7, lr}
20000320:	46c6      	mov	lr, r8
20000322:	4ac6      	ldr	r2, [pc, #792]	@ (2000063c <dcd_rp2040_irq+0x320>)
20000324:	b500      	push	{lr}
20000326:	58d5      	ldr	r5, [r2, r3]
20000328:	2380      	movs	r3, #128	@ 0x80
2000032a:	002e      	movs	r6, r5
2000032c:	029b      	lsls	r3, r3, #10
2000032e:	2410      	movs	r4, #16
20000330:	b084      	sub	sp, #16
20000332:	401e      	ands	r6, r3
20000334:	421d      	tst	r5, r3
20000336:	d073      	beq.n	20000420 <dcd_rp2040_irq+0x104>
20000338:	4bc1      	ldr	r3, [pc, #772]	@ (20000640 <dcd_rp2040_irq+0x324>)
2000033a:	4cc2      	ldr	r4, [pc, #776]	@ (20000644 <dcd_rp2040_irq+0x328>)
2000033c:	6a9a      	ldr	r2, [r3, #40]	@ 0x28
2000033e:	4bc2      	ldr	r3, [pc, #776]	@ (20000648 <dcd_rp2040_irq+0x32c>)
20000340:	2600      	movs	r6, #0
20000342:	601a      	str	r2, [r3, #0]
20000344:	233b      	movs	r3, #59	@ 0x3b
20000346:	5ce3      	ldrb	r3, [r4, r3]
20000348:	2b02      	cmp	r3, #2
2000034a:	d100      	bne.n	2000034e <dcd_rp2040_irq+0x32>
2000034c:	e0f4      	b.n	20000538 <dcd_rp2040_irq+0x21c>
2000034e:	237b      	movs	r3, #123	@ 0x7b
20000350:	5ce3      	ldrb	r3, [r4, r3]
20000352:	2b02      	cmp	r3, #2
20000354:	d100      	bne.n	20000358 <dcd_rp2040_irq+0x3c>
20000356:	e10c      	b.n	20000572 <dcd_rp2040_irq+0x256>
20000358:	23bb      	movs	r3, #187	@ 0xbb
2000035a:	5ce3      	ldrb	r3, [r4, r3]
2000035c:	2b02      	cmp	r3, #2
2000035e:	d100      	bne.n	20000362 <dcd_rp2040_irq+0x46>
20000360:	e0fb      	b.n	2000055a <dcd_rp2040_irq+0x23e>
20000362:	23fb      	movs	r3, #251	@ 0xfb
20000364:	5ce3      	ldrb	r3, [r4, r3]
20000366:	2b02      	cmp	r3, #2
20000368:	d100      	bne.n	2000036c <dcd_rp2040_irq+0x50>
2000036a:	e135      	b.n	200005d8 <dcd_rp2040_irq+0x2bc>
2000036c:	233c      	movs	r3, #60	@ 0x3c
2000036e:	33ff      	adds	r3, #255	@ 0xff
20000370:	5ce3      	ldrb	r3, [r4, r3]
20000372:	2b02      	cmp	r3, #2
20000374:	d100      	bne.n	20000378 <dcd_rp2040_irq+0x5c>
20000376:	e122      	b.n	200005be <dcd_rp2040_irq+0x2a2>
20000378:	237c      	movs	r3, #124	@ 0x7c
2000037a:	33ff      	adds	r3, #255	@ 0xff
2000037c:	5ce3      	ldrb	r3, [r4, r3]
2000037e:	2b02      	cmp	r3, #2
20000380:	d100      	bne.n	20000384 <dcd_rp2040_irq+0x68>
20000382:	e10f      	b.n	200005a4 <dcd_rp2040_irq+0x288>
20000384:	23bc      	movs	r3, #188	@ 0xbc
20000386:	33ff      	adds	r3, #255	@ 0xff
20000388:	5ce3      	ldrb	r3, [r4, r3]
2000038a:	2b02      	cmp	r3, #2
2000038c:	d100      	bne.n	20000390 <dcd_rp2040_irq+0x74>
2000038e:	e0fc      	b.n	2000058a <dcd_rp2040_irq+0x26e>
20000390:	23fc      	movs	r3, #252	@ 0xfc
20000392:	33ff      	adds	r3, #255	@ 0xff
20000394:	5ce3      	ldrb	r3, [r4, r3]
20000396:	2b02      	cmp	r3, #2
20000398:	d100      	bne.n	2000039c <dcd_rp2040_irq+0x80>
2000039a:	e1a6      	b.n	200006ea <dcd_rp2040_irq+0x3ce>
2000039c:	4bab      	ldr	r3, [pc, #684]	@ (2000064c <dcd_rp2040_irq+0x330>)
2000039e:	5ce3      	ldrb	r3, [r4, r3]
200003a0:	2b02      	cmp	r3, #2
200003a2:	d100      	bne.n	200003a6 <dcd_rp2040_irq+0x8a>
200003a4:	e196      	b.n	200006d4 <dcd_rp2040_irq+0x3b8>
200003a6:	4baa      	ldr	r3, [pc, #680]	@ (20000650 <dcd_rp2040_irq+0x334>)
200003a8:	5ce3      	ldrb	r3, [r4, r3]
200003aa:	2b02      	cmp	r3, #2
200003ac:	d100      	bne.n	200003b0 <dcd_rp2040_irq+0x94>
200003ae:	e185      	b.n	200006bc <dcd_rp2040_irq+0x3a0>
200003b0:	4ba8      	ldr	r3, [pc, #672]	@ (20000654 <dcd_rp2040_irq+0x338>)
200003b2:	5ce3      	ldrb	r3, [r4, r3]
200003b4:	2b02      	cmp	r3, #2
200003b6:	d100      	bne.n	200003ba <dcd_rp2040_irq+0x9e>
200003b8:	e174      	b.n	200006a4 <dcd_rp2040_irq+0x388>
200003ba:	4ba7      	ldr	r3, [pc, #668]	@ (20000658 <dcd_rp2040_irq+0x33c>)
200003bc:	5ce3      	ldrb	r3, [r4, r3]
200003be:	2b02      	cmp	r3, #2
200003c0:	d100      	bne.n	200003c4 <dcd_rp2040_irq+0xa8>
200003c2:	e163      	b.n	2000068c <dcd_rp2040_irq+0x370>
200003c4:	4ba5      	ldr	r3, [pc, #660]	@ (2000065c <dcd_rp2040_irq+0x340>)
200003c6:	5ce3      	ldrb	r3, [r4, r3]
200003c8:	2b02      	cmp	r3, #2
200003ca:	d100      	bne.n	200003ce <dcd_rp2040_irq+0xb2>
200003cc:	e12a      	b.n	20000624 <dcd_rp2040_irq+0x308>
200003ce:	4ba4      	ldr	r3, [pc, #656]	@ (20000660 <dcd_rp2040_irq+0x344>)
200003d0:	5ce3      	ldrb	r3, [r4, r3]
200003d2:	2b02      	cmp	r3, #2
200003d4:	d100      	bne.n	200003d8 <dcd_rp2040_irq+0xbc>
200003d6:	e10b      	b.n	200005f0 <dcd_rp2040_irq+0x2d4>
200003d8:	4ba2      	ldr	r3, [pc, #648]	@ (20000664 <dcd_rp2040_irq+0x348>)
200003da:	5ce3      	ldrb	r3, [r4, r3]
200003dc:	2b02      	cmp	r3, #2
200003de:	d100      	bne.n	200003e2 <dcd_rp2040_irq+0xc6>
200003e0:	e18f      	b.n	20000702 <dcd_rp2040_irq+0x3e6>
200003e2:	4ba1      	ldr	r3, [pc, #644]	@ (20000668 <dcd_rp2040_irq+0x34c>)
200003e4:	5ce3      	ldrb	r3, [r4, r3]
200003e6:	2b02      	cmp	r3, #2
200003e8:	d100      	bne.n	200003ec <dcd_rp2040_irq+0xd0>
200003ea:	e1a6      	b.n	2000073a <dcd_rp2040_irq+0x41e>
200003ec:	2e00      	cmp	r6, #0
200003ee:	d108      	bne.n	20000402 <dcd_rp2040_irq+0xe6>
200003f0:	4b9e      	ldr	r3, [pc, #632]	@ (2000066c <dcd_rp2040_irq+0x350>)
200003f2:	781b      	ldrb	r3, [r3, #0]
200003f4:	2b00      	cmp	r3, #0
200003f6:	d104      	bne.n	20000402 <dcd_rp2040_irq+0xe6>
200003f8:	2180      	movs	r1, #128	@ 0x80
200003fa:	4a9d      	ldr	r2, [pc, #628]	@ (20000670 <dcd_rp2040_irq+0x354>)
200003fc:	3390      	adds	r3, #144	@ 0x90
200003fe:	0289      	lsls	r1, r1, #10
20000400:	50d1      	str	r1, [r2, r3]
20000402:	22c0      	movs	r2, #192	@ 0xc0
20000404:	4b8d      	ldr	r3, [pc, #564]	@ (2000063c <dcd_rp2040_irq+0x320>)
20000406:	a801      	add	r0, sp, #4
20000408:	6c9b      	ldr	r3, [r3, #72]	@ 0x48
2000040a:	0092      	lsls	r2, r2, #2
2000040c:	055b      	lsls	r3, r3, #21
2000040e:	0d5b      	lsrs	r3, r3, #21
20000410:	2101      	movs	r1, #1
20000412:	2680      	movs	r6, #128	@ 0x80
20000414:	8002      	strh	r2, [r0, #0]
20000416:	6043      	str	r3, [r0, #4]
20000418:	f000 fbac 	bl	20000b74 <dcd_event_handler>
2000041c:	4c95      	ldr	r4, [pc, #596]	@ (20000674 <dcd_rp2040_irq+0x358>)
2000041e:	02b6      	lsls	r6, r6, #10
20000420:	06eb      	lsls	r3, r5, #27
20000422:	d500      	bpl.n	20000426 <dcd_rp2040_irq+0x10a>
20000424:	e07c      	b.n	20000520 <dcd_rp2040_irq+0x204>
20000426:	2380      	movs	r3, #128	@ 0x80
20000428:	025b      	lsls	r3, r3, #9
2000042a:	421d      	tst	r5, r3
2000042c:	d032      	beq.n	20000494 <dcd_rp2040_irq+0x178>
2000042e:	431e      	orrs	r6, r3
20000430:	2301      	movs	r3, #1
20000432:	2402      	movs	r4, #2
20000434:	4698      	mov	r8, r3
20000436:	4f83      	ldr	r7, [pc, #524]	@ (20000644 <dcd_rp2040_irq+0x328>)
20000438:	7ebb      	ldrb	r3, [r7, #26]
2000043a:	2b00      	cmp	r3, #0
2000043c:	d014      	beq.n	20000468 <dcd_rp2040_irq+0x14c>
2000043e:	f000 fcb3 	bl	20000da8 <__rp2040_chip_version_veneer>
20000442:	2801      	cmp	r0, #1
20000444:	d900      	bls.n	20000448 <dcd_rp2040_irq+0x12c>
20000446:	e06f      	b.n	20000528 <dcd_rp2040_irq+0x20c>
20000448:	22c0      	movs	r2, #192	@ 0xc0
2000044a:	2100      	movs	r1, #0
2000044c:	0038      	movs	r0, r7
2000044e:	0192      	lsls	r2, r2, #6
20000450:	f000 fb12 	bl	20000a78 <_hw_endpoint_buffer_control_update32>
20000454:	0038      	movs	r0, r7
20000456:	f000 fb09 	bl	20000a6c <hw_endpoint_reset_transfer>
2000045a:	f000 fca5 	bl	20000da8 <__rp2040_chip_version_veneer>
2000045e:	2801      	cmp	r0, #1
20000460:	d902      	bls.n	20000468 <dcd_rp2040_irq+0x14c>
20000462:	4b83      	ldr	r3, [pc, #524]	@ (20000670 <dcd_rp2040_irq+0x354>)
20000464:	665c      	str	r4, [r3, #100]	@ 0x64
20000466:	661c      	str	r4, [r3, #96]	@ 0x60
20000468:	4643      	mov	r3, r8
2000046a:	70fb      	strb	r3, [r7, #3]
2000046c:	3720      	adds	r7, #32
2000046e:	2c01      	cmp	r4, #1
20000470:	d001      	beq.n	20000476 <dcd_rp2040_irq+0x15a>
20000472:	2401      	movs	r4, #1
20000474:	e7e0      	b.n	20000438 <dcd_rp2040_irq+0x11c>
20000476:	23c0      	movs	r3, #192	@ 0xc0
20000478:	a801      	add	r0, sp, #4
2000047a:	00db      	lsls	r3, r3, #3
2000047c:	4a7e      	ldr	r2, [pc, #504]	@ (20000678 <dcd_rp2040_irq+0x35c>)
2000047e:	8003      	strh	r3, [r0, #0]
20000480:	ab02      	add	r3, sp, #8
20000482:	ca12      	ldmia	r2!, {r1, r4}
20000484:	c312      	stmia	r3!, {r1, r4}
20000486:	2101      	movs	r1, #1
20000488:	f000 fb74 	bl	20000b74 <dcd_event_handler>
2000048c:	2280      	movs	r2, #128	@ 0x80
2000048e:	4b78      	ldr	r3, [pc, #480]	@ (20000670 <dcd_rp2040_irq+0x354>)
20000490:	0292      	lsls	r2, r2, #10
20000492:	651a      	str	r2, [r3, #80]	@ 0x50
20000494:	2380      	movs	r3, #128	@ 0x80
20000496:	015b      	lsls	r3, r3, #5
20000498:	421d      	tst	r5, r3
2000049a:	d10e      	bne.n	200004ba <dcd_rp2040_irq+0x19e>
2000049c:	2380      	movs	r3, #128	@ 0x80
2000049e:	01db      	lsls	r3, r3, #7
200004a0:	421d      	tst	r5, r3
200004a2:	d121      	bne.n	200004e8 <dcd_rp2040_irq+0x1cc>
200004a4:	2380      	movs	r3, #128	@ 0x80
200004a6:	021b      	lsls	r3, r3, #8
200004a8:	421d      	tst	r5, r3
200004aa:	d12c      	bne.n	20000506 <dcd_rp2040_irq+0x1ea>
200004ac:	42ae      	cmp	r6, r5
200004ae:	d000      	beq.n	200004b2 <dcd_rp2040_irq+0x196>
200004b0:	e1c0      	b.n	20000834 <dcd_rp2040_irq+0x518>
200004b2:	b004      	add	sp, #16
200004b4:	bc80      	pop	{r7}
200004b6:	46b8      	mov	r8, r7
200004b8:	bdf0      	pop	{r4, r5, r6, r7, pc}
200004ba:	2400      	movs	r4, #0
200004bc:	431e      	orrs	r6, r3
200004be:	4b5f      	ldr	r3, [pc, #380]	@ (2000063c <dcd_rp2040_irq+0x320>)
200004c0:	601c      	str	r4, [r3, #0]
200004c2:	f7ff fea7 	bl	20000214 <reset_non_control_endpoints>
200004c6:	2380      	movs	r3, #128	@ 0x80
200004c8:	466a      	mov	r2, sp
200004ca:	005b      	lsls	r3, r3, #1
200004cc:	8093      	strh	r3, [r2, #4]
200004ce:	7214      	strb	r4, [r2, #8]
200004d0:	2101      	movs	r1, #1
200004d2:	a801      	add	r0, sp, #4
200004d4:	f000 fb4e 	bl	20000b74 <dcd_event_handler>
200004d8:	2280      	movs	r2, #128	@ 0x80
200004da:	4b65      	ldr	r3, [pc, #404]	@ (20000670 <dcd_rp2040_irq+0x354>)
200004dc:	0312      	lsls	r2, r2, #12
200004de:	651a      	str	r2, [r3, #80]	@ 0x50
200004e0:	2380      	movs	r3, #128	@ 0x80
200004e2:	01db      	lsls	r3, r3, #7
200004e4:	421d      	tst	r5, r3
200004e6:	d0dd      	beq.n	200004a4 <dcd_rp2040_irq+0x188>
200004e8:	431e      	orrs	r6, r3
200004ea:	2380      	movs	r3, #128	@ 0x80
200004ec:	a801      	add	r0, sp, #4
200004ee:	00db      	lsls	r3, r3, #3
200004f0:	8003      	strh	r3, [r0, #0]
200004f2:	2101      	movs	r1, #1
200004f4:	f000 fb3e 	bl	20000b74 <dcd_event_handler>
200004f8:	2210      	movs	r2, #16
200004fa:	4b5d      	ldr	r3, [pc, #372]	@ (20000670 <dcd_rp2040_irq+0x354>)
200004fc:	651a      	str	r2, [r3, #80]	@ 0x50
200004fe:	2380      	movs	r3, #128	@ 0x80
20000500:	021b      	lsls	r3, r3, #8
20000502:	421d      	tst	r5, r3
20000504:	d0d2      	beq.n	200004ac <dcd_rp2040_irq+0x190>
20000506:	431e      	orrs	r6, r3
20000508:	23a0      	movs	r3, #160	@ 0xa0
2000050a:	a801      	add	r0, sp, #4
2000050c:	00db      	lsls	r3, r3, #3
2000050e:	8003      	strh	r3, [r0, #0]
20000510:	2101      	movs	r1, #1
20000512:	f000 fb2f 	bl	20000b74 <dcd_event_handler>
20000516:	2280      	movs	r2, #128	@ 0x80
20000518:	4b55      	ldr	r3, [pc, #340]	@ (20000670 <dcd_rp2040_irq+0x354>)
2000051a:	0112      	lsls	r2, r2, #4
2000051c:	651a      	str	r2, [r3, #80]	@ 0x50
2000051e:	e7c5      	b.n	200004ac <dcd_rp2040_irq+0x190>
20000520:	f7ff feac 	bl	2000027c <hw_handle_buff_status>
20000524:	0026      	movs	r6, r4
20000526:	e77e      	b.n	20000426 <dcd_rp2040_irq+0x10a>
20000528:	4b54      	ldr	r3, [pc, #336]	@ (2000067c <dcd_rp2040_irq+0x360>)
2000052a:	4a44      	ldr	r2, [pc, #272]	@ (2000063c <dcd_rp2040_irq+0x320>)
2000052c:	661c      	str	r4, [r3, #96]	@ 0x60
2000052e:	6e53      	ldr	r3, [r2, #100]	@ 0x64
20000530:	4023      	ands	r3, r4
20000532:	42a3      	cmp	r3, r4
20000534:	d1fb      	bne.n	2000052e <dcd_rp2040_irq+0x212>
20000536:	e787      	b.n	20000448 <dcd_rp2040_irq+0x12c>
20000538:	3338      	adds	r3, #56	@ 0x38
2000053a:	5ce6      	ldrb	r6, [r4, r3]
2000053c:	2e00      	cmp	r6, #0
2000053e:	d100      	bne.n	20000542 <dcd_rp2040_irq+0x226>
20000540:	e705      	b.n	2000034e <dcd_rp2040_irq+0x32>
20000542:	3302      	adds	r3, #2
20000544:	5ce2      	ldrb	r2, [r4, r3]
20000546:	2a00      	cmp	r2, #0
20000548:	d100      	bne.n	2000054c <dcd_rp2040_irq+0x230>
2000054a:	e700      	b.n	2000034e <dcd_rp2040_irq+0x32>
2000054c:	0020      	movs	r0, r4
2000054e:	2200      	movs	r2, #0
20000550:	3020      	adds	r0, #32
20000552:	54e2      	strb	r2, [r4, r3]
20000554:	f000 fab8 	bl	20000ac8 <hw_endpoint_start_next_buffer>
20000558:	e6f9      	b.n	2000034e <dcd_rp2040_irq+0x32>
2000055a:	33b8      	adds	r3, #184	@ 0xb8
2000055c:	5ce7      	ldrb	r7, [r4, r3]
2000055e:	2f00      	cmp	r7, #0
20000560:	d100      	bne.n	20000564 <dcd_rp2040_irq+0x248>
20000562:	e6fe      	b.n	20000362 <dcd_rp2040_irq+0x46>
20000564:	3302      	adds	r3, #2
20000566:	5ce2      	ldrb	r2, [r4, r3]
20000568:	2a00      	cmp	r2, #0
2000056a:	d000      	beq.n	2000056e <dcd_rp2040_irq+0x252>
2000056c:	e122      	b.n	200007b4 <dcd_rp2040_irq+0x498>
2000056e:	003e      	movs	r6, r7
20000570:	e6f7      	b.n	20000362 <dcd_rp2040_irq+0x46>
20000572:	3378      	adds	r3, #120	@ 0x78
20000574:	5ce7      	ldrb	r7, [r4, r3]
20000576:	2f00      	cmp	r7, #0
20000578:	d100      	bne.n	2000057c <dcd_rp2040_irq+0x260>
2000057a:	e6ed      	b.n	20000358 <dcd_rp2040_irq+0x3c>
2000057c:	3302      	adds	r3, #2
2000057e:	5ce2      	ldrb	r2, [r4, r3]
20000580:	2a00      	cmp	r2, #0
20000582:	d000      	beq.n	20000586 <dcd_rp2040_irq+0x26a>
20000584:	e10e      	b.n	200007a4 <dcd_rp2040_irq+0x488>
20000586:	003e      	movs	r6, r7
20000588:	e6e6      	b.n	20000358 <dcd_rp2040_irq+0x3c>
2000058a:	33b9      	adds	r3, #185	@ 0xb9
2000058c:	33ff      	adds	r3, #255	@ 0xff
2000058e:	5ce7      	ldrb	r7, [r4, r3]
20000590:	2f00      	cmp	r7, #0
20000592:	d100      	bne.n	20000596 <dcd_rp2040_irq+0x27a>
20000594:	e6fc      	b.n	20000390 <dcd_rp2040_irq+0x74>
20000596:	3302      	adds	r3, #2
20000598:	5ce2      	ldrb	r2, [r4, r3]
2000059a:	2a00      	cmp	r2, #0
2000059c:	d000      	beq.n	200005a0 <dcd_rp2040_irq+0x284>
2000059e:	e0f8      	b.n	20000792 <dcd_rp2040_irq+0x476>
200005a0:	003e      	movs	r6, r7
200005a2:	e6f5      	b.n	20000390 <dcd_rp2040_irq+0x74>
200005a4:	3379      	adds	r3, #121	@ 0x79
200005a6:	33ff      	adds	r3, #255	@ 0xff
200005a8:	5ce7      	ldrb	r7, [r4, r3]
200005aa:	2f00      	cmp	r7, #0
200005ac:	d100      	bne.n	200005b0 <dcd_rp2040_irq+0x294>
200005ae:	e6e9      	b.n	20000384 <dcd_rp2040_irq+0x68>
200005b0:	3302      	adds	r3, #2
200005b2:	5ce2      	ldrb	r2, [r4, r3]
200005b4:	2a00      	cmp	r2, #0
200005b6:	d000      	beq.n	200005ba <dcd_rp2040_irq+0x29e>
200005b8:	e0e2      	b.n	20000780 <dcd_rp2040_irq+0x464>
200005ba:	003e      	movs	r6, r7
200005bc:	e6e2      	b.n	20000384 <dcd_rp2040_irq+0x68>
200005be:	3339      	adds	r3, #57	@ 0x39
200005c0:	33ff      	adds	r3, #255	@ 0xff
200005c2:	5ce7      	ldrb	r7, [r4, r3]
200005c4:	2f00      	cmp	r7, #0
200005c6:	d100      	bne.n	200005ca <dcd_rp2040_irq+0x2ae>
200005c8:	e6d6      	b.n	20000378 <dcd_rp2040_irq+0x5c>
200005ca:	3302      	adds	r3, #2
200005cc:	5ce2      	ldrb	r2, [r4, r3]
200005ce:	2a00      	cmp	r2, #0
200005d0:	d000      	beq.n	200005d4 <dcd_rp2040_irq+0x2b8>
200005d2:	e0cc      	b.n	2000076e <dcd_rp2040_irq+0x452>
200005d4:	003e      	movs	r6, r7
200005d6:	e6cf      	b.n	20000378 <dcd_rp2040_irq+0x5c>
200005d8:	33f8      	adds	r3, #248	@ 0xf8
200005da:	5ce7      	ldrb	r7, [r4, r3]
200005dc:	2f00      	cmp	r7, #0
200005de:	d100      	bne.n	200005e2 <dcd_rp2040_irq+0x2c6>
200005e0:	e6c4      	b.n	2000036c <dcd_rp2040_irq+0x50>
200005e2:	3302      	adds	r3, #2
200005e4:	5ce2      	ldrb	r2, [r4, r3]
200005e6:	2a00      	cmp	r2, #0
200005e8:	d000      	beq.n	200005ec <dcd_rp2040_irq+0x2d0>
200005ea:	e0b8      	b.n	2000075e <dcd_rp2040_irq+0x442>
200005ec:	003e      	movs	r6, r7
200005ee:	e6bd      	b.n	2000036c <dcd_rp2040_irq+0x50>
200005f0:	4b23      	ldr	r3, [pc, #140]	@ (20000680 <dcd_rp2040_irq+0x364>)
200005f2:	5ce7      	ldrb	r7, [r4, r3]
200005f4:	2f00      	cmp	r7, #0
200005f6:	d100      	bne.n	200005fa <dcd_rp2040_irq+0x2de>
200005f8:	e6ee      	b.n	200003d8 <dcd_rp2040_irq+0xbc>
200005fa:	3302      	adds	r3, #2
200005fc:	5ce2      	ldrb	r2, [r4, r3]
200005fe:	2a00      	cmp	r2, #0
20000600:	d000      	beq.n	20000604 <dcd_rp2040_irq+0x2e8>
20000602:	e110      	b.n	20000826 <dcd_rp2040_irq+0x50a>
20000604:	4b17      	ldr	r3, [pc, #92]	@ (20000664 <dcd_rp2040_irq+0x348>)
20000606:	5ce3      	ldrb	r3, [r4, r3]
20000608:	2b02      	cmp	r3, #2
2000060a:	d100      	bne.n	2000060e <dcd_rp2040_irq+0x2f2>
2000060c:	e08b      	b.n	20000726 <dcd_rp2040_irq+0x40a>
2000060e:	4b16      	ldr	r3, [pc, #88]	@ (20000668 <dcd_rp2040_irq+0x34c>)
20000610:	5ce3      	ldrb	r3, [r4, r3]
20000612:	2b02      	cmp	r3, #2
20000614:	d000      	beq.n	20000618 <dcd_rp2040_irq+0x2fc>
20000616:	e6f4      	b.n	20000402 <dcd_rp2040_irq+0xe6>
20000618:	4b1a      	ldr	r3, [pc, #104]	@ (20000684 <dcd_rp2040_irq+0x368>)
2000061a:	5ce3      	ldrb	r3, [r4, r3]
2000061c:	2b00      	cmp	r3, #0
2000061e:	d000      	beq.n	20000622 <dcd_rp2040_irq+0x306>
20000620:	e090      	b.n	20000744 <dcd_rp2040_irq+0x428>
20000622:	e6ee      	b.n	20000402 <dcd_rp2040_irq+0xe6>
20000624:	4b18      	ldr	r3, [pc, #96]	@ (20000688 <dcd_rp2040_irq+0x36c>)
20000626:	5ce7      	ldrb	r7, [r4, r3]
20000628:	2f00      	cmp	r7, #0
2000062a:	d100      	bne.n	2000062e <dcd_rp2040_irq+0x312>
2000062c:	e6cf      	b.n	200003ce <dcd_rp2040_irq+0xb2>
2000062e:	3302      	adds	r3, #2
20000630:	5ce2      	ldrb	r2, [r4, r3]
20000632:	2a00      	cmp	r2, #0
20000634:	d000      	beq.n	20000638 <dcd_rp2040_irq+0x31c>
20000636:	e0ee      	b.n	20000816 <dcd_rp2040_irq+0x4fa>
20000638:	003e      	movs	r6, r7
2000063a:	e6c8      	b.n	200003ce <dcd_rp2040_irq+0xb2>
2000063c:	50110000 	.word	0x50110000
20000640:	40054000 	.word	0x40054000
20000644:	20001708 	.word	0x20001708
20000648:	20001700 	.word	0x20001700
2000064c:	0000023b 	.word	0x0000023b
20000650:	0000027b 	.word	0x0000027b
20000654:	000002bb 	.word	0x000002bb
20000658:	000002fb 	.word	0x000002fb
2000065c:	0000033b 	.word	0x0000033b
20000660:	0000037b 	.word	0x0000037b
20000664:	000003bb 	.word	0x000003bb
20000668:	000003fb 	.word	0x000003fb
2000066c:	20001b4d 	.word	0x20001b4d
20000670:	50113000 	.word	0x50113000
20000674:	00020010 	.word	0x00020010
20000678:	50100000 	.word	0x50100000
2000067c:	50112000 	.word	0x50112000
20000680:	0000037a 	.word	0x0000037a
20000684:	000003fa 	.word	0x000003fa
20000688:	0000033a 	.word	0x0000033a
2000068c:	4b6c      	ldr	r3, [pc, #432]	@ (20000840 <dcd_rp2040_irq+0x524>)
2000068e:	5ce7      	ldrb	r7, [r4, r3]
20000690:	2f00      	cmp	r7, #0
20000692:	d100      	bne.n	20000696 <dcd_rp2040_irq+0x37a>
20000694:	e696      	b.n	200003c4 <dcd_rp2040_irq+0xa8>
20000696:	3302      	adds	r3, #2
20000698:	5ce2      	ldrb	r2, [r4, r3]
2000069a:	2a00      	cmp	r2, #0
2000069c:	d000      	beq.n	200006a0 <dcd_rp2040_irq+0x384>
2000069e:	e0b2      	b.n	20000806 <dcd_rp2040_irq+0x4ea>
200006a0:	003e      	movs	r6, r7
200006a2:	e68f      	b.n	200003c4 <dcd_rp2040_irq+0xa8>
200006a4:	4b67      	ldr	r3, [pc, #412]	@ (20000844 <dcd_rp2040_irq+0x528>)
200006a6:	5ce7      	ldrb	r7, [r4, r3]
200006a8:	2f00      	cmp	r7, #0
200006aa:	d100      	bne.n	200006ae <dcd_rp2040_irq+0x392>
200006ac:	e685      	b.n	200003ba <dcd_rp2040_irq+0x9e>
200006ae:	3302      	adds	r3, #2
200006b0:	5ce2      	ldrb	r2, [r4, r3]
200006b2:	2a00      	cmp	r2, #0
200006b4:	d000      	beq.n	200006b8 <dcd_rp2040_irq+0x39c>
200006b6:	e09e      	b.n	200007f6 <dcd_rp2040_irq+0x4da>
200006b8:	003e      	movs	r6, r7
200006ba:	e67e      	b.n	200003ba <dcd_rp2040_irq+0x9e>
200006bc:	4b62      	ldr	r3, [pc, #392]	@ (20000848 <dcd_rp2040_irq+0x52c>)
200006be:	5ce7      	ldrb	r7, [r4, r3]
200006c0:	2f00      	cmp	r7, #0
200006c2:	d100      	bne.n	200006c6 <dcd_rp2040_irq+0x3aa>
200006c4:	e674      	b.n	200003b0 <dcd_rp2040_irq+0x94>
200006c6:	3302      	adds	r3, #2
200006c8:	5ce2      	ldrb	r2, [r4, r3]
200006ca:	2a00      	cmp	r2, #0
200006cc:	d000      	beq.n	200006d0 <dcd_rp2040_irq+0x3b4>
200006ce:	e08a      	b.n	200007e6 <dcd_rp2040_irq+0x4ca>
200006d0:	003e      	movs	r6, r7
200006d2:	e66d      	b.n	200003b0 <dcd_rp2040_irq+0x94>
200006d4:	4b5d      	ldr	r3, [pc, #372]	@ (2000084c <dcd_rp2040_irq+0x530>)
200006d6:	5ce7      	ldrb	r7, [r4, r3]
200006d8:	2f00      	cmp	r7, #0
200006da:	d100      	bne.n	200006de <dcd_rp2040_irq+0x3c2>
200006dc:	e663      	b.n	200003a6 <dcd_rp2040_irq+0x8a>
200006de:	3302      	adds	r3, #2
200006e0:	5ce2      	ldrb	r2, [r4, r3]
200006e2:	2a00      	cmp	r2, #0
200006e4:	d177      	bne.n	200007d6 <dcd_rp2040_irq+0x4ba>
200006e6:	003e      	movs	r6, r7
200006e8:	e65d      	b.n	200003a6 <dcd_rp2040_irq+0x8a>
200006ea:	33f9      	adds	r3, #249	@ 0xf9
200006ec:	33ff      	adds	r3, #255	@ 0xff
200006ee:	5ce7      	ldrb	r7, [r4, r3]
200006f0:	2f00      	cmp	r7, #0
200006f2:	d100      	bne.n	200006f6 <dcd_rp2040_irq+0x3da>
200006f4:	e652      	b.n	2000039c <dcd_rp2040_irq+0x80>
200006f6:	3302      	adds	r3, #2
200006f8:	5ce2      	ldrb	r2, [r4, r3]
200006fa:	2a00      	cmp	r2, #0
200006fc:	d162      	bne.n	200007c4 <dcd_rp2040_irq+0x4a8>
200006fe:	003e      	movs	r6, r7
20000700:	e64c      	b.n	2000039c <dcd_rp2040_irq+0x80>
20000702:	4b53      	ldr	r3, [pc, #332]	@ (20000850 <dcd_rp2040_irq+0x534>)
20000704:	5ce3      	ldrb	r3, [r4, r3]
20000706:	2b00      	cmp	r3, #0
20000708:	d100      	bne.n	2000070c <dcd_rp2040_irq+0x3f0>
2000070a:	e66a      	b.n	200003e2 <dcd_rp2040_irq+0xc6>
2000070c:	23ef      	movs	r3, #239	@ 0xef
2000070e:	009b      	lsls	r3, r3, #2
20000710:	5ce2      	ldrb	r2, [r4, r3]
20000712:	2a00      	cmp	r2, #0
20000714:	d100      	bne.n	20000718 <dcd_rp2040_irq+0x3fc>
20000716:	e77a      	b.n	2000060e <dcd_rp2040_irq+0x2f2>
20000718:	2200      	movs	r2, #0
2000071a:	54e2      	strb	r2, [r4, r3]
2000071c:	3b1c      	subs	r3, #28
2000071e:	18e0      	adds	r0, r4, r3
20000720:	f000 f9d2 	bl	20000ac8 <hw_endpoint_start_next_buffer>
20000724:	e773      	b.n	2000060e <dcd_rp2040_irq+0x2f2>
20000726:	4b4a      	ldr	r3, [pc, #296]	@ (20000850 <dcd_rp2040_irq+0x534>)
20000728:	5ce3      	ldrb	r3, [r4, r3]
2000072a:	2b00      	cmp	r3, #0
2000072c:	d1ee      	bne.n	2000070c <dcd_rp2040_irq+0x3f0>
2000072e:	4b49      	ldr	r3, [pc, #292]	@ (20000854 <dcd_rp2040_irq+0x538>)
20000730:	5ce3      	ldrb	r3, [r4, r3]
20000732:	2b02      	cmp	r3, #2
20000734:	d000      	beq.n	20000738 <dcd_rp2040_irq+0x41c>
20000736:	e664      	b.n	20000402 <dcd_rp2040_irq+0xe6>
20000738:	003e      	movs	r6, r7
2000073a:	4b47      	ldr	r3, [pc, #284]	@ (20000858 <dcd_rp2040_irq+0x53c>)
2000073c:	5ce3      	ldrb	r3, [r4, r3]
2000073e:	2b00      	cmp	r3, #0
20000740:	d100      	bne.n	20000744 <dcd_rp2040_irq+0x428>
20000742:	e653      	b.n	200003ec <dcd_rp2040_irq+0xd0>
20000744:	23ff      	movs	r3, #255	@ 0xff
20000746:	009b      	lsls	r3, r3, #2
20000748:	5ce2      	ldrb	r2, [r4, r3]
2000074a:	2a00      	cmp	r2, #0
2000074c:	d100      	bne.n	20000750 <dcd_rp2040_irq+0x434>
2000074e:	e658      	b.n	20000402 <dcd_rp2040_irq+0xe6>
20000750:	2200      	movs	r2, #0
20000752:	54e2      	strb	r2, [r4, r3]
20000754:	3b1c      	subs	r3, #28
20000756:	18e0      	adds	r0, r4, r3
20000758:	f000 f9b6 	bl	20000ac8 <hw_endpoint_start_next_buffer>
2000075c:	e651      	b.n	20000402 <dcd_rp2040_irq+0xe6>
2000075e:	0020      	movs	r0, r4
20000760:	2200      	movs	r2, #0
20000762:	30e0      	adds	r0, #224	@ 0xe0
20000764:	54e2      	strb	r2, [r4, r3]
20000766:	003e      	movs	r6, r7
20000768:	f000 f9ae 	bl	20000ac8 <hw_endpoint_start_next_buffer>
2000076c:	e5fe      	b.n	2000036c <dcd_rp2040_irq+0x50>
2000076e:	0020      	movs	r0, r4
20000770:	2200      	movs	r2, #0
20000772:	3021      	adds	r0, #33	@ 0x21
20000774:	30ff      	adds	r0, #255	@ 0xff
20000776:	54e2      	strb	r2, [r4, r3]
20000778:	003e      	movs	r6, r7
2000077a:	f000 f9a5 	bl	20000ac8 <hw_endpoint_start_next_buffer>
2000077e:	e5fb      	b.n	20000378 <dcd_rp2040_irq+0x5c>
20000780:	0020      	movs	r0, r4
20000782:	2200      	movs	r2, #0
20000784:	3061      	adds	r0, #97	@ 0x61
20000786:	30ff      	adds	r0, #255	@ 0xff
20000788:	54e2      	strb	r2, [r4, r3]
2000078a:	003e      	movs	r6, r7
2000078c:	f000 f99c 	bl	20000ac8 <hw_endpoint_start_next_buffer>
20000790:	e5f8      	b.n	20000384 <dcd_rp2040_irq+0x68>
20000792:	0020      	movs	r0, r4
20000794:	2200      	movs	r2, #0
20000796:	30a1      	adds	r0, #161	@ 0xa1
20000798:	30ff      	adds	r0, #255	@ 0xff
2000079a:	54e2      	strb	r2, [r4, r3]
2000079c:	003e      	movs	r6, r7
2000079e:	f000 f993 	bl	20000ac8 <hw_endpoint_start_next_buffer>
200007a2:	e5f5      	b.n	20000390 <dcd_rp2040_irq+0x74>
200007a4:	0020      	movs	r0, r4
200007a6:	2200      	movs	r2, #0
200007a8:	3060      	adds	r0, #96	@ 0x60
200007aa:	54e2      	strb	r2, [r4, r3]
200007ac:	003e      	movs	r6, r7
200007ae:	f000 f98b 	bl	20000ac8 <hw_endpoint_start_next_buffer>
200007b2:	e5d1      	b.n	20000358 <dcd_rp2040_irq+0x3c>
200007b4:	0020      	movs	r0, r4
200007b6:	2200      	movs	r2, #0
200007b8:	30a0      	adds	r0, #160	@ 0xa0
200007ba:	54e2      	strb	r2, [r4, r3]
200007bc:	003e      	movs	r6, r7
200007be:	f000 f983 	bl	20000ac8 <hw_endpoint_start_next_buffer>
200007c2:	e5ce      	b.n	20000362 <dcd_rp2040_irq+0x46>
200007c4:	0020      	movs	r0, r4
200007c6:	2200      	movs	r2, #0
200007c8:	30e1      	adds	r0, #225	@ 0xe1
200007ca:	30ff      	adds	r0, #255	@ 0xff
200007cc:	54e2      	strb	r2, [r4, r3]
200007ce:	003e      	movs	r6, r7
200007d0:	f000 f97a 	bl	20000ac8 <hw_endpoint_start_next_buffer>
200007d4:	e5e2      	b.n	2000039c <dcd_rp2040_irq+0x80>
200007d6:	2200      	movs	r2, #0
200007d8:	54e2      	strb	r2, [r4, r3]
200007da:	3b1c      	subs	r3, #28
200007dc:	18e0      	adds	r0, r4, r3
200007de:	f000 f973 	bl	20000ac8 <hw_endpoint_start_next_buffer>
200007e2:	003e      	movs	r6, r7
200007e4:	e5df      	b.n	200003a6 <dcd_rp2040_irq+0x8a>
200007e6:	2200      	movs	r2, #0
200007e8:	54e2      	strb	r2, [r4, r3]
200007ea:	3b1c      	subs	r3, #28
200007ec:	18e0      	adds	r0, r4, r3
200007ee:	f000 f96b 	bl	20000ac8 <hw_endpoint_start_next_buffer>
200007f2:	003e      	movs	r6, r7
200007f4:	e5dc      	b.n	200003b0 <dcd_rp2040_irq+0x94>
200007f6:	2200      	movs	r2, #0
200007f8:	54e2      	strb	r2, [r4, r3]
200007fa:	3b1c      	subs	r3, #28
200007fc:	18e0      	adds	r0, r4, r3
200007fe:	f000 f963 	bl	20000ac8 <hw_endpoint_start_next_buffer>
20000802:	003e      	movs	r6, r7
20000804:	e5d9      	b.n	200003ba <dcd_rp2040_irq+0x9e>
20000806:	2200      	movs	r2, #0
20000808:	54e2      	strb	r2, [r4, r3]
2000080a:	3b1c      	subs	r3, #28
2000080c:	18e0      	adds	r0, r4, r3
2000080e:	f000 f95b 	bl	20000ac8 <hw_endpoint_start_next_buffer>
20000812:	003e      	movs	r6, r7
20000814:	e5d6      	b.n	200003c4 <dcd_rp2040_irq+0xa8>
20000816:	2200      	movs	r2, #0
20000818:	54e2      	strb	r2, [r4, r3]
2000081a:	3b1c      	subs	r3, #28
2000081c:	18e0      	adds	r0, r4, r3
2000081e:	f000 f953 	bl	20000ac8 <hw_endpoint_start_next_buffer>
20000822:	003e      	movs	r6, r7
20000824:	e5d3      	b.n	200003ce <dcd_rp2040_irq+0xb2>
20000826:	2200      	movs	r2, #0
20000828:	54e2      	strb	r2, [r4, r3]
2000082a:	3b1c      	subs	r3, #28
2000082c:	18e0      	adds	r0, r4, r3
2000082e:	f000 f94b 	bl	20000ac8 <hw_endpoint_start_next_buffer>
20000832:	e6e7      	b.n	20000604 <dcd_rp2040_irq+0x2e8>
20000834:	0031      	movs	r1, r6
20000836:	4809      	ldr	r0, [pc, #36]	@ (2000085c <dcd_rp2040_irq+0x540>)
20000838:	4069      	eors	r1, r5
2000083a:	f000 fa9d 	bl	20000d78 <__panic_veneer>
2000083e:	46c0      	nop			@ (mov r8, r8)
20000840:	000002fa 	.word	0x000002fa
20000844:	000002ba 	.word	0x000002ba
20000848:	0000027a 	.word	0x0000027a
2000084c:	0000023a 	.word	0x0000023a
20000850:	000003ba 	.word	0x000003ba
20000854:	000003fb 	.word	0x000003fb
20000858:	000003fa 	.word	0x000003fa
2000085c:	10004d68 	.word	0x10004d68

20000860 <prepare_ep_buffer>:
20000860:	b5f0      	push	{r4, r5, r6, r7, lr}
20000862:	46d6      	mov	lr, sl
20000864:	464f      	mov	r7, r9
20000866:	4646      	mov	r6, r8
20000868:	b5c0      	push	{r6, r7, lr}
2000086a:	0002      	movs	r2, r0
2000086c:	8a83      	ldrh	r3, [r0, #20]
2000086e:	8b00      	ldrh	r0, [r0, #24]
20000870:	468a      	mov	sl, r1
20000872:	1c04      	adds	r4, r0, #0
20000874:	4298      	cmp	r0, r3
20000876:	d900      	bls.n	2000087a <prepare_ep_buffer+0x1a>
20000878:	1c1c      	adds	r4, r3, #0
2000087a:	78d5      	ldrb	r5, [r2, #3]
2000087c:	2680      	movs	r6, #128	@ 0x80
2000087e:	0028      	movs	r0, r5
20000880:	1e47      	subs	r7, r0, #1
20000882:	41b8      	sbcs	r0, r7
20000884:	b2a4      	uxth	r4, r4
20000886:	00f6      	lsls	r6, r6, #3
20000888:	4326      	orrs	r6, r4
2000088a:	0340      	lsls	r0, r0, #13
2000088c:	4330      	orrs	r0, r6
2000088e:	2601      	movs	r6, #1
20000890:	4075      	eors	r5, r6
20000892:	1b1b      	subs	r3, r3, r4
20000894:	70d5      	strb	r5, [r2, #3]
20000896:	7855      	ldrb	r5, [r2, #1]
20000898:	b29b      	uxth	r3, r3
2000089a:	8293      	strh	r3, [r2, #20]
2000089c:	2d00      	cmp	r5, #0
2000089e:	d137      	bne.n	20000910 <prepare_ep_buffer+0xb0>
200008a0:	4651      	mov	r1, sl
200008a2:	68d6      	ldr	r6, [r2, #12]
200008a4:	018d      	lsls	r5, r1, #6
200008a6:	1e61      	subs	r1, r4, #1
200008a8:	1976      	adds	r6, r6, r5
200008aa:	4688      	mov	r8, r1
200008ac:	6915      	ldr	r5, [r2, #16]
200008ae:	2c00      	cmp	r4, #0
200008b0:	d029      	beq.n	20000906 <prepare_ep_buffer+0xa6>
200008b2:	2906      	cmp	r1, #6
200008b4:	d93a      	bls.n	2000092c <prepare_ep_buffer+0xcc>
200008b6:	0033      	movs	r3, r6
200008b8:	432b      	orrs	r3, r5
200008ba:	079b      	lsls	r3, r3, #30
200008bc:	d136      	bne.n	2000092c <prepare_ep_buffer+0xcc>
200008be:	1c6b      	adds	r3, r5, #1
200008c0:	1af3      	subs	r3, r6, r3
200008c2:	2b02      	cmp	r3, #2
200008c4:	d932      	bls.n	2000092c <prepare_ep_buffer+0xcc>
200008c6:	1f23      	subs	r3, r4, #4
200008c8:	089b      	lsrs	r3, r3, #2
200008ca:	3301      	adds	r3, #1
200008cc:	469c      	mov	ip, r3
200008ce:	2700      	movs	r7, #0
200008d0:	2300      	movs	r3, #0
200008d2:	58e9      	ldr	r1, [r5, r3]
200008d4:	3701      	adds	r7, #1
200008d6:	50f1      	str	r1, [r6, r3]
200008d8:	3304      	adds	r3, #4
200008da:	45bc      	cmp	ip, r7
200008dc:	d8f9      	bhi.n	200008d2 <prepare_ep_buffer+0x72>
200008de:	4663      	mov	r3, ip
200008e0:	4641      	mov	r1, r8
200008e2:	009b      	lsls	r3, r3, #2
200008e4:	18ed      	adds	r5, r5, r3
200008e6:	18f6      	adds	r6, r6, r3
200008e8:	1acf      	subs	r7, r1, r3
200008ea:	429c      	cmp	r4, r3
200008ec:	d009      	beq.n	20000902 <prepare_ep_buffer+0xa2>
200008ee:	782b      	ldrb	r3, [r5, #0]
200008f0:	7033      	strb	r3, [r6, #0]
200008f2:	2f00      	cmp	r7, #0
200008f4:	d005      	beq.n	20000902 <prepare_ep_buffer+0xa2>
200008f6:	786b      	ldrb	r3, [r5, #1]
200008f8:	7073      	strb	r3, [r6, #1]
200008fa:	2f01      	cmp	r7, #1
200008fc:	d001      	beq.n	20000902 <prepare_ep_buffer+0xa2>
200008fe:	78ab      	ldrb	r3, [r5, #2]
20000900:	70b3      	strb	r3, [r6, #2]
20000902:	6915      	ldr	r5, [r2, #16]
20000904:	8a93      	ldrh	r3, [r2, #20]
20000906:	192d      	adds	r5, r5, r4
20000908:	6115      	str	r5, [r2, #16]
2000090a:	2280      	movs	r2, #128	@ 0x80
2000090c:	0212      	lsls	r2, r2, #8
2000090e:	4310      	orrs	r0, r2
20000910:	2b00      	cmp	r3, #0
20000912:	d102      	bne.n	2000091a <prepare_ep_buffer+0xba>
20000914:	2380      	movs	r3, #128	@ 0x80
20000916:	01db      	lsls	r3, r3, #7
20000918:	4318      	orrs	r0, r3
2000091a:	4653      	mov	r3, sl
2000091c:	2b00      	cmp	r3, #0
2000091e:	d000      	beq.n	20000922 <prepare_ep_buffer+0xc2>
20000920:	0400      	lsls	r0, r0, #16
20000922:	bce0      	pop	{r5, r6, r7}
20000924:	46ba      	mov	sl, r7
20000926:	46b1      	mov	r9, r6
20000928:	46a8      	mov	r8, r5
2000092a:	bdf0      	pop	{r4, r5, r6, r7, pc}
2000092c:	2300      	movs	r3, #0
2000092e:	5cef      	ldrb	r7, [r5, r3]
20000930:	54f7      	strb	r7, [r6, r3]
20000932:	3301      	adds	r3, #1
20000934:	429c      	cmp	r4, r3
20000936:	d1fa      	bne.n	2000092e <prepare_ep_buffer+0xce>
20000938:	6915      	ldr	r5, [r2, #16]
2000093a:	8a93      	ldrh	r3, [r2, #20]
2000093c:	e7e3      	b.n	20000906 <prepare_ep_buffer+0xa6>
2000093e:	46c0      	nop			@ (mov r8, r8)

20000940 <sync_ep_buffer>:
20000940:	6883      	ldr	r3, [r0, #8]
20000942:	b5f0      	push	{r4, r5, r6, r7, lr}
20000944:	681b      	ldr	r3, [r3, #0]
20000946:	0005      	movs	r5, r0
20000948:	2900      	cmp	r1, #0
2000094a:	d000      	beq.n	2000094e <sync_ep_buffer+0xe>
2000094c:	0c1b      	lsrs	r3, r3, #16
2000094e:	059b      	lsls	r3, r3, #22
20000950:	0d98      	lsrs	r0, r3, #22
20000952:	786b      	ldrb	r3, [r5, #1]
20000954:	2b00      	cmp	r3, #0
20000956:	d108      	bne.n	2000096a <sync_ep_buffer+0x2a>
20000958:	8aeb      	ldrh	r3, [r5, #22]
2000095a:	18c3      	adds	r3, r0, r3
2000095c:	82eb      	strh	r3, [r5, #22]
2000095e:	8b2b      	ldrh	r3, [r5, #24]
20000960:	4283      	cmp	r3, r0
20000962:	d901      	bls.n	20000968 <sync_ep_buffer+0x28>
20000964:	2300      	movs	r3, #0
20000966:	82ab      	strh	r3, [r5, #20]
20000968:	bdf0      	pop	{r4, r5, r6, r7, pc}
2000096a:	68eb      	ldr	r3, [r5, #12]
2000096c:	0189      	lsls	r1, r1, #6
2000096e:	1e46      	subs	r6, r0, #1
20000970:	46b4      	mov	ip, r6
20000972:	692a      	ldr	r2, [r5, #16]
20000974:	185c      	adds	r4, r3, r1
20000976:	2800      	cmp	r0, #0
20000978:	d027      	beq.n	200009ca <sync_ep_buffer+0x8a>
2000097a:	2e06      	cmp	r6, #6
2000097c:	d92b      	bls.n	200009d6 <sync_ep_buffer+0x96>
2000097e:	3101      	adds	r1, #1
20000980:	185b      	adds	r3, r3, r1
20000982:	1ad3      	subs	r3, r2, r3
20000984:	2b02      	cmp	r3, #2
20000986:	d926      	bls.n	200009d6 <sync_ep_buffer+0x96>
20000988:	0013      	movs	r3, r2
2000098a:	4323      	orrs	r3, r4
2000098c:	079b      	lsls	r3, r3, #30
2000098e:	d122      	bne.n	200009d6 <sync_ep_buffer+0x96>
20000990:	2300      	movs	r3, #0
20000992:	2100      	movs	r1, #0
20000994:	1f06      	subs	r6, r0, #4
20000996:	08b6      	lsrs	r6, r6, #2
20000998:	3601      	adds	r6, #1
2000099a:	58e7      	ldr	r7, [r4, r3]
2000099c:	3101      	adds	r1, #1
2000099e:	50d7      	str	r7, [r2, r3]
200009a0:	3304      	adds	r3, #4
200009a2:	428e      	cmp	r6, r1
200009a4:	d8f9      	bhi.n	2000099a <sync_ep_buffer+0x5a>
200009a6:	4663      	mov	r3, ip
200009a8:	00b6      	lsls	r6, r6, #2
200009aa:	19a4      	adds	r4, r4, r6
200009ac:	1992      	adds	r2, r2, r6
200009ae:	1b9f      	subs	r7, r3, r6
200009b0:	42b0      	cmp	r0, r6
200009b2:	d009      	beq.n	200009c8 <sync_ep_buffer+0x88>
200009b4:	7823      	ldrb	r3, [r4, #0]
200009b6:	7013      	strb	r3, [r2, #0]
200009b8:	2f00      	cmp	r7, #0
200009ba:	d005      	beq.n	200009c8 <sync_ep_buffer+0x88>
200009bc:	7863      	ldrb	r3, [r4, #1]
200009be:	7053      	strb	r3, [r2, #1]
200009c0:	2f01      	cmp	r7, #1
200009c2:	d001      	beq.n	200009c8 <sync_ep_buffer+0x88>
200009c4:	78a3      	ldrb	r3, [r4, #2]
200009c6:	7093      	strb	r3, [r2, #2]
200009c8:	692a      	ldr	r2, [r5, #16]
200009ca:	8aeb      	ldrh	r3, [r5, #22]
200009cc:	1812      	adds	r2, r2, r0
200009ce:	18c3      	adds	r3, r0, r3
200009d0:	82eb      	strh	r3, [r5, #22]
200009d2:	612a      	str	r2, [r5, #16]
200009d4:	e7c3      	b.n	2000095e <sync_ep_buffer+0x1e>
200009d6:	2300      	movs	r3, #0
200009d8:	5ce1      	ldrb	r1, [r4, r3]
200009da:	54d1      	strb	r1, [r2, r3]
200009dc:	3301      	adds	r3, #1
200009de:	4298      	cmp	r0, r3
200009e0:	d1fa      	bne.n	200009d8 <sync_ep_buffer+0x98>
200009e2:	692a      	ldr	r2, [r5, #16]
200009e4:	e7f1      	b.n	200009ca <sync_ep_buffer+0x8a>
200009e6:	46c0      	nop			@ (mov r8, r8)

200009e8 <_hw_endpoint_xfer_sync>:
200009e8:	b510      	push	{r4, lr}
200009ea:	0004      	movs	r4, r0
200009ec:	6883      	ldr	r3, [r0, #8]
200009ee:	2100      	movs	r1, #0
200009f0:	681b      	ldr	r3, [r3, #0]
200009f2:	f7ff ffa5 	bl	20000940 <sync_ep_buffer>
200009f6:	6863      	ldr	r3, [r4, #4]
200009f8:	681b      	ldr	r3, [r3, #0]
200009fa:	005b      	lsls	r3, r3, #1
200009fc:	d502      	bpl.n	20000a04 <_hw_endpoint_xfer_sync+0x1c>
200009fe:	8b23      	ldrh	r3, [r4, #24]
20000a00:	4283      	cmp	r3, r0
20000a02:	d000      	beq.n	20000a06 <_hw_endpoint_xfer_sync+0x1e>
20000a04:	bd10      	pop	{r4, pc}
20000a06:	2101      	movs	r1, #1
20000a08:	0020      	movs	r0, r4
20000a0a:	f7ff ff99 	bl	20000940 <sync_ep_buffer>
20000a0e:	e7f9      	b.n	20000a04 <_hw_endpoint_xfer_sync+0x1c>

20000a10 <e15_is_bulkin_ep>:
20000a10:	4a08      	ldr	r2, [pc, #32]	@ (20000a34 <e15_is_bulkin_ep+0x24>)
20000a12:	0003      	movs	r3, r0
20000a14:	6c12      	ldr	r2, [r2, #64]	@ 0x40
20000a16:	2000      	movs	r0, #0
20000a18:	0792      	lsls	r2, r2, #30
20000a1a:	d403      	bmi.n	20000a24 <e15_is_bulkin_ep+0x14>
20000a1c:	789a      	ldrb	r2, [r3, #2]
20000a1e:	09d2      	lsrs	r2, r2, #7
20000a20:	2a01      	cmp	r2, #1
20000a22:	d000      	beq.n	20000a26 <e15_is_bulkin_ep+0x16>
20000a24:	4770      	bx	lr
20000a26:	7ed8      	ldrb	r0, [r3, #27]
20000a28:	3802      	subs	r0, #2
20000a2a:	4243      	negs	r3, r0
20000a2c:	4158      	adcs	r0, r3
20000a2e:	b2c0      	uxtb	r0, r0
20000a30:	e7f8      	b.n	20000a24 <e15_is_bulkin_ep+0x14>
20000a32:	46c0      	nop			@ (mov r8, r8)
20000a34:	50110000 	.word	0x50110000

20000a38 <e15_is_critical_frame_period>:
20000a38:	b510      	push	{r4, lr}
20000a3a:	f7ff ffe9 	bl	20000a10 <e15_is_bulkin_ep>
20000a3e:	2800      	cmp	r0, #0
20000a40:	d00c      	beq.n	20000a5c <e15_is_critical_frame_period+0x24>
20000a42:	4907      	ldr	r1, [pc, #28]	@ (20000a60 <e15_is_critical_frame_period+0x28>)
20000a44:	4b07      	ldr	r3, [pc, #28]	@ (20000a64 <e15_is_critical_frame_period+0x2c>)
20000a46:	468c      	mov	ip, r1
20000a48:	4a07      	ldr	r2, [pc, #28]	@ (20000a68 <e15_is_critical_frame_period+0x30>)
20000a4a:	6a9b      	ldr	r3, [r3, #40]	@ 0x28
20000a4c:	6812      	ldr	r2, [r2, #0]
20000a4e:	4463      	add	r3, ip
20000a50:	1a9b      	subs	r3, r3, r2
20000a52:	2000      	movs	r0, #0
20000a54:	22c6      	movs	r2, #198	@ 0xc6
20000a56:	429a      	cmp	r2, r3
20000a58:	4140      	adcs	r0, r0
20000a5a:	b2c0      	uxtb	r0, r0
20000a5c:	bd10      	pop	{r4, pc}
20000a5e:	46c0      	nop			@ (mov r8, r8)
20000a60:	fffffce0 	.word	0xfffffce0
20000a64:	40054000 	.word	0x40054000
20000a68:	20001700 	.word	0x20001700

20000a6c <hw_endpoint_reset_transfer>:
20000a6c:	2300      	movs	r3, #0
20000a6e:	7683      	strb	r3, [r0, #26]
20000a70:	6143      	str	r3, [r0, #20]
20000a72:	6103      	str	r3, [r0, #16]
20000a74:	4770      	bx	lr
20000a76:	46c0      	nop			@ (mov r8, r8)

20000a78 <_hw_endpoint_buffer_control_update32>:
20000a78:	b510      	push	{r4, lr}
20000a7a:	6883      	ldr	r3, [r0, #8]
20000a7c:	2900      	cmp	r1, #0
20000a7e:	d001      	beq.n	20000a84 <_hw_endpoint_buffer_control_update32+0xc>
20000a80:	681c      	ldr	r4, [r3, #0]
20000a82:	4021      	ands	r1, r4
20000a84:	2a00      	cmp	r2, #0
20000a86:	d012      	beq.n	20000aae <_hw_endpoint_buffer_control_update32+0x36>
20000a88:	2480      	movs	r4, #128	@ 0x80
20000a8a:	00e4      	lsls	r4, r4, #3
20000a8c:	4311      	orrs	r1, r2
20000a8e:	4222      	tst	r2, r4
20000a90:	d00d      	beq.n	20000aae <_hw_endpoint_buffer_control_update32+0x36>
20000a92:	681a      	ldr	r2, [r3, #0]
20000a94:	4222      	tst	r2, r4
20000a96:	d10c      	bne.n	20000ab2 <_hw_endpoint_buffer_control_update32+0x3a>
20000a98:	4a08      	ldr	r2, [pc, #32]	@ (20000abc <_hw_endpoint_buffer_control_update32+0x44>)
20000a9a:	400a      	ands	r2, r1
20000a9c:	601a      	str	r2, [r3, #0]
20000a9e:	4a08      	ldr	r2, [pc, #32]	@ (20000ac0 <_hw_endpoint_buffer_control_update32+0x48>)
20000aa0:	6c12      	ldr	r2, [r2, #64]	@ 0x40
20000aa2:	0792      	lsls	r2, r2, #30
20000aa4:	d403      	bmi.n	20000aae <_hw_endpoint_buffer_control_update32+0x36>
20000aa6:	230c      	movs	r3, #12
20000aa8:	3b03      	subs	r3, #3
20000aaa:	d2fd      	bcs.n	20000aa8 <_hw_endpoint_buffer_control_update32+0x30>
20000aac:	6883      	ldr	r3, [r0, #8]
20000aae:	6019      	str	r1, [r3, #0]
20000ab0:	bd10      	pop	{r4, pc}
20000ab2:	7881      	ldrb	r1, [r0, #2]
20000ab4:	4803      	ldr	r0, [pc, #12]	@ (20000ac4 <_hw_endpoint_buffer_control_update32+0x4c>)
20000ab6:	f000 f95f 	bl	20000d78 <__panic_veneer>
20000aba:	46c0      	nop			@ (mov r8, r8)
20000abc:	fffffbff 	.word	0xfffffbff
20000ac0:	50110000 	.word	0x50110000
20000ac4:	10004d7c 	.word	0x10004d7c

20000ac8 <hw_endpoint_start_next_buffer>:
20000ac8:	6843      	ldr	r3, [r0, #4]
20000aca:	b570      	push	{r4, r5, r6, lr}
20000acc:	2100      	movs	r1, #0
20000ace:	2580      	movs	r5, #128	@ 0x80
20000ad0:	681e      	ldr	r6, [r3, #0]
20000ad2:	0004      	movs	r4, r0
20000ad4:	f7ff fec4 	bl	20000860 <prepare_ep_buffer>
20000ad8:	4b13      	ldr	r3, [pc, #76]	@ (20000b28 <hw_endpoint_start_next_buffer+0x60>)
20000ada:	016d      	lsls	r5, r5, #5
20000adc:	6c1b      	ldr	r3, [r3, #64]	@ 0x40
20000ade:	4305      	orrs	r5, r0
20000ae0:	079b      	lsls	r3, r3, #30
20000ae2:	d50f      	bpl.n	20000b04 <hw_endpoint_start_next_buffer+0x3c>
20000ae4:	78a3      	ldrb	r3, [r4, #2]
20000ae6:	065b      	lsls	r3, r3, #25
20000ae8:	d00f      	beq.n	20000b0a <hw_endpoint_start_next_buffer+0x42>
20000aea:	4b10      	ldr	r3, [pc, #64]	@ (20000b2c <hw_endpoint_start_next_buffer+0x64>)
20000aec:	401e      	ands	r6, r3
20000aee:	2380      	movs	r3, #128	@ 0x80
20000af0:	059b      	lsls	r3, r3, #22
20000af2:	4333      	orrs	r3, r6
20000af4:	6862      	ldr	r2, [r4, #4]
20000af6:	2100      	movs	r1, #0
20000af8:	6013      	str	r3, [r2, #0]
20000afa:	0020      	movs	r0, r4
20000afc:	002a      	movs	r2, r5
20000afe:	f7ff ffbb 	bl	20000a78 <_hw_endpoint_buffer_control_update32>
20000b02:	bd70      	pop	{r4, r5, r6, pc}
20000b04:	78a3      	ldrb	r3, [r4, #2]
20000b06:	09db      	lsrs	r3, r3, #7
20000b08:	d0ef      	beq.n	20000aea <hw_endpoint_start_next_buffer+0x22>
20000b0a:	8aa3      	ldrh	r3, [r4, #20]
20000b0c:	2b00      	cmp	r3, #0
20000b0e:	d0ec      	beq.n	20000aea <hw_endpoint_start_next_buffer+0x22>
20000b10:	2101      	movs	r1, #1
20000b12:	0020      	movs	r0, r4
20000b14:	f7ff fea4 	bl	20000860 <prepare_ep_buffer>
20000b18:	23a0      	movs	r3, #160	@ 0xa0
20000b1a:	4a05      	ldr	r2, [pc, #20]	@ (20000b30 <hw_endpoint_start_next_buffer+0x68>)
20000b1c:	05db      	lsls	r3, r3, #23
20000b1e:	4032      	ands	r2, r6
20000b20:	4305      	orrs	r5, r0
20000b22:	4313      	orrs	r3, r2
20000b24:	e7e6      	b.n	20000af4 <hw_endpoint_start_next_buffer+0x2c>
20000b26:	46c0      	nop			@ (mov r8, r8)
20000b28:	50110000 	.word	0x50110000
20000b2c:	afffffff 	.word	0xafffffff
20000b30:	dfffffff 	.word	0xdfffffff

20000b34 <hw_endpoint_xfer_continue>:
20000b34:	b570      	push	{r4, r5, r6, lr}
20000b36:	7e85      	ldrb	r5, [r0, #26]
20000b38:	0004      	movs	r4, r0
20000b3a:	2d00      	cmp	r5, #0
20000b3c:	d014      	beq.n	20000b68 <hw_endpoint_xfer_continue+0x34>
20000b3e:	f7ff ff53 	bl	200009e8 <_hw_endpoint_xfer_sync>
20000b42:	8aa3      	ldrh	r3, [r4, #20]
20000b44:	2b00      	cmp	r3, #0
20000b46:	d101      	bne.n	20000b4c <hw_endpoint_xfer_continue+0x18>
20000b48:	0028      	movs	r0, r5
20000b4a:	bd70      	pop	{r4, r5, r6, pc}
20000b4c:	0020      	movs	r0, r4
20000b4e:	f7ff ff73 	bl	20000a38 <e15_is_critical_frame_period>
20000b52:	2800      	cmp	r0, #0
20000b54:	d003      	beq.n	20000b5e <hw_endpoint_xfer_continue+0x2a>
20000b56:	2301      	movs	r3, #1
20000b58:	2500      	movs	r5, #0
20000b5a:	7723      	strb	r3, [r4, #28]
20000b5c:	e7f4      	b.n	20000b48 <hw_endpoint_xfer_continue+0x14>
20000b5e:	0020      	movs	r0, r4
20000b60:	f7ff ffb2 	bl	20000ac8 <hw_endpoint_start_next_buffer>
20000b64:	2500      	movs	r5, #0
20000b66:	e7ef      	b.n	20000b48 <hw_endpoint_xfer_continue+0x14>
20000b68:	7881      	ldrb	r1, [r0, #2]
20000b6a:	4801      	ldr	r0, [pc, #4]	@ (20000b70 <hw_endpoint_xfer_continue+0x3c>)
20000b6c:	f000 f904 	bl	20000d78 <__panic_veneer>
20000b70:	10004d9c 	.word	0x10004d9c

20000b74 <dcd_event_handler>:
20000b74:	b5f0      	push	{r4, r5, r6, r7, lr}
20000b76:	46ce      	mov	lr, r9
20000b78:	4647      	mov	r7, r8
20000b7a:	b580      	push	{r7, lr}
20000b7c:	7843      	ldrb	r3, [r0, #1]
20000b7e:	0005      	movs	r5, r0
20000b80:	000e      	movs	r6, r1
20000b82:	b085      	sub	sp, #20
20000b84:	2b06      	cmp	r3, #6
20000b86:	d808      	bhi.n	20000b9a <dcd_event_handler+0x26>
20000b88:	4a6b      	ldr	r2, [pc, #428]	@ (20000d38 <dcd_event_handler+0x1c4>)
20000b8a:	009b      	lsls	r3, r3, #2
20000b8c:	58d3      	ldr	r3, [r2, r3]
20000b8e:	469f      	mov	pc, r3
20000b90:	4a6a      	ldr	r2, [pc, #424]	@ (20000d3c <dcd_event_handler+0x1c8>)
20000b92:	7813      	ldrb	r3, [r2, #0]
20000b94:	3301      	adds	r3, #1
20000b96:	b2db      	uxtb	r3, r3
20000b98:	7013      	strb	r3, [r2, #0]
20000b9a:	4b69      	ldr	r3, [pc, #420]	@ (20000d40 <dcd_event_handler+0x1cc>)
20000b9c:	681c      	ldr	r4, [r3, #0]
20000b9e:	6962      	ldr	r2, [r4, #20]
20000ba0:	f3ef 8110 	mrs	r1, PRIMASK
20000ba4:	b672      	cpsid	i
20000ba6:	6813      	ldr	r3, [r2, #0]
20000ba8:	2b00      	cmp	r3, #0
20000baa:	d0fc      	beq.n	20000ba6 <dcd_event_handler+0x32>
20000bac:	f3bf 8f5f 	dmb	sy
20000bb0:	61a1      	str	r1, [r4, #24]
20000bb2:	0020      	movs	r0, r4
20000bb4:	0029      	movs	r1, r5
20000bb6:	f000 f8e7 	bl	20000d88 <__tu_fifo_write_veneer>
20000bba:	6962      	ldr	r2, [r4, #20]
20000bbc:	69a3      	ldr	r3, [r4, #24]
20000bbe:	f3bf 8f5f 	dmb	sy
20000bc2:	2100      	movs	r1, #0
20000bc4:	6011      	str	r1, [r2, #0]
20000bc6:	f383 8810 	msr	PRIMASK, r3
20000bca:	2800      	cmp	r0, #0
20000bcc:	d104      	bne.n	20000bd8 <dcd_event_handler+0x64>
20000bce:	b005      	add	sp, #20
20000bd0:	bcc0      	pop	{r6, r7}
20000bd2:	46b9      	mov	r9, r7
20000bd4:	46b0      	mov	r8, r6
20000bd6:	bdf0      	pop	{r4, r5, r6, r7, pc}
20000bd8:	0032      	movs	r2, r6
20000bda:	7869      	ldrb	r1, [r5, #1]
20000bdc:	7828      	ldrb	r0, [r5, #0]
20000bde:	f000 f8c3 	bl	20000d68 <__tud_event_hook_cb_veneer>
20000be2:	e7f4      	b.n	20000bce <dcd_event_handler+0x5a>
20000be4:	2101      	movs	r1, #1
20000be6:	4b57      	ldr	r3, [pc, #348]	@ (20000d44 <dcd_event_handler+0x1d0>)
20000be8:	781a      	ldrb	r2, [r3, #0]
20000bea:	438a      	bics	r2, r1
20000bec:	701a      	strb	r2, [r3, #0]
20000bee:	781a      	ldrb	r2, [r3, #0]
20000bf0:	3101      	adds	r1, #1
20000bf2:	438a      	bics	r2, r1
20000bf4:	701a      	strb	r2, [r3, #0]
20000bf6:	2200      	movs	r2, #0
20000bf8:	705a      	strb	r2, [r3, #1]
20000bfa:	781a      	ldrb	r2, [r3, #0]
20000bfc:	3102      	adds	r1, #2
20000bfe:	438a      	bics	r2, r1
20000c00:	701a      	strb	r2, [r3, #0]
20000c02:	e7ca      	b.n	20000b9a <dcd_event_handler+0x26>
20000c04:	4b50      	ldr	r3, [pc, #320]	@ (20000d48 <dcd_event_handler+0x1d4>)
20000c06:	4f51      	ldr	r7, [pc, #324]	@ (20000d4c <dcd_event_handler+0x1d8>)
20000c08:	4699      	mov	r9, r3
20000c0a:	4b51      	ldr	r3, [pc, #324]	@ (20000d50 <dcd_event_handler+0x1dc>)
20000c0c:	2400      	movs	r4, #0
20000c0e:	4698      	mov	r8, r3
20000c10:	783a      	ldrb	r2, [r7, #0]
20000c12:	e010      	b.n	20000c36 <dcd_event_handler+0xc2>
20000c14:	4643      	mov	r3, r8
20000c16:	681b      	ldr	r3, [r3, #0]
20000c18:	0161      	lsls	r1, r4, #5
20000c1a:	185b      	adds	r3, r3, r1
20000c1c:	2b00      	cmp	r3, #0
20000c1e:	d006      	beq.n	20000c2e <dcd_event_handler+0xba>
20000c20:	69db      	ldr	r3, [r3, #28]
20000c22:	2b00      	cmp	r3, #0
20000c24:	d003      	beq.n	20000c2e <dcd_event_handler+0xba>
20000c26:	6869      	ldr	r1, [r5, #4]
20000c28:	7828      	ldrb	r0, [r5, #0]
20000c2a:	4798      	blx	r3
20000c2c:	783a      	ldrb	r2, [r7, #0]
20000c2e:	3401      	adds	r4, #1
20000c30:	b2e4      	uxtb	r4, r4
20000c32:	4294      	cmp	r4, r2
20000c34:	d817      	bhi.n	20000c66 <dcd_event_handler+0xf2>
20000c36:	42a2      	cmp	r2, r4
20000c38:	d8ec      	bhi.n	20000c14 <dcd_event_handler+0xa0>
20000c3a:	1aa3      	subs	r3, r4, r2
20000c3c:	015b      	lsls	r3, r3, #5
20000c3e:	444b      	add	r3, r9
20000c40:	e7ee      	b.n	20000c20 <dcd_event_handler+0xac>
20000c42:	4b40      	ldr	r3, [pc, #256]	@ (20000d44 <dcd_event_handler+0x1d0>)
20000c44:	781a      	ldrb	r2, [r3, #0]
20000c46:	07d2      	lsls	r2, r2, #31
20000c48:	d5c1      	bpl.n	20000bce <dcd_event_handler+0x5a>
20000c4a:	2104      	movs	r1, #4
20000c4c:	781a      	ldrb	r2, [r3, #0]
20000c4e:	430a      	orrs	r2, r1
20000c50:	701a      	strb	r2, [r3, #0]
20000c52:	e7a2      	b.n	20000b9a <dcd_event_handler+0x26>
20000c54:	4b3b      	ldr	r3, [pc, #236]	@ (20000d44 <dcd_event_handler+0x1d0>)
20000c56:	781a      	ldrb	r2, [r3, #0]
20000c58:	07d2      	lsls	r2, r2, #31
20000c5a:	d5b8      	bpl.n	20000bce <dcd_event_handler+0x5a>
20000c5c:	2104      	movs	r1, #4
20000c5e:	781a      	ldrb	r2, [r3, #0]
20000c60:	438a      	bics	r2, r1
20000c62:	701a      	strb	r2, [r3, #0]
20000c64:	e799      	b.n	20000b9a <dcd_event_handler+0x26>
20000c66:	4f37      	ldr	r7, [pc, #220]	@ (20000d44 <dcd_event_handler+0x1d0>)
20000c68:	783b      	ldrb	r3, [r7, #0]
20000c6a:	075b      	lsls	r3, r3, #29
20000c6c:	d52b      	bpl.n	20000cc6 <dcd_event_handler+0x152>
20000c6e:	2204      	movs	r2, #4
20000c70:	783b      	ldrb	r3, [r7, #0]
20000c72:	2100      	movs	r1, #0
20000c74:	4393      	bics	r3, r2
20000c76:	703b      	strb	r3, [r7, #0]
20000c78:	466b      	mov	r3, sp
20000c7a:	3206      	adds	r2, #6
20000c7c:	1d98      	adds	r0, r3, #6
20000c7e:	f000 f89b 	bl	20000db8 <____wrap_memset_veneer>
20000c82:	782b      	ldrb	r3, [r5, #0]
20000c84:	ac01      	add	r4, sp, #4
20000c86:	7023      	strb	r3, [r4, #0]
20000c88:	2305      	movs	r3, #5
20000c8a:	7063      	strb	r3, [r4, #1]
20000c8c:	4b2c      	ldr	r3, [pc, #176]	@ (20000d40 <dcd_event_handler+0x1cc>)
20000c8e:	681b      	ldr	r3, [r3, #0]
20000c90:	4698      	mov	r8, r3
20000c92:	695a      	ldr	r2, [r3, #20]
20000c94:	f3ef 8110 	mrs	r1, PRIMASK
20000c98:	b672      	cpsid	i
20000c9a:	6813      	ldr	r3, [r2, #0]
20000c9c:	2b00      	cmp	r3, #0
20000c9e:	d0fc      	beq.n	20000c9a <dcd_event_handler+0x126>
20000ca0:	f3bf 8f5f 	dmb	sy
20000ca4:	4643      	mov	r3, r8
20000ca6:	4640      	mov	r0, r8
20000ca8:	6199      	str	r1, [r3, #24]
20000caa:	0021      	movs	r1, r4
20000cac:	f000 f86c 	bl	20000d88 <__tu_fifo_write_veneer>
20000cb0:	4643      	mov	r3, r8
20000cb2:	695a      	ldr	r2, [r3, #20]
20000cb4:	699b      	ldr	r3, [r3, #24]
20000cb6:	f3bf 8f5f 	dmb	sy
20000cba:	2100      	movs	r1, #0
20000cbc:	6011      	str	r1, [r2, #0]
20000cbe:	f383 8810 	msr	PRIMASK, r3
20000cc2:	2800      	cmp	r0, #0
20000cc4:	d131      	bne.n	20000d2a <dcd_event_handler+0x1b6>
20000cc6:	78fb      	ldrb	r3, [r7, #3]
20000cc8:	07db      	lsls	r3, r3, #31
20000cca:	d400      	bmi.n	20000cce <dcd_event_handler+0x15a>
20000ccc:	e77f      	b.n	20000bce <dcd_event_handler+0x5a>
20000cce:	466b      	mov	r3, sp
20000cd0:	220a      	movs	r2, #10
20000cd2:	2100      	movs	r1, #0
20000cd4:	1d98      	adds	r0, r3, #6
20000cd6:	f000 f86f 	bl	20000db8 <____wrap_memset_veneer>
20000cda:	782b      	ldrb	r3, [r5, #0]
20000cdc:	ac01      	add	r4, sp, #4
20000cde:	7023      	strb	r3, [r4, #0]
20000ce0:	2303      	movs	r3, #3
20000ce2:	7063      	strb	r3, [r4, #1]
20000ce4:	686b      	ldr	r3, [r5, #4]
20000ce6:	6063      	str	r3, [r4, #4]
20000ce8:	4b15      	ldr	r3, [pc, #84]	@ (20000d40 <dcd_event_handler+0x1cc>)
20000cea:	681d      	ldr	r5, [r3, #0]
20000cec:	696a      	ldr	r2, [r5, #20]
20000cee:	f3ef 8110 	mrs	r1, PRIMASK
20000cf2:	b672      	cpsid	i
20000cf4:	6813      	ldr	r3, [r2, #0]
20000cf6:	2b00      	cmp	r3, #0
20000cf8:	d0fc      	beq.n	20000cf4 <dcd_event_handler+0x180>
20000cfa:	f3bf 8f5f 	dmb	sy
20000cfe:	61a9      	str	r1, [r5, #24]
20000d00:	0028      	movs	r0, r5
20000d02:	0021      	movs	r1, r4
20000d04:	f000 f840 	bl	20000d88 <__tu_fifo_write_veneer>
20000d08:	696a      	ldr	r2, [r5, #20]
20000d0a:	69ab      	ldr	r3, [r5, #24]
20000d0c:	f3bf 8f5f 	dmb	sy
20000d10:	2100      	movs	r1, #0
20000d12:	6011      	str	r1, [r2, #0]
20000d14:	f383 8810 	msr	PRIMASK, r3
20000d18:	2800      	cmp	r0, #0
20000d1a:	d100      	bne.n	20000d1e <dcd_event_handler+0x1aa>
20000d1c:	e757      	b.n	20000bce <dcd_event_handler+0x5a>
20000d1e:	0032      	movs	r2, r6
20000d20:	7861      	ldrb	r1, [r4, #1]
20000d22:	7820      	ldrb	r0, [r4, #0]
20000d24:	f000 f820 	bl	20000d68 <__tud_event_hook_cb_veneer>
20000d28:	e751      	b.n	20000bce <dcd_event_handler+0x5a>
20000d2a:	0032      	movs	r2, r6
20000d2c:	7861      	ldrb	r1, [r4, #1]
20000d2e:	7820      	ldrb	r0, [r4, #0]
20000d30:	f000 f81a 	bl	20000d68 <__tud_event_hook_cb_veneer>
20000d34:	e7c7      	b.n	20000cc6 <dcd_event_handler+0x152>
20000d36:	46c0      	nop			@ (mov r8, r8)
20000d38:	100050cc 	.word	0x100050cc
20000d3c:	20001b4e 	.word	0x20001b4e
20000d40:	200013dc 	.word	0x200013dc
20000d44:	20001384 	.word	0x20001384
20000d48:	100050e8 	.word	0x100050e8
20000d4c:	20001b4c 	.word	0x20001b4c
20000d50:	20001268 	.word	0x20001268

20000d54 <__aeabi_idiv0>:
20000d54:	4770      	bx	lr
20000d56:	46c0      	nop			@ (mov r8, r8)

20000d58 <__time_us_64_veneer>:
20000d58:	b401      	push	{r0}
20000d5a:	4802      	ldr	r0, [pc, #8]	@ (20000d64 <__time_us_64_veneer+0xc>)
20000d5c:	4684      	mov	ip, r0
20000d5e:	bc01      	pop	{r0}
20000d60:	4760      	bx	ip
20000d62:	bf00      	nop
20000d64:	10002569 	.word	0x10002569

20000d68 <__tud_event_hook_cb_veneer>:
20000d68:	b401      	push	{r0}
20000d6a:	4802      	ldr	r0, [pc, #8]	@ (20000d74 <__tud_event_hook_cb_veneer+0xc>)
20000d6c:	4684      	mov	ip, r0
20000d6e:	bc01      	pop	{r0}
20000d70:	4760      	bx	ip
20000d72:	bf00      	nop
20000d74:	1000379d 	.word	0x1000379d

20000d78 <__panic_veneer>:
20000d78:	b401      	push	{r0}
20000d7a:	4802      	ldr	r0, [pc, #8]	@ (20000d84 <__panic_veneer+0xc>)
20000d7c:	4684      	mov	ip, r0
20000d7e:	bc01      	pop	{r0}
20000d80:	4760      	bx	ip
20000d82:	bf00      	nop
20000d84:	100016d1 	.word	0x100016d1

20000d88 <__tu_fifo_write_veneer>:
20000d88:	b401      	push	{r0}
20000d8a:	4802      	ldr	r0, [pc, #8]	@ (20000d94 <__tu_fifo_write_veneer+0xc>)
20000d8c:	4684      	mov	ip, r0
20000d8e:	bc01      	pop	{r0}
20000d90:	4760      	bx	ip
20000d92:	bf00      	nop
20000d94:	10004a29 	.word	0x10004a29

20000d98 <____wrap___aeabi_lmul_veneer>:
20000d98:	b401      	push	{r0}
20000d9a:	4802      	ldr	r0, [pc, #8]	@ (20000da4 <____wrap___aeabi_lmul_veneer+0xc>)
20000d9c:	4684      	mov	ip, r0
20000d9e:	bc01      	pop	{r0}
20000da0:	4760      	bx	ip
20000da2:	bf00      	nop
20000da4:	100030ad 	.word	0x100030ad

20000da8 <__rp2040_chip_version_veneer>:
20000da8:	b401      	push	{r0}
20000daa:	4802      	ldr	r0, [pc, #8]	@ (20000db4 <__rp2040_chip_version_veneer+0xc>)
20000dac:	4684      	mov	ip, r0
20000dae:	bc01      	pop	{r0}
20000db0:	4760      	bx	ip
20000db2:	bf00      	nop
20000db4:	100016c5 	.word	0x100016c5

20000db8 <____wrap_memset_veneer>:
20000db8:	b401      	push	{r0}
20000dba:	4802      	ldr	r0, [pc, #8]	@ (20000dc4 <____wrap_memset_veneer+0xc>)
20000dbc:	4684      	mov	ip, r0
20000dbe:	bc01      	pop	{r0}
20000dc0:	4760      	bx	ip
20000dc2:	bf00      	nop
20000dc4:	10003181 	.word	0x10003181

20000dc8 <__best_effort_wfe_or_timeout_veneer>:
20000dc8:	b401      	push	{r0}
20000dca:	4802      	ldr	r0, [pc, #8]	@ (20000dd4 <__best_effort_wfe_or_timeout_veneer+0xc>)
20000dcc:	4684      	mov	ip, r0
20000dce:	bc01      	pop	{r0}
20000dd0:	4760      	bx	ip
20000dd2:	bf00      	nop
20000dd4:	1000244d 	.word	0x1000244d

20000dd8 <arrows_labels>:
20000dd8:	10004c68 10004c6c 10004c70 10004c74     hL..lL..pL..tL..
20000de8:	10004c7c 10004c84 10004c8c 10004cac     |L...L...L...L..
20000df8:	10004c90                                .L..

20000dfc <wasd_labels>:
20000dfc:	10004c68 10004c94 10004c70 10004c98     hL...L..pL...L..
20000e0c:	10004c9c 10004ca0 10004c8c 10004cac     .L...L...L...L..
20000e1c:	10004c90                                .L..

20000e20 <string_desc_arr>:
20000e20:	10004f50 10004ca4 10004cb0 10004cc0     PO...L...L...L..

20000e30 <striped_spin_lock_num>:
20000e30:	00000010                                ....

20000e34 <irq_handler_chain_slots>:
20000e34:	00000000 	.word	0x00000000
20000e38:	00010000 	.word	0x00010000
	...
20000e44:	00020000 	.word	0x00020000
	...
20000e50:	00030000 	.word	0x00030000
	...
20000e5c:	00ff0000 	.word	0x00ff0000
20000e60:	00000000 	.word	0x00000000

20000e64 <irq_handler_chain_first_slot>:
20000e64:	b501      	push	{r0, lr}
20000e66:	6848      	ldr	r0, [r1, #4]
20000e68:	3101      	adds	r1, #1
20000e6a:	468e      	mov	lr, r1
20000e6c:	4700      	bx	r0

20000e6e <irq_handler_chain_remove_tail>:
20000e6e:	4670      	mov	r0, lr
20000e70:	3809      	subs	r0, #9
20000e72:	4901      	ldr	r1, [pc, #4]	@ (20000e78 <irq_handler_chain_remove_tail+0xa>)
20000e74:	4788      	blx	r1
20000e76:	bd01      	pop	{r0, pc}
20000e78:	10001c9d 	.word	0x10001c9d

20000e7c <default_alarm_pool>:
	...
20000e90:	20000ee8 00000000 00000000 00000000     ... ............

20000ea0 <aeabi_bits_funcs>:
20000ea0:	00003350 	.word	0x00003350
20000ea4:	0000334c 	.word	0x0000334c
20000ea8:	00003354 	.word	0x00003354
20000eac:	00003352 	.word	0x00003352

20000eb0 <aeabi_bits_funcs_end>:
20000eb0:	0000534d 	.word	0x0000534d
20000eb4:	0000434d 	.word	0x0000434d
20000eb8:	00003453 	.word	0x00003453
20000ebc:	00003443 	.word	0x00003443

20000ec0 <_usbd_qdef>:
20000ec0:	200013e0 000c0010 00000000 00000000     ... ............
	...

20000edc <_usbd_rhport>:
20000edc:	000000ff                                ....

20000ee0 <print_mutex>:
	...
